Archive member included because of file (symbol)

/home/born/DPDK-OVS/DPDK-1.6.0/build/lib/librte_pmd_e1000.a(igb_ethdev.o)
                              testpmd.o (rte_igb_pmd_init)
/home/born/DPDK-OVS/DPDK-1.6.0/build/lib/librte_pmd_e1000.a(igb_rxtx.o)
                              /home/born/DPDK-OVS/DPDK-1.6.0/build/lib/librte_pmd_e1000.a(igb_ethdev.o) (eth_igb_recv_pkts)
/home/born/DPDK-OVS/DPDK-1.6.0/build/lib/librte_pmd_e1000.a(igb_pf.o)
                              /home/born/DPDK-OVS/DPDK-1.6.0/build/lib/librte_pmd_e1000.a(igb_ethdev.o) (igb_pf_host_init)
/home/born/DPDK-OVS/DPDK-1.6.0/build/lib/librte_pmd_e1000.a(em_ethdev.o)
                              testpmd.o (rte_em_pmd_init)
/home/born/DPDK-OVS/DPDK-1.6.0/build/lib/librte_pmd_e1000.a(em_rxtx.o)
                              /home/born/DPDK-OVS/DPDK-1.6.0/build/lib/librte_pmd_e1000.a(em_ethdev.o) (eth_em_recv_pkts)
/home/born/DPDK-OVS/DPDK-1.6.0/build/lib/librte_pmd_e1000.a(e1000_82541.o)
                              /home/born/DPDK-OVS/DPDK-1.6.0/build/lib/librte_pmd_e1000.a(em_ethdev.o) (e1000_init_script_state_82541)
/home/born/DPDK-OVS/DPDK-1.6.0/build/lib/librte_pmd_e1000.a(e1000_82543.o)
                              /home/born/DPDK-OVS/DPDK-1.6.0/build/lib/librte_pmd_e1000.a(em_ethdev.o) (e1000_set_tbi_compatibility_82543)
/home/born/DPDK-OVS/DPDK-1.6.0/build/lib/librte_pmd_e1000.a(e1000_82571.o)
                              /home/born/DPDK-OVS/DPDK-1.6.0/build/lib/librte_pmd_e1000.a(em_ethdev.o) (e1000_set_laa_state_82571)
/home/born/DPDK-OVS/DPDK-1.6.0/build/lib/librte_pmd_e1000.a(e1000_82575.o)
                              /home/born/DPDK-OVS/DPDK-1.6.0/build/lib/librte_pmd_e1000.a(igb_pf.o) (e1000_vmdq_set_anti_spoofing_pf)
/home/born/DPDK-OVS/DPDK-1.6.0/build/lib/librte_pmd_e1000.a(e1000_i210.o)
                              /home/born/DPDK-OVS/DPDK-1.6.0/build/lib/librte_pmd_e1000.a(e1000_82575.o) (e1000_acquire_swfw_sync_i210)
/home/born/DPDK-OVS/DPDK-1.6.0/build/lib/librte_pmd_e1000.a(e1000_api.o)
                              /home/born/DPDK-OVS/DPDK-1.6.0/build/lib/librte_pmd_e1000.a(igb_ethdev.o) (e1000_set_mac_type)
/home/born/DPDK-OVS/DPDK-1.6.0/build/lib/librte_pmd_e1000.a(e1000_ich8lan.o)
                              /home/born/DPDK-OVS/DPDK-1.6.0/build/lib/librte_pmd_e1000.a(e1000_api.o) (e1000_init_function_pointers_ich8lan)
/home/born/DPDK-OVS/DPDK-1.6.0/build/lib/librte_pmd_e1000.a(e1000_mac.o)
                              /home/born/DPDK-OVS/DPDK-1.6.0/build/lib/librte_pmd_e1000.a(e1000_i210.o) (e1000_null_ops_generic)
/home/born/DPDK-OVS/DPDK-1.6.0/build/lib/librte_pmd_e1000.a(e1000_manage.o)
                              /home/born/DPDK-OVS/DPDK-1.6.0/build/lib/librte_pmd_e1000.a(e1000_api.o) (e1000_mng_enable_host_if_generic)
/home/born/DPDK-OVS/DPDK-1.6.0/build/lib/librte_pmd_e1000.a(e1000_mbx.o)
                              /home/born/DPDK-OVS/DPDK-1.6.0/build/lib/librte_pmd_e1000.a(igb_pf.o) (e1000_read_mbx)
/home/born/DPDK-OVS/DPDK-1.6.0/build/lib/librte_pmd_e1000.a(e1000_nvm.o)
                              /home/born/DPDK-OVS/DPDK-1.6.0/build/lib/librte_pmd_e1000.a(e1000_i210.o) (e1000_null_write_nvm)
/home/born/DPDK-OVS/DPDK-1.6.0/build/lib/librte_pmd_e1000.a(e1000_osdep.o)
                              /home/born/DPDK-OVS/DPDK-1.6.0/build/lib/librte_pmd_e1000.a(e1000_mac.o) (e1000_write_pci_cfg)
/home/born/DPDK-OVS/DPDK-1.6.0/build/lib/librte_pmd_e1000.a(e1000_phy.o)
                              /home/born/DPDK-OVS/DPDK-1.6.0/build/lib/librte_pmd_e1000.a(e1000_api.o) (e1000_init_phy_ops_generic)
/home/born/DPDK-OVS/DPDK-1.6.0/build/lib/librte_pmd_e1000.a(e1000_vf.o)
                              /home/born/DPDK-OVS/DPDK-1.6.0/build/lib/librte_pmd_e1000.a(e1000_api.o) (e1000_init_function_pointers_vf)
/home/born/DPDK-OVS/DPDK-1.6.0/build/lib/librte_pmd_e1000.a(e1000_80003es2lan.o)
                              /home/born/DPDK-OVS/DPDK-1.6.0/build/lib/librte_pmd_e1000.a(e1000_api.o) (e1000_init_function_pointers_80003es2lan)
/home/born/DPDK-OVS/DPDK-1.6.0/build/lib/librte_pmd_e1000.a(e1000_82540.o)
                              /home/born/DPDK-OVS/DPDK-1.6.0/build/lib/librte_pmd_e1000.a(e1000_api.o) (e1000_init_function_pointers_82540)
/home/born/DPDK-OVS/DPDK-1.6.0/build/lib/librte_pmd_e1000.a(e1000_82542.o)
                              /home/born/DPDK-OVS/DPDK-1.6.0/build/lib/librte_pmd_e1000.a(e1000_api.o) (e1000_init_function_pointers_82542)
/home/born/DPDK-OVS/DPDK-1.6.0/build/lib/librte_pmd_ixgbe.a(ixgbe_ethdev.o)
                              testpmd.o (rte_ixgbe_pmd_init)
/home/born/DPDK-OVS/DPDK-1.6.0/build/lib/librte_pmd_ixgbe.a(ixgbe_fdir.o)
                              /home/born/DPDK-OVS/DPDK-1.6.0/build/lib/librte_pmd_ixgbe.a(ixgbe_ethdev.o) (ixgbe_fdir_configure)
/home/born/DPDK-OVS/DPDK-1.6.0/build/lib/librte_pmd_ixgbe.a(ixgbe_pf.o)
                              /home/born/DPDK-OVS/DPDK-1.6.0/build/lib/librte_pmd_ixgbe.a(ixgbe_ethdev.o) (ixgbe_pf_host_init)
/home/born/DPDK-OVS/DPDK-1.6.0/build/lib/librte_pmd_ixgbe.a(ixgbe_common.o)
                              /home/born/DPDK-OVS/DPDK-1.6.0/build/lib/librte_pmd_ixgbe.a(ixgbe_ethdev.o) (ixgbe_fc_autoneg)
/home/born/DPDK-OVS/DPDK-1.6.0/build/lib/librte_pmd_ixgbe.a(ixgbe_82599.o)
                              /home/born/DPDK-OVS/DPDK-1.6.0/build/lib/librte_pmd_ixgbe.a(ixgbe_fdir.o) (ixgbe_reinit_fdir_tables_82599)
/home/born/DPDK-OVS/DPDK-1.6.0/build/lib/librte_pmd_ixgbe.a(ixgbe_phy.o)
                              /home/born/DPDK-OVS/DPDK-1.6.0/build/lib/librte_pmd_ixgbe.a(ixgbe_82599.o) (ixgbe_init_phy_ops_generic)
/home/born/DPDK-OVS/DPDK-1.6.0/build/lib/librte_pmd_ixgbe.a(ixgbe_api.o)
                              /home/born/DPDK-OVS/DPDK-1.6.0/build/lib/librte_pmd_ixgbe.a(ixgbe_ethdev.o) (ixgbe_init_shared_code)
/home/born/DPDK-OVS/DPDK-1.6.0/build/lib/librte_pmd_ixgbe.a(ixgbe_vf.o)
                              /home/born/DPDK-OVS/DPDK-1.6.0/build/lib/librte_pmd_ixgbe.a(ixgbe_api.o) (ixgbe_init_ops_vf)
/home/born/DPDK-OVS/DPDK-1.6.0/build/lib/librte_pmd_ixgbe.a(ixgbe_dcb.o)
                              /home/born/DPDK-OVS/DPDK-1.6.0/build/lib/librte_pmd_ixgbe.a(ixgbe_ethdev.o) (ixgbe_dcb_unpack_map_cee)
/home/born/DPDK-OVS/DPDK-1.6.0/build/lib/librte_pmd_ixgbe.a(ixgbe_dcb_82599.o)
                              /home/born/DPDK-OVS/DPDK-1.6.0/build/lib/librte_pmd_ixgbe.a(ixgbe_dcb.o) (ixgbe_dcb_get_tc_stats_82599)
/home/born/DPDK-OVS/DPDK-1.6.0/build/lib/librte_pmd_ixgbe.a(ixgbe_dcb_82598.o)
                              /home/born/DPDK-OVS/DPDK-1.6.0/build/lib/librte_pmd_ixgbe.a(ixgbe_dcb.o) (ixgbe_dcb_get_tc_stats_82598)
/home/born/DPDK-OVS/DPDK-1.6.0/build/lib/librte_pmd_ixgbe.a(ixgbe_mbx.o)
                              /home/born/DPDK-OVS/DPDK-1.6.0/build/lib/librte_pmd_ixgbe.a(ixgbe_pf.o) (ixgbe_read_mbx)
/home/born/DPDK-OVS/DPDK-1.6.0/build/lib/librte_pmd_ixgbe.a(ixgbe_rxtx.o)
                              /home/born/DPDK-OVS/DPDK-1.6.0/build/lib/librte_pmd_ixgbe.a(ixgbe_ethdev.o) (ixgbe_recv_pkts)
/home/born/DPDK-OVS/DPDK-1.6.0/build/lib/librte_pmd_ixgbe.a(ixgbe_82598.o)
                              /home/born/DPDK-OVS/DPDK-1.6.0/build/lib/librte_pmd_ixgbe.a(ixgbe_api.o) (ixgbe_init_ops_82598)
/home/born/DPDK-OVS/DPDK-1.6.0/build/lib/librte_pmd_ixgbe.a(ixgbe_x540.o)
                              /home/born/DPDK-OVS/DPDK-1.6.0/build/lib/librte_pmd_ixgbe.a(ixgbe_api.o) (ixgbe_init_ops_X540)
/home/born/DPDK-OVS/DPDK-1.6.0/build/lib/librte_pmd_virtio.a(virtio_ethdev.o)
                              testpmd.o (rte_virtio_pmd_init)
/home/born/DPDK-OVS/DPDK-1.6.0/build/lib/librte_pmd_virtio.a(virtqueue.o)
                              /home/born/DPDK-OVS/DPDK-1.6.0/build/lib/librte_pmd_virtio.a(virtio_ethdev.o) (virtqueue_detatch_unused)
/home/born/DPDK-OVS/DPDK-1.6.0/build/lib/librte_pmd_virtio.a(virtio_pci.o)
                              /home/born/DPDK-OVS/DPDK-1.6.0/build/lib/librte_pmd_virtio.a(virtio_ethdev.o) (vtpci_read_dev_config)
/home/born/DPDK-OVS/DPDK-1.6.0/build/lib/librte_pmd_virtio.a(virtio_rxtx.o)
                              /home/born/DPDK-OVS/DPDK-1.6.0/build/lib/librte_pmd_virtio.a(virtio_ethdev.o) (virtio_dev_rxtx_start)
/home/born/DPDK-OVS/DPDK-1.6.0/build/lib/librte_pmd_vmxnet3.a(vmxnet3_ethdev.o)
                              testpmd.o (rte_vmxnet3_pmd_init)
/home/born/DPDK-OVS/DPDK-1.6.0/build/lib/librte_pmd_vmxnet3.a(vmxnet3_rxtx.o)
                              /home/born/DPDK-OVS/DPDK-1.6.0/build/lib/librte_pmd_vmxnet3.a(vmxnet3_ethdev.o) (vmxnet3_dev_tx_queue_release)
/home/born/DPDK-OVS/DPDK-1.6.0/build/lib/libethdev.a(rte_ethdev.o)
                              testpmd.o (rte_eth_devices)
/home/born/DPDK-OVS/DPDK-1.6.0/build/lib/librte_malloc.a(rte_malloc.o)
                              testpmd.o (rte_free)
/home/born/DPDK-OVS/DPDK-1.6.0/build/lib/librte_malloc.a(malloc_elem.o)
                              /home/born/DPDK-OVS/DPDK-1.6.0/build/lib/librte_malloc.a(rte_malloc.o) (malloc_elem_free)
/home/born/DPDK-OVS/DPDK-1.6.0/build/lib/librte_malloc.a(malloc_heap.o)
                              /home/born/DPDK-OVS/DPDK-1.6.0/build/lib/librte_malloc.a(rte_malloc.o) (malloc_heap_alloc)
/home/born/DPDK-OVS/DPDK-1.6.0/build/lib/librte_mempool.a(rte_mempool.o)
                              mempool_anon.o (rte_mempool_calc_obj_size)
/home/born/DPDK-OVS/DPDK-1.6.0/build/lib/librte_ring.a(rte_ring.o)
                              /home/born/DPDK-OVS/DPDK-1.6.0/build/lib/librte_mempool.a(rte_mempool.o) (rte_ring_create)
/home/born/DPDK-OVS/DPDK-1.6.0/build/lib/librte_eal.a(eal.o)
                              testpmd.o (rte_eal_get_configuration)
/home/born/DPDK-OVS/DPDK-1.6.0/build/lib/librte_eal.a(eal_hugepage_info.o)
                              /home/born/DPDK-OVS/DPDK-1.6.0/build/lib/librte_eal.a(eal.o) (eal_hugepage_info_init)
/home/born/DPDK-OVS/DPDK-1.6.0/build/lib/librte_eal.a(eal_memory.o)
                              /home/born/DPDK-OVS/DPDK-1.6.0/build/lib/librte_eal.a(eal.o) (rte_eal_memory_init)
/home/born/DPDK-OVS/DPDK-1.6.0/build/lib/librte_eal.a(eal_thread.o)
                              testpmd.o (per_lcore__lcore_id)
/home/born/DPDK-OVS/DPDK-1.6.0/build/lib/librte_eal.a(eal_log.o)
                              /home/born/DPDK-OVS/DPDK-1.6.0/build/lib/librte_eal.a(eal.o) (rte_eal_log_init)
/home/born/DPDK-OVS/DPDK-1.6.0/build/lib/librte_eal.a(eal_pci.o)
                              /home/born/DPDK-OVS/DPDK-1.6.0/build/lib/librte_eal.a(eal.o) (rte_eal_pci_init)
/home/born/DPDK-OVS/DPDK-1.6.0/build/lib/librte_eal.a(eal_debug.o)
                              testpmd.o (__rte_panic)
/home/born/DPDK-OVS/DPDK-1.6.0/build/lib/librte_eal.a(eal_lcore.o)
                              /home/born/DPDK-OVS/DPDK-1.6.0/build/lib/librte_eal.a(eal.o) (rte_eal_cpu_init)
/home/born/DPDK-OVS/DPDK-1.6.0/build/lib/librte_eal.a(eal_timer.o)
                              testpmd.o (rte_delay_us)
/home/born/DPDK-OVS/DPDK-1.6.0/build/lib/librte_eal.a(eal_interrupts.o)
                              /home/born/DPDK-OVS/DPDK-1.6.0/build/lib/librte_pmd_e1000.a(igb_ethdev.o) (rte_intr_callback_register)
/home/born/DPDK-OVS/DPDK-1.6.0/build/lib/librte_eal.a(eal_alarm.o)
                              /home/born/DPDK-OVS/DPDK-1.6.0/build/lib/librte_eal.a(eal.o) (rte_eal_alarm_init)
/home/born/DPDK-OVS/DPDK-1.6.0/build/lib/librte_eal.a(eal_ivshmem.o)
                              /home/born/DPDK-OVS/DPDK-1.6.0/build/lib/librte_eal.a(eal.o) (rte_eal_ivshmem_obj_init)
/home/born/DPDK-OVS/DPDK-1.6.0/build/lib/librte_eal.a(eal_common_memzone.o)
                              /home/born/DPDK-OVS/DPDK-1.6.0/build/lib/librte_pmd_e1000.a(igb_rxtx.o) (rte_memzone_reserve_aligned)
/home/born/DPDK-OVS/DPDK-1.6.0/build/lib/librte_eal.a(eal_common_log.o)
                              /home/born/DPDK-OVS/DPDK-1.6.0/build/lib/librte_eal.a(eal_log.o) (rte_log_add_in_history)
/home/born/DPDK-OVS/DPDK-1.6.0/build/lib/librte_eal.a(eal_common_launch.o)
                              /home/born/DPDK-OVS/DPDK-1.6.0/build/lib/librte_eal.a(eal.o) (rte_eal_mp_remote_launch)
/home/born/DPDK-OVS/DPDK-1.6.0/build/lib/librte_eal.a(eal_common_pci.o)
                              /home/born/DPDK-OVS/DPDK-1.6.0/build/lib/librte_eal.a(eal_pci.o) (driver_list)
/home/born/DPDK-OVS/DPDK-1.6.0/build/lib/librte_eal.a(eal_common_memory.o)
                              /home/born/DPDK-OVS/DPDK-1.6.0/build/lib/librte_eal.a(eal.o) (rte_eal_get_physmem_layout)
/home/born/DPDK-OVS/DPDK-1.6.0/build/lib/librte_eal.a(eal_common_tailqs.o)
                              /home/born/DPDK-OVS/DPDK-1.6.0/build/lib/librte_mempool.a(rte_mempool.o) (rte_eal_tailq_lookup_by_idx)
/home/born/DPDK-OVS/DPDK-1.6.0/build/lib/librte_eal.a(eal_common_errno.o)
                              mempool_anon.o (per_lcore__rte_errno)
/home/born/DPDK-OVS/DPDK-1.6.0/build/lib/librte_eal.a(eal_common_whitelist.o)
                              /home/born/DPDK-OVS/DPDK-1.6.0/build/lib/librte_eal.a(eal.o) (eal_dev_whitelist_add_entry)
/home/born/DPDK-OVS/DPDK-1.6.0/build/lib/librte_eal.a(eal_common_nonpci_devs.o)
                              /home/born/DPDK-OVS/DPDK-1.6.0/build/lib/librte_eal.a(eal.o) (rte_eal_non_pci_ethdev_init)
/home/born/DPDK-OVS/DPDK-1.6.0/build/lib/librte_cmdline.a(cmdline.o)
                              cmdline.o (cmdline_printf)
/home/born/DPDK-OVS/DPDK-1.6.0/build/lib/librte_cmdline.a(cmdline_parse.o)
                              /home/born/DPDK-OVS/DPDK-1.6.0/build/lib/librte_cmdline.a(cmdline.o) (cmdline_parse)
/home/born/DPDK-OVS/DPDK-1.6.0/build/lib/librte_cmdline.a(cmdline_parse_etheraddr.o)
                              parameters.o (cmdline_parse_etheraddr)
/home/born/DPDK-OVS/DPDK-1.6.0/build/lib/librte_cmdline.a(cmdline_parse_ipaddr.o)
                              cmdline.o (cmdline_token_ipaddr_ops)
/home/born/DPDK-OVS/DPDK-1.6.0/build/lib/librte_cmdline.a(cmdline_parse_num.o)
                              cmdline.o (cmdline_token_num_ops)
/home/born/DPDK-OVS/DPDK-1.6.0/build/lib/librte_cmdline.a(cmdline_parse_string.o)
                              cmdline.o (cmdline_token_string_ops)
/home/born/DPDK-OVS/DPDK-1.6.0/build/lib/librte_cmdline.a(cmdline_rdline.o)
                              /home/born/DPDK-OVS/DPDK-1.6.0/build/lib/librte_cmdline.a(cmdline.o) (rdline_init)
/home/born/DPDK-OVS/DPDK-1.6.0/build/lib/librte_cmdline.a(cmdline_vt100.o)
                              /home/born/DPDK-OVS/DPDK-1.6.0/build/lib/librte_cmdline.a(cmdline_rdline.o) (vt100_init)
/home/born/DPDK-OVS/DPDK-1.6.0/build/lib/librte_cmdline.a(cmdline_socket.o)
                              cmdline.o (cmdline_stdin_new)
/home/born/DPDK-OVS/DPDK-1.6.0/build/lib/librte_cmdline.a(cmdline_cirbuf.o)
                              /home/born/DPDK-OVS/DPDK-1.6.0/build/lib/librte_cmdline.a(cmdline_rdline.o) (cirbuf_init)
/home/born/DPDK-OVS/DPDK-1.6.0/build/lib/librte_pmd_ring.a(rte_eth_ring.o)
                              /home/born/DPDK-OVS/DPDK-1.6.0/build/lib/librte_eal.a(eal_common_nonpci_devs.o) (rte_pmd_ring_init)
/usr/lib/x86_64-linux-gnu/libc_nonshared.a(elf-init.oS)
                              /usr/lib/gcc/x86_64-linux-gnu/4.6/../../../x86_64-linux-gnu/crt1.o (__libc_csu_init)

Allocating common symbols
Common symbol       size              file

tx_queue_stats_mappings_array
                    0x10000           testpmd.o
nb_ports            0x1               testpmd.o
fwd_ports_ids       0x20              testpmd.o
nb_cfg_ports        0x1               testpmd.o
rte_cycles_vmware_tsc_map
                    0x4               /home/born/DPDK-OVS/DPDK-1.6.0/build/lib/librte_eal.a(eal.o)
fwd_lcores_cpuids   0x100             testpmd.o
rxring_numa         0x20              testpmd.o
nb_fwd_lcores       0x1               testpmd.o
txring_numa         0x20              testpmd.o
internal_config     0x140             /home/born/DPDK-OVS/DPDK-1.6.0/build/lib/librte_eal.a(eal.o)
port_numa           0x20              testpmd.o
driver_list         0x10              /home/born/DPDK-OVS/DPDK-1.6.0/build/lib/librte_eal.a(eal_common_pci.o)
ports               0x8               testpmd.o
lcore_config        0x1000            /home/born/DPDK-OVS/DPDK-1.6.0/build/lib/librte_eal.a(eal.o)
rte_eth_devices     0x800             /home/born/DPDK-OVS/DPDK-1.6.0/build/lib/libethdev.a(rte_ethdev.o)
rx_queue_stats_mappings_array
                    0x40000           testpmd.o
nb_fwd_ports        0x1               testpmd.o
fwd_streams         0x8               testpmd.o
nb_fwd_streams      0x2               testpmd.o
cur_fwd_config      0x10              testpmd.o
peer_eth_addrs      0xc0              testpmd.o
nb_lcores           0x1               testpmd.o
fwd_lcores          0x8               testpmd.o
device_list         0x10              /home/born/DPDK-OVS/DPDK-1.6.0/build/lib/librte_eal.a(eal_common_pci.o)
nb_cfg_lcores       0x1               testpmd.o

Discarded input sections

 .note.GNU-stack
                0x0000000000000000        0x0 /usr/lib/gcc/x86_64-linux-gnu/4.6/../../../x86_64-linux-gnu/crt1.o
 .gnu_debuglink
                0x0000000000000000        0xc /usr/lib/gcc/x86_64-linux-gnu/4.6/../../../x86_64-linux-gnu/crt1.o
 .note.GNU-stack
                0x0000000000000000        0x0 /usr/lib/gcc/x86_64-linux-gnu/4.6/../../../x86_64-linux-gnu/crti.o
 .gnu_debuglink
                0x0000000000000000        0xc /usr/lib/gcc/x86_64-linux-gnu/4.6/../../../x86_64-linux-gnu/crti.o
 .note.GNU-stack
                0x0000000000000000        0x0 /usr/lib/gcc/x86_64-linux-gnu/4.6/crtbegin.o
 .note.GNU-stack
                0x0000000000000000        0x0 testpmd.o
 .note.GNU-stack
                0x0000000000000000        0x0 parameters.o
 .note.GNU-stack
                0x0000000000000000        0x0 cmdline.o
 .note.GNU-stack
                0x0000000000000000        0x0 config.o
 .note.GNU-stack
                0x0000000000000000        0x0 iofwd.o
 .note.GNU-stack
                0x0000000000000000        0x0 macfwd.o
 .note.GNU-stack
                0x0000000000000000        0x0 macfwd-retry.o
 .note.GNU-stack
                0x0000000000000000        0x0 rxonly.o
 .note.GNU-stack
                0x0000000000000000        0x0 txonly.o
 .note.GNU-stack
                0x0000000000000000        0x0 csumonly.o
 .note.GNU-stack
                0x0000000000000000        0x0 mempool_anon.o
 .note.GNU-stack
                0x0000000000000000        0x0 /home/born/DPDK-OVS/DPDK-1.6.0/build/lib/librte_pmd_e1000.a(igb_ethdev.o)
 .note.GNU-stack
                0x0000000000000000        0x0 /home/born/DPDK-OVS/DPDK-1.6.0/build/lib/librte_pmd_e1000.a(igb_rxtx.o)
 .note.GNU-stack
                0x0000000000000000        0x0 /home/born/DPDK-OVS/DPDK-1.6.0/build/lib/librte_pmd_e1000.a(igb_pf.o)
 .note.GNU-stack
                0x0000000000000000        0x0 /home/born/DPDK-OVS/DPDK-1.6.0/build/lib/librte_pmd_e1000.a(em_ethdev.o)
 .note.GNU-stack
                0x0000000000000000        0x0 /home/born/DPDK-OVS/DPDK-1.6.0/build/lib/librte_pmd_e1000.a(em_rxtx.o)
 .note.GNU-stack
                0x0000000000000000        0x0 /home/born/DPDK-OVS/DPDK-1.6.0/build/lib/librte_pmd_e1000.a(e1000_82541.o)
 .note.GNU-stack
                0x0000000000000000        0x0 /home/born/DPDK-OVS/DPDK-1.6.0/build/lib/librte_pmd_e1000.a(e1000_82543.o)
 .note.GNU-stack
                0x0000000000000000        0x0 /home/born/DPDK-OVS/DPDK-1.6.0/build/lib/librte_pmd_e1000.a(e1000_82571.o)
 .note.GNU-stack
                0x0000000000000000        0x0 /home/born/DPDK-OVS/DPDK-1.6.0/build/lib/librte_pmd_e1000.a(e1000_82575.o)
 .note.GNU-stack
                0x0000000000000000        0x0 /home/born/DPDK-OVS/DPDK-1.6.0/build/lib/librte_pmd_e1000.a(e1000_i210.o)
 .note.GNU-stack
                0x0000000000000000        0x0 /home/born/DPDK-OVS/DPDK-1.6.0/build/lib/librte_pmd_e1000.a(e1000_api.o)
 .note.GNU-stack
                0x0000000000000000        0x0 /home/born/DPDK-OVS/DPDK-1.6.0/build/lib/librte_pmd_e1000.a(e1000_ich8lan.o)
 .note.GNU-stack
                0x0000000000000000        0x0 /home/born/DPDK-OVS/DPDK-1.6.0/build/lib/librte_pmd_e1000.a(e1000_mac.o)
 .note.GNU-stack
                0x0000000000000000        0x0 /home/born/DPDK-OVS/DPDK-1.6.0/build/lib/librte_pmd_e1000.a(e1000_manage.o)
 .note.GNU-stack
                0x0000000000000000        0x0 /home/born/DPDK-OVS/DPDK-1.6.0/build/lib/librte_pmd_e1000.a(e1000_mbx.o)
 .note.GNU-stack
                0x0000000000000000        0x0 /home/born/DPDK-OVS/DPDK-1.6.0/build/lib/librte_pmd_e1000.a(e1000_nvm.o)
 .note.GNU-stack
                0x0000000000000000        0x0 /home/born/DPDK-OVS/DPDK-1.6.0/build/lib/librte_pmd_e1000.a(e1000_osdep.o)
 .note.GNU-stack
                0x0000000000000000        0x0 /home/born/DPDK-OVS/DPDK-1.6.0/build/lib/librte_pmd_e1000.a(e1000_phy.o)
 .note.GNU-stack
                0x0000000000000000        0x0 /home/born/DPDK-OVS/DPDK-1.6.0/build/lib/librte_pmd_e1000.a(e1000_vf.o)
 .note.GNU-stack
                0x0000000000000000        0x0 /home/born/DPDK-OVS/DPDK-1.6.0/build/lib/librte_pmd_e1000.a(e1000_80003es2lan.o)
 .note.GNU-stack
                0x0000000000000000        0x0 /home/born/DPDK-OVS/DPDK-1.6.0/build/lib/librte_pmd_e1000.a(e1000_82540.o)
 .note.GNU-stack
                0x0000000000000000        0x0 /home/born/DPDK-OVS/DPDK-1.6.0/build/lib/librte_pmd_e1000.a(e1000_82542.o)
 .note.GNU-stack
                0x0000000000000000        0x0 /home/born/DPDK-OVS/DPDK-1.6.0/build/lib/librte_pmd_ixgbe.a(ixgbe_ethdev.o)
 .note.GNU-stack
                0x0000000000000000        0x0 /home/born/DPDK-OVS/DPDK-1.6.0/build/lib/librte_pmd_ixgbe.a(ixgbe_fdir.o)
 .note.GNU-stack
                0x0000000000000000        0x0 /home/born/DPDK-OVS/DPDK-1.6.0/build/lib/librte_pmd_ixgbe.a(ixgbe_pf.o)
 .note.GNU-stack
                0x0000000000000000        0x0 /home/born/DPDK-OVS/DPDK-1.6.0/build/lib/librte_pmd_ixgbe.a(ixgbe_common.o)
 .note.GNU-stack
                0x0000000000000000        0x0 /home/born/DPDK-OVS/DPDK-1.6.0/build/lib/librte_pmd_ixgbe.a(ixgbe_82599.o)
 .note.GNU-stack
                0x0000000000000000        0x0 /home/born/DPDK-OVS/DPDK-1.6.0/build/lib/librte_pmd_ixgbe.a(ixgbe_phy.o)
 .note.GNU-stack
                0x0000000000000000        0x0 /home/born/DPDK-OVS/DPDK-1.6.0/build/lib/librte_pmd_ixgbe.a(ixgbe_api.o)
 .note.GNU-stack
                0x0000000000000000        0x0 /home/born/DPDK-OVS/DPDK-1.6.0/build/lib/librte_pmd_ixgbe.a(ixgbe_vf.o)
 .note.GNU-stack
                0x0000000000000000        0x0 /home/born/DPDK-OVS/DPDK-1.6.0/build/lib/librte_pmd_ixgbe.a(ixgbe_dcb.o)
 .note.GNU-stack
                0x0000000000000000        0x0 /home/born/DPDK-OVS/DPDK-1.6.0/build/lib/librte_pmd_ixgbe.a(ixgbe_dcb_82599.o)
 .note.GNU-stack
                0x0000000000000000        0x0 /home/born/DPDK-OVS/DPDK-1.6.0/build/lib/librte_pmd_ixgbe.a(ixgbe_dcb_82598.o)
 .note.GNU-stack
                0x0000000000000000        0x0 /home/born/DPDK-OVS/DPDK-1.6.0/build/lib/librte_pmd_ixgbe.a(ixgbe_mbx.o)
 .note.GNU-stack
                0x0000000000000000        0x0 /home/born/DPDK-OVS/DPDK-1.6.0/build/lib/librte_pmd_ixgbe.a(ixgbe_rxtx.o)
 .note.GNU-stack
                0x0000000000000000        0x0 /home/born/DPDK-OVS/DPDK-1.6.0/build/lib/librte_pmd_ixgbe.a(ixgbe_82598.o)
 .note.GNU-stack
                0x0000000000000000        0x0 /home/born/DPDK-OVS/DPDK-1.6.0/build/lib/librte_pmd_ixgbe.a(ixgbe_x540.o)
 .note.GNU-stack
                0x0000000000000000        0x0 /home/born/DPDK-OVS/DPDK-1.6.0/build/lib/librte_pmd_virtio.a(virtio_ethdev.o)
 .note.GNU-stack
                0x0000000000000000        0x0 /home/born/DPDK-OVS/DPDK-1.6.0/build/lib/librte_pmd_virtio.a(virtqueue.o)
 .note.GNU-stack
                0x0000000000000000        0x0 /home/born/DPDK-OVS/DPDK-1.6.0/build/lib/librte_pmd_virtio.a(virtio_pci.o)
 .note.GNU-stack
                0x0000000000000000        0x0 /home/born/DPDK-OVS/DPDK-1.6.0/build/lib/librte_pmd_virtio.a(virtio_rxtx.o)
 .note.GNU-stack
                0x0000000000000000        0x0 /home/born/DPDK-OVS/DPDK-1.6.0/build/lib/librte_pmd_vmxnet3.a(vmxnet3_ethdev.o)
 .note.GNU-stack
                0x0000000000000000        0x0 /home/born/DPDK-OVS/DPDK-1.6.0/build/lib/librte_pmd_vmxnet3.a(vmxnet3_rxtx.o)
 .note.GNU-stack
                0x0000000000000000        0x0 /home/born/DPDK-OVS/DPDK-1.6.0/build/lib/libethdev.a(rte_ethdev.o)
 .note.GNU-stack
                0x0000000000000000        0x0 /home/born/DPDK-OVS/DPDK-1.6.0/build/lib/librte_malloc.a(rte_malloc.o)
 .note.GNU-stack
                0x0000000000000000        0x0 /home/born/DPDK-OVS/DPDK-1.6.0/build/lib/librte_malloc.a(malloc_elem.o)
 .note.GNU-stack
                0x0000000000000000        0x0 /home/born/DPDK-OVS/DPDK-1.6.0/build/lib/librte_malloc.a(malloc_heap.o)
 .note.GNU-stack
                0x0000000000000000        0x0 /home/born/DPDK-OVS/DPDK-1.6.0/build/lib/librte_mempool.a(rte_mempool.o)
 .note.GNU-stack
                0x0000000000000000        0x0 /home/born/DPDK-OVS/DPDK-1.6.0/build/lib/librte_ring.a(rte_ring.o)
 .note.GNU-stack
                0x0000000000000000        0x0 /home/born/DPDK-OVS/DPDK-1.6.0/build/lib/librte_eal.a(eal.o)
 .note.GNU-stack
                0x0000000000000000        0x0 /home/born/DPDK-OVS/DPDK-1.6.0/build/lib/librte_eal.a(eal_hugepage_info.o)
 .note.GNU-stack
                0x0000000000000000        0x0 /home/born/DPDK-OVS/DPDK-1.6.0/build/lib/librte_eal.a(eal_memory.o)
 .note.GNU-stack
                0x0000000000000000        0x0 /home/born/DPDK-OVS/DPDK-1.6.0/build/lib/librte_eal.a(eal_thread.o)
 .note.GNU-stack
                0x0000000000000000        0x0 /home/born/DPDK-OVS/DPDK-1.6.0/build/lib/librte_eal.a(eal_log.o)
 .note.GNU-stack
                0x0000000000000000        0x0 /home/born/DPDK-OVS/DPDK-1.6.0/build/lib/librte_eal.a(eal_pci.o)
 .note.GNU-stack
                0x0000000000000000        0x0 /home/born/DPDK-OVS/DPDK-1.6.0/build/lib/librte_eal.a(eal_debug.o)
 .note.GNU-stack
                0x0000000000000000        0x0 /home/born/DPDK-OVS/DPDK-1.6.0/build/lib/librte_eal.a(eal_lcore.o)
 .note.GNU-stack
                0x0000000000000000        0x0 /home/born/DPDK-OVS/DPDK-1.6.0/build/lib/librte_eal.a(eal_timer.o)
 .note.GNU-stack
                0x0000000000000000        0x0 /home/born/DPDK-OVS/DPDK-1.6.0/build/lib/librte_eal.a(eal_interrupts.o)
 .note.GNU-stack
                0x0000000000000000        0x0 /home/born/DPDK-OVS/DPDK-1.6.0/build/lib/librte_eal.a(eal_alarm.o)
 .note.GNU-stack
                0x0000000000000000        0x0 /home/born/DPDK-OVS/DPDK-1.6.0/build/lib/librte_eal.a(eal_ivshmem.o)
 .note.GNU-stack
                0x0000000000000000        0x0 /home/born/DPDK-OVS/DPDK-1.6.0/build/lib/librte_eal.a(eal_common_memzone.o)
 .note.GNU-stack
                0x0000000000000000        0x0 /home/born/DPDK-OVS/DPDK-1.6.0/build/lib/librte_eal.a(eal_common_log.o)
 .note.GNU-stack
                0x0000000000000000        0x0 /home/born/DPDK-OVS/DPDK-1.6.0/build/lib/librte_eal.a(eal_common_launch.o)
 .note.GNU-stack
                0x0000000000000000        0x0 /home/born/DPDK-OVS/DPDK-1.6.0/build/lib/librte_eal.a(eal_common_pci.o)
 .note.GNU-stack
                0x0000000000000000        0x0 /home/born/DPDK-OVS/DPDK-1.6.0/build/lib/librte_eal.a(eal_common_memory.o)
 .note.GNU-stack
                0x0000000000000000        0x0 /home/born/DPDK-OVS/DPDK-1.6.0/build/lib/librte_eal.a(eal_common_tailqs.o)
 .note.GNU-stack
                0x0000000000000000        0x0 /home/born/DPDK-OVS/DPDK-1.6.0/build/lib/librte_eal.a(eal_common_errno.o)
 .note.GNU-stack
                0x0000000000000000        0x0 /home/born/DPDK-OVS/DPDK-1.6.0/build/lib/librte_eal.a(eal_common_whitelist.o)
 .note.GNU-stack
                0x0000000000000000        0x0 /home/born/DPDK-OVS/DPDK-1.6.0/build/lib/librte_eal.a(eal_common_nonpci_devs.o)
 .note.GNU-stack
                0x0000000000000000        0x0 /home/born/DPDK-OVS/DPDK-1.6.0/build/lib/librte_cmdline.a(cmdline.o)
 .note.GNU-stack
                0x0000000000000000        0x0 /home/born/DPDK-OVS/DPDK-1.6.0/build/lib/librte_cmdline.a(cmdline_parse.o)
 .note.GNU-stack
                0x0000000000000000        0x0 /home/born/DPDK-OVS/DPDK-1.6.0/build/lib/librte_cmdline.a(cmdline_parse_etheraddr.o)
 .note.GNU-stack
                0x0000000000000000        0x0 /home/born/DPDK-OVS/DPDK-1.6.0/build/lib/librte_cmdline.a(cmdline_parse_ipaddr.o)
 .note.GNU-stack
                0x0000000000000000        0x0 /home/born/DPDK-OVS/DPDK-1.6.0/build/lib/librte_cmdline.a(cmdline_parse_num.o)
 .note.GNU-stack
                0x0000000000000000        0x0 /home/born/DPDK-OVS/DPDK-1.6.0/build/lib/librte_cmdline.a(cmdline_parse_string.o)
 .note.GNU-stack
                0x0000000000000000        0x0 /home/born/DPDK-OVS/DPDK-1.6.0/build/lib/librte_cmdline.a(cmdline_rdline.o)
 .note.GNU-stack
                0x0000000000000000        0x0 /home/born/DPDK-OVS/DPDK-1.6.0/build/lib/librte_cmdline.a(cmdline_vt100.o)
 .note.GNU-stack
                0x0000000000000000        0x0 /home/born/DPDK-OVS/DPDK-1.6.0/build/lib/librte_cmdline.a(cmdline_socket.o)
 .note.GNU-stack
                0x0000000000000000        0x0 /home/born/DPDK-OVS/DPDK-1.6.0/build/lib/librte_cmdline.a(cmdline_cirbuf.o)
 .note.GNU-stack
                0x0000000000000000        0x0 /home/born/DPDK-OVS/DPDK-1.6.0/build/lib/librte_pmd_ring.a(rte_eth_ring.o)
 .note.GNU-stack
                0x0000000000000000        0x0 /usr/lib/x86_64-linux-gnu/libc_nonshared.a(elf-init.oS)
 .note.GNU-stack
                0x0000000000000000        0x0 /usr/lib/gcc/x86_64-linux-gnu/4.6/crtend.o
 .note.GNU-stack
                0x0000000000000000        0x0 /usr/lib/gcc/x86_64-linux-gnu/4.6/../../../x86_64-linux-gnu/crtn.o
 .gnu_debuglink
                0x0000000000000000        0xc /usr/lib/gcc/x86_64-linux-gnu/4.6/../../../x86_64-linux-gnu/crtn.o

Memory Configuration

Name             Origin             Length             Attributes
*default*        0x0000000000000000 0xffffffffffffffff

Linker script and memory map

LOAD /usr/lib/gcc/x86_64-linux-gnu/4.6/../../../x86_64-linux-gnu/crt1.o
LOAD /usr/lib/gcc/x86_64-linux-gnu/4.6/../../../x86_64-linux-gnu/crti.o
LOAD /usr/lib/gcc/x86_64-linux-gnu/4.6/crtbegin.o
LOAD testpmd.o
LOAD parameters.o
LOAD cmdline.o
LOAD config.o
LOAD iofwd.o
LOAD macfwd.o
LOAD macfwd-retry.o
LOAD rxonly.o
LOAD txonly.o
LOAD csumonly.o
LOAD mempool_anon.o
LOAD /home/born/DPDK-OVS/DPDK-1.6.0/build/lib/librte_kni.a
LOAD /home/born/DPDK-OVS/DPDK-1.6.0/build/lib/librte_ivshmem.a
LOAD /home/born/DPDK-OVS/DPDK-1.6.0/build/lib/librte_pmd_e1000.a
LOAD /home/born/DPDK-OVS/DPDK-1.6.0/build/lib/librte_pmd_ixgbe.a
LOAD /home/born/DPDK-OVS/DPDK-1.6.0/build/lib/librte_pmd_virtio.a
LOAD /home/born/DPDK-OVS/DPDK-1.6.0/build/lib/librte_pmd_vmxnet3.a
LOAD /home/born/DPDK-OVS/DPDK-1.6.0/build/lib/librte_timer.a
LOAD /home/born/DPDK-OVS/DPDK-1.6.0/build/lib/librte_hash.a
LOAD /home/born/DPDK-OVS/DPDK-1.6.0/build/lib/librte_lpm.a
LOAD /home/born/DPDK-OVS/DPDK-1.6.0/build/lib/librte_power.a
LOAD /home/born/DPDK-OVS/DPDK-1.6.0/build/lib/librte_meter.a
LOAD /home/born/DPDK-OVS/DPDK-1.6.0/build/lib/librte_sched.a
LOAD /usr/lib/gcc/x86_64-linux-gnu/4.6/../../../x86_64-linux-gnu/libm.so
LOAD /usr/lib/gcc/x86_64-linux-gnu/4.6/../../../x86_64-linux-gnu/librt.so
START GROUP
LOAD /home/born/DPDK-OVS/DPDK-1.6.0/build/lib/librte_mbuf.a
LOAD /home/born/DPDK-OVS/DPDK-1.6.0/build/lib/libethdev.a
LOAD /home/born/DPDK-OVS/DPDK-1.6.0/build/lib/librte_pmd_ring.a
LOAD /home/born/DPDK-OVS/DPDK-1.6.0/build/lib/librte_malloc.a
LOAD /home/born/DPDK-OVS/DPDK-1.6.0/build/lib/librte_mempool.a
LOAD /home/born/DPDK-OVS/DPDK-1.6.0/build/lib/librte_ring.a
LOAD /home/born/DPDK-OVS/DPDK-1.6.0/build/lib/librte_eal.a
LOAD /home/born/DPDK-OVS/DPDK-1.6.0/build/lib/librte_cmdline.a
LOAD /usr/lib/gcc/x86_64-linux-gnu/4.6/../../../x86_64-linux-gnu/librt.so
LOAD /usr/lib/gcc/x86_64-linux-gnu/4.6/../../../x86_64-linux-gnu/libm.so
END GROUP
LOAD /usr/lib/gcc/x86_64-linux-gnu/4.6/libgcc.a
LOAD /usr/lib/gcc/x86_64-linux-gnu/4.6/libgcc_s.so
LOAD /usr/lib/gcc/x86_64-linux-gnu/4.6/../../../x86_64-linux-gnu/libpthread.so
START GROUP
LOAD /lib/x86_64-linux-gnu/libpthread.so.0
LOAD /usr/lib/x86_64-linux-gnu/libpthread_nonshared.a
END GROUP
LOAD /usr/lib/gcc/x86_64-linux-gnu/4.6/../../../x86_64-linux-gnu/libc.so
START GROUP
LOAD /lib/x86_64-linux-gnu/libc.so.6
LOAD /usr/lib/x86_64-linux-gnu/libc_nonshared.a
LOAD /lib/x86_64-linux-gnu/ld-linux-x86-64.so.2
END GROUP
LOAD /usr/lib/gcc/x86_64-linux-gnu/4.6/libgcc.a
LOAD /usr/lib/gcc/x86_64-linux-gnu/4.6/libgcc_s.so
LOAD /usr/lib/gcc/x86_64-linux-gnu/4.6/crtend.o
LOAD /usr/lib/gcc/x86_64-linux-gnu/4.6/../../../x86_64-linux-gnu/crtn.o
                0x0000000000400000                PROVIDE (__executable_start, 0x400000)
                0x0000000000400270                . = (0x400000 + SIZEOF_HEADERS)

.interp         0x0000000000400270       0x1c
 *(.interp)
 .interp        0x0000000000400270       0x1c /usr/lib/gcc/x86_64-linux-gnu/4.6/../../../x86_64-linux-gnu/crt1.o

.note.ABI-tag   0x000000000040028c       0x20
 .note.ABI-tag  0x000000000040028c       0x20 /usr/lib/gcc/x86_64-linux-gnu/4.6/../../../x86_64-linux-gnu/crt1.o

.note.gnu.build-id
                0x00000000004002ac       0x24
 *(.note.gnu.build-id)
 .note.gnu.build-id
                0x00000000004002ac       0x24 /usr/lib/gcc/x86_64-linux-gnu/4.6/../../../x86_64-linux-gnu/crt1.o

.hash
 *(.hash)

.gnu.hash       0x00000000004002d0      0xa54
 *(.gnu.hash)
 .gnu.hash      0x00000000004002d0      0xa54 /usr/lib/gcc/x86_64-linux-gnu/4.6/../../../x86_64-linux-gnu/crt1.o

.dynsym         0x0000000000400d28     0x28e0
 *(.dynsym)
 .dynsym        0x0000000000400d28     0x28e0 /usr/lib/gcc/x86_64-linux-gnu/4.6/../../../x86_64-linux-gnu/crt1.o

.dynstr         0x0000000000403608     0x2327
 *(.dynstr)
 .dynstr        0x0000000000403608     0x2327 /usr/lib/gcc/x86_64-linux-gnu/4.6/../../../x86_64-linux-gnu/crt1.o

.gnu.version    0x0000000000405930      0x368
 *(.gnu.version)
 .gnu.version   0x0000000000405930      0x368 /usr/lib/gcc/x86_64-linux-gnu/4.6/../../../x86_64-linux-gnu/crt1.o

.gnu.version_d  0x0000000000405c98        0x0
 *(.gnu.version_d)
 .gnu.version_d
                0x0000000000000000        0x0 /usr/lib/gcc/x86_64-linux-gnu/4.6/../../../x86_64-linux-gnu/crt1.o

.gnu.version_r  0x0000000000405c98      0x100
 *(.gnu.version_r)
 .gnu.version_r
                0x0000000000405c98      0x100 /usr/lib/gcc/x86_64-linux-gnu/4.6/../../../x86_64-linux-gnu/crt1.o

.rela.dyn       0x0000000000405d98     0x1f68
 *(.rela.init)
 *(.rela.text .rela.text.* .rela.gnu.linkonce.t.*)
 .rela.text     0x0000000000000000        0x0 /usr/lib/gcc/x86_64-linux-gnu/4.6/../../../x86_64-linux-gnu/crt1.o
 *(.rela.fini)
 *(.rela.rodata .rela.rodata.* .rela.gnu.linkonce.r.*)
 *(.rela.data .rela.data.* .rela.gnu.linkonce.d.*)
 .rela.data.rel
                0x0000000000000000        0x0 /usr/lib/gcc/x86_64-linux-gnu/4.6/../../../x86_64-linux-gnu/crt1.o
 *(.rela.tdata .rela.tdata.* .rela.gnu.linkonce.td.*)
 *(.rela.tbss .rela.tbss.* .rela.gnu.linkonce.tb.*)
 *(.rela.ctors)
 *(.rela.dtors)
 *(.rela.got)
 .rela.got      0x0000000000405d98     0x1f68 /usr/lib/gcc/x86_64-linux-gnu/4.6/../../../x86_64-linux-gnu/crt1.o
 *(.rela.bss .rela.bss.* .rela.gnu.linkonce.b.*)
 .rela.bss      0x0000000000000000        0x0 /usr/lib/gcc/x86_64-linux-gnu/4.6/../../../x86_64-linux-gnu/crt1.o
 *(.rela.ldata .rela.ldata.* .rela.gnu.linkonce.l.*)
 *(.rela.lbss .rela.lbss.* .rela.gnu.linkonce.lb.*)
 *(.rela.lrodata .rela.lrodata.* .rela.gnu.linkonce.lr.*)
 *(.rela.ifunc)

.rela.plt       0x0000000000407d00      0x948
 *(.rela.plt)
 .rela.plt      0x0000000000407d00      0x948 /usr/lib/gcc/x86_64-linux-gnu/4.6/../../../x86_64-linux-gnu/crt1.o
                0x0000000000408648                PROVIDE (__rela_iplt_start, .)
 *(.rela.iplt)
 .rela.iplt     0x0000000000000000        0x0 /usr/lib/gcc/x86_64-linux-gnu/4.6/../../../x86_64-linux-gnu/crt1.o
                0x0000000000408648                PROVIDE (__rela_iplt_end, .)

.init           0x0000000000408648       0x18
 *(.init)
 .init          0x0000000000408648        0x9 /usr/lib/gcc/x86_64-linux-gnu/4.6/../../../x86_64-linux-gnu/crti.o
                0x0000000000408648                _init
 .init          0x0000000000408651        0x5 /usr/lib/gcc/x86_64-linux-gnu/4.6/crtbegin.o
 .init          0x0000000000408656        0x5 /usr/lib/gcc/x86_64-linux-gnu/4.6/crtend.o
 .init          0x000000000040865b        0x5 /usr/lib/gcc/x86_64-linux-gnu/4.6/../../../x86_64-linux-gnu/crtn.o

.plt            0x0000000000408660      0x640
 *(.plt)
 .plt           0x0000000000408660      0x640 /usr/lib/gcc/x86_64-linux-gnu/4.6/../../../x86_64-linux-gnu/crt1.o
                0x0000000000408670                getenv@@GLIBC_2.2.5
                0x0000000000408680                free@@GLIBC_2.2.5
                0x0000000000408690                putchar@@GLIBC_2.2.5
                0x00000000004086a0                pthread_create@@GLIBC_2.2.5
                0x00000000004086b0                __vfprintf_chk@@GLIBC_2.3.4
                0x00000000004086c0                abort@@GLIBC_2.2.5
                0x00000000004086d0                __errno_location@@GLIBC_2.2.5
                0x00000000004086e0                unlink@@GLIBC_2.2.5
                0x00000000004086f0                strncmp@@GLIBC_2.2.5
                0x0000000000408700                fopencookie@@GLIBC_2.2.5
                0x0000000000408710                __read_chk@@GLIBC_2.4
                0x0000000000408720                unlinkat@@GLIBC_2.4
                0x0000000000408730                puts@@GLIBC_2.2.5
                0x0000000000408740                qsort@@GLIBC_2.2.5
                0x0000000000408750                vsnprintf@@GLIBC_2.2.5
                0x0000000000408760                backtrace_symbols@@GLIBC_2.2.5
                0x0000000000408770                __xpg_strerror_r@@GLIBC_2.3.4
                0x0000000000408780                fcntl@@GLIBC_2.2.5
                0x0000000000408790                write@@GLIBC_2.2.5
                0x00000000004087a0                fclose@@GLIBC_2.2.5
                0x00000000004087b0                opendir@@GLIBC_2.2.5
                0x00000000004087c0                backtrace@@GLIBC_2.2.5
                0x00000000004087d0                openat@@GLIBC_2.4
                0x00000000004087e0                __stack_chk_fail@@GLIBC_2.4
                0x00000000004087f0                getuid@@GLIBC_2.2.5
                0x0000000000408800                mmap@@GLIBC_2.2.5
                0x0000000000408810                getopt_long@@GLIBC_2.2.5
                0x0000000000408820                setbuf@@GLIBC_2.2.5
                0x0000000000408830                pthread_setaffinity_np@@GLIBC_2.3.4
                0x0000000000408840                strchr@@GLIBC_2.2.5
                0x0000000000408850                printf@@GLIBC_2.2.5
                0x0000000000408860                nanosleep@@GLIBC_2.2.5
                0x0000000000408870                strrchr@@GLIBC_2.2.5
                0x0000000000408880                ftruncate@@GLIBC_2.2.5
                0x0000000000408890                lseek@@GLIBC_2.2.5
                0x00000000004088a0                gettimeofday@@GLIBC_2.2.5
                0x00000000004088b0                iopl@@GLIBC_2.2.5
                0x00000000004088c0                fnmatch@@GLIBC_2.2.5
                0x00000000004088d0                memset@@GLIBC_2.2.5
                0x00000000004088e0                index@@GLIBC_2.2.5
                0x00000000004088f0                strnlen@@GLIBC_2.2.5
                0x0000000000408900                close@@GLIBC_2.2.5
                0x0000000000408910                pipe@@GLIBC_2.2.5
                0x0000000000408920                closedir@@GLIBC_2.2.5
                0x0000000000408930                epoll_ctl@@GLIBC_2.3.2
                0x0000000000408940                __strdup@@GLIBC_2.2.5
                0x0000000000408950                read@@GLIBC_2.2.5
                0x0000000000408960                __libc_start_main@@GLIBC_2.2.5
                0x0000000000408970                memcmp@@GLIBC_2.2.5
                0x0000000000408980                fgets@@GLIBC_2.2.5
                0x0000000000408990                __tls_get_addr@@GLIBC_2.3
                0x00000000004089a0                strtoull@@GLIBC_2.2.5
                0x00000000004089b0                calloc@@GLIBC_2.2.5
                0x00000000004089c0                __vdprintf_chk@@GLIBC_2.8
                0x00000000004089d0                strcmp@@GLIBC_2.2.5
                0x00000000004089e0                dirfd@@GLIBC_2.2.5
                0x00000000004089f0                __strndup@@GLIBC_2.2.5
                0x0000000000408a00                __memcpy_chk@@GLIBC_2.3.4
                0x0000000000408a10                timerfd_create@@GLIBC_2.8
                0x0000000000408a20                strtol@@GLIBC_2.2.5
                0x0000000000408a30                memcpy@@GLIBC_2.14
                0x0000000000408a40                fileno@@GLIBC_2.2.5
                0x0000000000408a50                readdir@@GLIBC_2.2.5
                0x0000000000408a60                malloc@@GLIBC_2.2.5
                0x0000000000408a70                strncasecmp@@GLIBC_2.2.5
                0x0000000000408a80                fflush@@GLIBC_2.2.5
                0x0000000000408a90                __sched_cpufree@@GLIBC_2.7
                0x0000000000408aa0                __fxstat@@GLIBC_2.2.5
                0x0000000000408ab0                clock_gettime@@GLIBC_2.2.5
                0x0000000000408ac0                lrand48@@GLIBC_2.2.5
                0x0000000000408ad0                __sched_cpualloc@@GLIBC_2.7
                0x0000000000408ae0                __vsnprintf_chk@@GLIBC_2.3.4
                0x0000000000408af0                srand48@@GLIBC_2.2.5
                0x0000000000408b00                munmap@@GLIBC_2.2.5
                0x0000000000408b10                __printf_chk@@GLIBC_2.3.4
                0x0000000000408b20                epoll_wait@@GLIBC_2.3.2
                0x0000000000408b30                __syslog_chk@@GLIBC_2.4
                0x0000000000408b40                pthread_self@@GLIBC_2.2.5
                0x0000000000408b50                tcgetattr@@GLIBC_2.2.5
                0x0000000000408b60                tcsetattr@@GLIBC_2.2.5
                0x0000000000408b70                open@@GLIBC_2.2.5
                0x0000000000408b80                access@@GLIBC_2.2.5
                0x0000000000408b90                fopen@@GLIBC_2.2.5
                0x0000000000408ba0                perror@@GLIBC_2.2.5
                0x0000000000408bb0                sysconf@@GLIBC_2.2.5
                0x0000000000408bc0                strtoul@@GLIBC_2.2.5
                0x0000000000408bd0                timerfd_settime@@GLIBC_2.8
                0x0000000000408be0                flock@@GLIBC_2.2.5
                0x0000000000408bf0                pread@@GLIBC_2.2.5
                0x0000000000408c00                openlog@@GLIBC_2.2.5
                0x0000000000408c10                getpagesize@@GLIBC_2.2.5
                0x0000000000408c20                epoll_create@@GLIBC_2.3.2
                0x0000000000408c30                exit@@GLIBC_2.2.5
                0x0000000000408c40                fwrite@@GLIBC_2.2.5
                0x0000000000408c50                strerror@@GLIBC_2.2.5
                0x0000000000408c60                sleep@@GLIBC_2.2.5
                0x0000000000408c70                strstr@@GLIBC_2.2.5
                0x0000000000408c80                __ctype_tolower_loc@@GLIBC_2.3
                0x0000000000408c90                __ctype_b_loc@@GLIBC_2.3
 *(.iplt)
 .iplt          0x0000000000000000        0x0 /usr/lib/gcc/x86_64-linux-gnu/4.6/../../../x86_64-linux-gnu/crt1.o

.text           0x0000000000408ca0    0x82a98
 *(.text.unlikely .text.*_unlikely)
 .text.unlikely
                0x0000000000408ca0       0xcd /home/born/DPDK-OVS/DPDK-1.6.0/build/lib/librte_eal.a(eal_debug.o)
                0x0000000000408ca0                __rte_panic
 .text.unlikely
                0x0000000000408d6d       0x8a /home/born/DPDK-OVS/DPDK-1.6.0/build/lib/librte_eal.a(eal_common_log.o)
                0x0000000000408d6d                rte_log
 *(.text.exit .text.exit.*)
 *(.text.startup .text.startup.*)
 *fill*         0x0000000000408df7        0x9 90909090
 .text.startup  0x0000000000408e00      0x6f4 testpmd.o
                0x0000000000408e00                main
 *(.text.hot .text.hot.*)
 *(.text .stub .text.* .gnu.linkonce.t.*)
 .text          0x00000000004094f4       0x2c /usr/lib/gcc/x86_64-linux-gnu/4.6/../../../x86_64-linux-gnu/crt1.o
                0x00000000004094f4                _start
 .text          0x0000000000409520       0x17 /usr/lib/gcc/x86_64-linux-gnu/4.6/../../../x86_64-linux-gnu/crti.o
 *fill*         0x0000000000409537        0x9 90909090
 .text          0x0000000000409540       0x92 /usr/lib/gcc/x86_64-linux-gnu/4.6/crtbegin.o
 *fill*         0x00000000004095d2        0xe 90909090
 .text          0x00000000004095e0     0x32d2 testpmd.o
                0x000000000040a5f0                set_def_fwd_config
                0x000000000040a720                init_fwd_streams
                0x000000000040a9c0                start_packet_forwarding
                0x000000000040aca0                stop_packet_forwarding
                0x000000000040b9f0                start_port
                0x000000000040bf40                stop_port
                0x000000000040c090                close_port
                0x000000000040c1b0                all_ports_stopped
                0x000000000040c220                pmd_test_exit
                0x000000000040c2a0                init_port_config
                0x000000000040c460                init_port_dcb_config
 *fill*         0x000000000040c8b2        0xe 90909090
 .text          0x000000000040c8c0     0x2353 parameters.o
                0x000000000040cfd0                launch_args_parse
 *fill*         0x000000000040ec13        0xd 90909090
 .text          0x000000000040ec20     0x3362 cmdline.o
                0x0000000000411f50                prompt
 *fill*         0x0000000000411f82        0xe 90909090
 .text          0x0000000000411f90     0x3998 config.o
                0x00000000004120c0                nic_stats_display
                0x00000000004127d0                nic_stats_clear
                0x0000000000412830                nic_stats_mapping_display
                0x0000000000412a20                port_infos_display
                0x0000000000412d30                port_reg_bit_display
                0x0000000000412e70                port_reg_bit_field_display
                0x0000000000413060                port_reg_display
                0x0000000000413130                port_reg_bit_set
                0x0000000000413290                port_reg_bit_field_set
                0x0000000000413440                port_reg_set
                0x0000000000413510                rx_ring_desc_display
                0x00000000004136b0                tx_ring_desc_display
                0x0000000000413850                fwd_lcores_config_display
                0x00000000004138b0                rxtx_config_display
                0x0000000000413a40                port_rss_reta_info
                0x0000000000413b70                fwd_config_setup
                0x00000000004143b0                fwd_config_display
                0x0000000000414650                set_fwd_lcores_list
                0x00000000004147b0                set_fwd_lcores_mask
                0x0000000000414810                set_fwd_lcores_number
                0x0000000000414870                set_fwd_ports_list
                0x0000000000414940                set_fwd_ports_mask
                0x00000000004149a0                set_fwd_ports_number
                0x0000000000414a00                set_nb_pkt_per_burst
                0x0000000000414a50                set_tx_pkt_segments
                0x0000000000414bd0                set_pkt_forwarding_mode
                0x0000000000414c60                set_verbose_level
                0x0000000000414cb0                vlan_extend_set
                0x0000000000414d60                rx_vlan_strip_set
                0x0000000000414e10                rx_vlan_strip_set_on_queue
                0x0000000000414ec0                rx_vlan_filter_set
                0x0000000000414f70                rx_vft_set
                0x0000000000415050                rx_vlan_all_filter_set
                0x00000000004150b0                vlan_tpid_set
                0x0000000000415150                tx_vlan_set
                0x00000000004151d0                tx_vlan_reset
                0x0000000000415220                set_qmap
                0x00000000004153f0                tx_cksum_set
                0x0000000000415450                fdir_add_signature_filter
                0x00000000004154c0                fdir_update_signature_filter
                0x0000000000415530                fdir_remove_signature_filter
                0x0000000000415590                fdir_get_infos
                0x0000000000415670                fdir_add_perfect_filter
                0x00000000004156e0                fdir_update_perfect_filter
                0x0000000000415750                fdir_remove_perfect_filter
                0x00000000004157c0                fdir_set_masks
                0x0000000000415820                set_vf_traffic
                0x00000000004158a0                set_vf_rx_vlan
 *fill*         0x0000000000415928        0x8 90909090
 .text          0x0000000000415930      0x7e5 iofwd.o
 *fill*         0x0000000000416115        0xb 90909090
 .text          0x0000000000416120      0x7f8 macfwd.o
 *fill*         0x0000000000416918        0x8 90909090
 .text          0x0000000000416920      0x828 macfwd-retry.o
 *fill*         0x0000000000417148        0x8 90909090
 .text          0x0000000000417150      0xa8c rxonly.o
 *fill*         0x0000000000417bdc        0x4 90909090
 .text          0x0000000000417be0     0x1947 txonly.o
 *fill*         0x0000000000419527        0x9 90909090
 .text          0x0000000000419530     0x13d1 csumonly.o
 *fill*         0x000000000041a901        0xf 90909090
 .text          0x000000000041a910      0x4e9 mempool_anon.o
                0x000000000041a910                mempool_anon_create
 *fill*         0x000000000041adf9        0x7 90909090
 .text          0x000000000041ae00     0x2217 /home/born/DPDK-OVS/DPDK-1.6.0/build/lib/librte_pmd_e1000.a(igb_ethdev.o)
                0x000000000041cfe0                rte_igb_pmd_init
                0x000000000041d000                rte_igbvf_pmd_init
 *fill*         0x000000000041d017        0x9 90909090
 .text          0x000000000041d020     0x55a1 /home/born/DPDK-OVS/DPDK-1.6.0/build/lib/librte_pmd_e1000.a(igb_rxtx.o)
                0x000000000041d020                eth_igb_recv_pkts
                0x000000000041ded0                eth_igb_xmit_pkts
                0x000000000041f920                eth_igb_recv_scattered_pkts
                0x0000000000420600                eth_igb_tx_queue_release
                0x0000000000420640                eth_igb_tx_queue_setup
                0x00000000004209c0                eth_igb_rx_queue_release
                0x0000000000420a00                eth_igb_rx_queue_setup
                0x0000000000420d40                eth_igb_rx_queue_count
                0x0000000000420db0                eth_igb_rx_descriptor_done
                0x0000000000420df0                igb_dev_clear_queues
                0x0000000000420f00                eth_igb_rx_init
                0x0000000000421c40                eth_igb_tx_init
                0x0000000000421e20                eth_igbvf_rx_init
                0x0000000000422480                eth_igbvf_tx_init
 *fill*         0x00000000004225c1        0xf 90909090
 .text          0x00000000004225d0      0x90c /home/born/DPDK-OVS/DPDK-1.6.0/build/lib/librte_pmd_e1000.a(igb_pf.o)
                0x0000000000422670                igb_pf_host_init
                0x00000000004227e0                igb_pf_host_configure
                0x0000000000422910                igb_pf_mbx_process
 *fill*         0x0000000000422edc        0x4 90909090
 .text          0x0000000000422ee0     0x1407 /home/born/DPDK-OVS/DPDK-1.6.0/build/lib/librte_pmd_e1000.a(em_ethdev.o)
                0x00000000004242d0                rte_em_pmd_init
 *fill*         0x00000000004242e7        0x9 90909090
 .text          0x00000000004242f0     0x485d /home/born/DPDK-OVS/DPDK-1.6.0/build/lib/librte_pmd_e1000.a(em_rxtx.o)
                0x00000000004242f0                eth_em_recv_pkts
                0x0000000000425850                eth_em_recv_scattered_pkts
                0x00000000004264d0                eth_em_xmit_pkts
                0x0000000000427820                eth_em_tx_queue_release
                0x0000000000427860                eth_em_tx_queue_setup
                0x0000000000427cc0                eth_em_rx_queue_release
                0x0000000000427d00                eth_em_rx_queue_setup
                0x0000000000428060                eth_em_rx_queue_count
                0x00000000004280d0                eth_em_rx_descriptor_done
                0x0000000000428110                em_dev_clear_queues
                0x00000000004281e0                eth_em_rx_init
                0x0000000000428a10                eth_em_tx_init
 *fill*         0x0000000000428b4d        0x3 90909090
 .text          0x0000000000428b50     0x14e7 /home/born/DPDK-OVS/DPDK-1.6.0/build/lib/librte_pmd_e1000.a(e1000_82541.o)
                0x0000000000429ff0                e1000_init_function_pointers_82541
                0x000000000042a020                e1000_init_script_state_82541
 *fill*         0x000000000042a037        0x9 90909090
 .text          0x000000000042a040     0x1d05 /home/born/DPDK-OVS/DPDK-1.6.0/build/lib/librte_pmd_e1000.a(e1000_82543.o)
                0x000000000042b700                e1000_init_function_pointers_82543
                0x000000000042b730                e1000_set_tbi_compatibility_82543
                0x000000000042b910                e1000_tbi_sbp_enabled_82543
                0x000000000042bbc0                e1000_tbi_adjust_stats_82543
 *fill*         0x000000000042bd45        0xb 90909090
 .text          0x000000000042bd50     0x1f22 /home/born/DPDK-OVS/DPDK-1.6.0/build/lib/librte_pmd_e1000.a(e1000_82571.o)
                0x000000000042d370                e1000_init_function_pointers_82571
                0x000000000042d3a0                e1000_check_phy_82574
                0x000000000042d420                e1000_get_laa_state_82571
                0x000000000042d6a0                e1000_set_laa_state_82571
 *fill*         0x000000000042dc72        0xe 90909090
 .text          0x000000000042dc80     0x40d6 /home/born/DPDK-OVS/DPDK-1.6.0/build/lib/librte_pmd_e1000.a(e1000_82575.o)
                0x000000000042dc80                e1000_init_nvm_params_82575
                0x0000000000430c00                e1000_init_function_pointers_82575
                0x0000000000430c40                e1000_rx_fifo_flush_82575
                0x0000000000430fc0                e1000_vmdq_set_anti_spoofing_pf
                0x0000000000431020                e1000_vmdq_set_loopback_pf
                0x0000000000431090                e1000_vmdq_set_replication_pf
                0x00000000004310c0                e1000_rxpbs_adjust_82580
                0x00000000004310e0                e1000_read_emi_reg
                0x0000000000431140                e1000_set_eee_i350
                0x00000000004311c0                e1000_set_eee_i354
                0x0000000000431320                e1000_get_eee_status_i354
                0x0000000000431380                e1000_set_i2c_bb
                0x00000000004313b0                e1000_i2c_bus_clear
                0x0000000000431700                e1000_write_i2c_byte_generic
                0x0000000000431800                e1000_read_i2c_byte_generic
 *fill*         0x0000000000431d56        0xa 90909090
 .text          0x0000000000431d60      0xef0 /home/born/DPDK-OVS/DPDK-1.6.0/build/lib/librte_pmd_e1000.a(e1000_i210.o)
                0x0000000000431d60                e1000_read_nvm_srrd_i210
                0x0000000000431f90                e1000_validate_nvm_checksum_i210
                0x0000000000432010                e1000_write_nvm_srwr_i210
                0x00000000004325c0                e1000_acquire_swfw_sync_i210
                0x0000000000432660                e1000_release_swfw_sync_i210
                0x00000000004326c0                e1000_read_invm_version
                0x0000000000432820                e1000_get_flash_presence_i210
                0x0000000000432920                e1000_update_flash_i210
                0x00000000004329a0                e1000_update_nvm_checksum_i210
                0x0000000000432ab0                e1000_init_function_pointers_i210
                0x0000000000432ad0                e1000_read_xmdio_reg
                0x0000000000432b90                e1000_write_xmdio_reg
 .text          0x0000000000432c50      0xeb2 /home/born/DPDK-OVS/DPDK-1.6.0/build/lib/librte_pmd_e1000.a(e1000_api.o)
                0x0000000000432c50                e1000_init_mac_params
                0x0000000000432c70                e1000_init_nvm_params
                0x0000000000432c90                e1000_init_phy_params
                0x0000000000432cb0                e1000_init_mbx_params
                0x0000000000432cd0                e1000_set_mac_type
                0x0000000000433360                e1000_setup_init_funcs
                0x00000000004334f0                e1000_get_bus_info
                0x0000000000433510                e1000_clear_vfta
                0x0000000000433530                e1000_write_vfta
                0x0000000000433550                e1000_update_mc_addr_list
                0x0000000000433570                e1000_force_mac_fc
                0x0000000000433580                e1000_check_for_link
                0x00000000004335a0                e1000_check_mng_mode
                0x00000000004335c0                e1000_mng_write_dhcp_info
                0x00000000004335d0                e1000_reset_hw
                0x00000000004335f0                e1000_init_hw
                0x0000000000433610                e1000_setup_link
                0x0000000000433630                e1000_get_speed_and_duplex
                0x0000000000433650                e1000_setup_led
                0x0000000000433670                e1000_cleanup_led
                0x0000000000433690                e1000_blink_led
                0x00000000004336b0                e1000_id_led_init
                0x00000000004336d0                e1000_led_on
                0x00000000004336f0                e1000_led_off
                0x0000000000433710                e1000_reset_adaptive
                0x0000000000433720                e1000_update_adaptive
                0x0000000000433730                e1000_disable_pcie_master
                0x0000000000433740                e1000_config_collision_dist
                0x0000000000433760                e1000_rar_set
                0x0000000000433780                e1000_validate_mdi_setting
                0x00000000004337a0                e1000_hash_mc_addr
                0x00000000004337b0                e1000_enable_tx_pkt_filtering
                0x00000000004337c0                e1000_mng_host_if_write
                0x00000000004337d0                e1000_mng_write_cmd_header
                0x00000000004337e0                e1000_mng_enable_host_if
                0x00000000004337f0                e1000_check_reset_block
                0x0000000000433810                e1000_read_phy_reg
                0x0000000000433830                e1000_write_phy_reg
                0x0000000000433850                e1000_release_phy
                0x0000000000433870                e1000_acquire_phy
                0x0000000000433890                e1000_cfg_on_link_up
                0x00000000004338b0                e1000_read_kmrn_reg
                0x00000000004338c0                e1000_write_kmrn_reg
                0x00000000004338d0                e1000_get_cable_length
                0x00000000004338f0                e1000_get_phy_info
                0x0000000000433910                e1000_phy_hw_reset
                0x0000000000433930                e1000_phy_commit
                0x0000000000433950                e1000_set_d0_lplu_state
                0x0000000000433970                e1000_set_d3_lplu_state
                0x0000000000433990                e1000_read_mac_addr
                0x00000000004339b0                e1000_read_pba_string
                0x00000000004339c0                e1000_read_pba_length
                0x00000000004339d0                e1000_read_pba_num
                0x00000000004339e0                e1000_validate_nvm_checksum
                0x0000000000433a00                e1000_update_nvm_checksum
                0x0000000000433a20                e1000_reload_nvm
                0x0000000000433a40                e1000_read_nvm
                0x0000000000433a60                e1000_write_nvm
                0x0000000000433a80                e1000_write_8bit_ctrl_reg
                0x0000000000433a90                e1000_power_up_phy
                0x0000000000433ab0                e1000_power_down_phy
                0x0000000000433ad0                e1000_power_up_fiber_serdes_link
                0x0000000000433af0                e1000_shutdown_fiber_serdes_link
 *fill*         0x0000000000433b02        0xe 90909090
 .text          0x0000000000433b10     0x50ca /home/born/DPDK-OVS/DPDK-1.6.0/build/lib/librte_pmd_e1000.a(e1000_ich8lan.o)
                0x0000000000435400                e1000_toggle_lanphypc_pch_lpt
                0x0000000000435920                e1000_read_emi_reg_locked
                0x0000000000435980                e1000_write_emi_reg_locked
                0x00000000004359e0                e1000_set_eee_pchlan
                0x0000000000435b80                e1000_enable_ulp_lpt_lp
                0x0000000000435d60                e1000_disable_ulp_lpt_lp
                0x00000000004360e0                e1000_init_function_pointers_ich8lan
                0x0000000000436140                e1000_configure_k1_ich8lan
                0x0000000000437350                e1000_copy_rx_addrs_to_phy_ich8lan
                0x00000000004374e0                e1000_lv_jumbo_workaround_ich8lan
                0x0000000000437d90                e1000_set_kmrn_lock_loss_workaround_ich8lan
                0x0000000000438090                e1000_gig_downshift_workaround_ich8lan
                0x0000000000438110                e1000_igp3_phy_powerdown_workaround_ich8lan
                0x0000000000438870                e1000_suspend_workarounds_ich8lan
                0x0000000000438ad0                e1000_resume_workarounds_pchlan
 *fill*         0x0000000000438bda        0x6 90909090
 .text          0x0000000000438be0     0x1b8a /home/born/DPDK-OVS/DPDK-1.6.0/build/lib/librte_pmd_e1000.a(e1000_mac.o)
                0x0000000000438be0                e1000_null_ops_generic
                0x0000000000438bf0                e1000_null_mac_generic
                0x0000000000438c00                e1000_null_link_info
                0x0000000000438c10                e1000_null_mng_mode
                0x0000000000438c20                e1000_null_update_mc
                0x0000000000438c30                e1000_null_write_vfta
                0x0000000000438d10                e1000_setup_led_generic
                0x0000000000438db0                e1000_init_mac_ops_generic
                0x0000000000438e80                e1000_null_rar_set
                0x0000000000438e90                e1000_get_bus_info_pci_generic
                0x0000000000438f50                e1000_get_bus_info_pcie_generic
                0x0000000000438ff0                e1000_set_lan_id_multi_port_pci
                0x0000000000439030                e1000_set_lan_id_single_port
                0x0000000000439040                e1000_clear_vfta_generic
                0x0000000000439070                e1000_write_vfta_generic
                0x0000000000439090                e1000_init_rx_addrs_generic
                0x0000000000439120                e1000_check_alt_mac_addr_generic
                0x00000000004392d0                e1000_hash_mc_addr_generic
                0x0000000000439360                e1000_update_mc_addr_list_generic
                0x00000000004394c0                e1000_pcix_mmrbc_workaround_generic
                0x0000000000439550                e1000_clear_hw_cntrs_base_generic
                0x0000000000439640                e1000_set_default_fc_generic
                0x00000000004396d0                e1000_commit_fc_settings_generic
                0x0000000000439720                e1000_poll_fiber_serdes_link_generic
                0x0000000000439780                e1000_setup_fiber_serdes_link_generic
                0x0000000000439810                e1000_set_fc_watermarks_generic
                0x0000000000439850                e1000_setup_link_generic
                0x00000000004398f0                e1000_force_mac_fc_generic
                0x0000000000439960                e1000_config_fc_after_link_up_generic
                0x0000000000439c00                e1000_check_for_serdes_link_generic
                0x0000000000439d60                e1000_check_for_fiber_link_generic
                0x0000000000439df0                e1000_check_for_copper_link_generic
                0x0000000000439e60                e1000_get_speed_and_duplex_copper_generic
                0x0000000000439ea0                e1000_get_speed_and_duplex_fiber_serdes_generic
                0x0000000000439eb0                e1000_put_hw_semaphore_generic
                0x0000000000439ed0                e1000_get_hw_semaphore_generic
                0x0000000000439f70                e1000_get_auto_rd_done_generic
                0x000000000043a080                e1000_valid_led_default_generic
                0x000000000043a0c0                e1000_id_led_init_generic
                0x000000000043a390                e1000_cleanup_led_generic
                0x000000000043a3b0                e1000_blink_led_generic
                0x000000000043a4c0                e1000_led_on_generic
                0x000000000043a500                e1000_led_off_generic
                0x000000000043a540                e1000_set_pcie_no_snoop_generic
                0x000000000043a570                e1000_disable_pcie_master_generic
                0x000000000043a5e0                e1000_reset_adaptive_generic
                0x000000000043a640                e1000_update_adaptive_generic
                0x000000000043a700                e1000_validate_mdi_setting_crossover_generic
                0x000000000043a710                e1000_write_8bit_ctrl_reg_generic
 *fill*         0x000000000043a76a        0x6 90909090
 .text          0x000000000043a770      0x9b7 /home/born/DPDK-OVS/DPDK-1.6.0/build/lib/librte_pmd_e1000.a(e1000_manage.o)
                0x000000000043a770                e1000_calculate_checksum
                0x000000000043a860                e1000_mng_enable_host_if_generic
                0x000000000043a9a0                e1000_check_mng_mode_generic
                0x000000000043a9c0                e1000_enable_tx_pkt_filtering_generic
                0x000000000043aad0                e1000_mng_write_cmd_header_generic
                0x000000000043ab20                e1000_mng_host_if_write_generic
                0x000000000043acf0                e1000_mng_write_dhcp_info_generic
                0x000000000043ad90                e1000_enable_mng_pass_thru
                0x000000000043ae60                e1000_host_interface_command
                0x000000000043af80                e1000_load_firmware
 *fill*         0x000000000043b127        0x9 90909090
 .text          0x000000000043b130      0x90b /home/born/DPDK-OVS/DPDK-1.6.0/build/lib/librte_pmd_e1000.a(e1000_mbx.o)
                0x000000000043b4c0                e1000_write_posted_mbx
                0x000000000043b5a0                e1000_read_posted_mbx
                0x000000000043b780                e1000_read_mbx
                0x000000000043b7b0                e1000_write_mbx
                0x000000000043b7e0                e1000_check_for_msg
                0x000000000043b800                e1000_check_for_ack
                0x000000000043b820                e1000_check_for_rst
                0x000000000043b840                e1000_init_mbx_ops_generic
                0x000000000043b8a0                e1000_init_mbx_params_vf
                0x000000000043b960                e1000_init_mbx_params_pf
 *fill*         0x000000000043ba3b        0x5 90909090
 .text          0x000000000043ba40     0x2370 /home/born/DPDK-OVS/DPDK-1.6.0/build/lib/librte_pmd_e1000.a(e1000_nvm.o)
                0x000000000043ba40                e1000_null_read_nvm
                0x000000000043ba50                e1000_null_nvm_generic
                0x000000000043ba60                e1000_null_led_default
                0x000000000043ba70                e1000_null_write_nvm
                0x000000000043bf80                e1000_init_nvm_ops_generic
                0x000000000043bff0                e1000_poll_eerd_eewr_done
                0x000000000043c060                e1000_acquire_nvm_generic
                0x000000000043c0c0                e1000_stop_nvm
                0x000000000043c170                e1000_release_nvm_generic
                0x000000000043c190                e1000_read_nvm_spi
                0x000000000043c740                e1000_read_nvm_microwire
                0x000000000043cd80                e1000_read_nvm_eerd
                0x000000000043ce10                e1000_write_nvm_spi
                0x000000000043cfa0                e1000_write_nvm_microwire
                0x000000000043d140                e1000_read_pba_string_generic
                0x000000000043d520                e1000_read_pba_length_generic
                0x000000000043d600                e1000_read_pba_num_generic
                0x000000000043d670                e1000_write_pba_raw
                0x000000000043d780                e1000_get_pba_block_size
                0x000000000043d870                e1000_read_pba_raw
                0x000000000043d9c0                e1000_read_mac_addr_generic
                0x000000000043da40                e1000_validate_nvm_checksum_generic
                0x000000000043daa0                e1000_update_nvm_checksum_generic
                0x000000000043db20                e1000_get_fw_version
 .text          0x000000000043ddb0       0x56 /home/born/DPDK-OVS/DPDK-1.6.0/build/lib/librte_pmd_e1000.a(e1000_osdep.o)
                0x000000000043ddb0                e1000_write_pci_cfg
                0x000000000043ddc0                e1000_read_pci_cfg
                0x000000000043ddd0                e1000_pci_set_mwi
                0x000000000043dde0                e1000_pci_clear_mwi
                0x000000000043ddf0                e1000_read_pcie_cap_reg
                0x000000000043de00                e1000_write_pcie_cap_reg
 *fill*         0x000000000043de06        0xa 90909090
 .text          0x000000000043de10     0x3d22 /home/born/DPDK-OVS/DPDK-1.6.0/build/lib/librte_pmd_e1000.a(e1000_phy.o)
                0x000000000043de10                e1000_null_set_page
                0x000000000043de20                e1000_null_read_reg
                0x000000000043de30                e1000_null_phy_generic
                0x000000000043de40                e1000_null_lplu_state
                0x000000000043de50                e1000_null_write_reg
                0x000000000043de60                e1000_read_i2c_byte_null
                0x000000000043de70                e1000_write_i2c_byte_null
                0x000000000043df30                e1000_init_phy_ops_generic
                0x000000000043e020                e1000_check_reset_block_generic
                0x000000000043e040                e1000_get_phy_id
                0x000000000043e130                e1000_phy_reset_dsp_generic
                0x000000000043e180                e1000_read_phy_reg_mdic
                0x000000000043e250                e1000_write_phy_reg_mdic
                0x000000000043e310                e1000_read_phy_reg_i2c
                0x000000000043e390                e1000_write_phy_reg_i2c
                0x000000000043e410                e1000_read_sfp_data_byte
                0x000000000043e480                e1000_write_sfp_data_byte
                0x000000000043e520                e1000_read_phy_reg_m88
                0x000000000043e590                e1000_write_phy_reg_m88
                0x000000000043e600                e1000_set_page_igp
                0x000000000043e620                e1000_read_phy_reg_igp
                0x000000000043e6b0                e1000_read_phy_reg_igp_locked
                0x000000000043e720                e1000_write_phy_reg_igp
                0x000000000043e7b0                e1000_write_phy_reg_igp_locked
                0x000000000043e820                e1000_read_kmrn_reg_generic
                0x000000000043e8b0                e1000_read_kmrn_reg_locked
                0x000000000043e910                e1000_write_kmrn_reg_generic
                0x000000000043e990                e1000_write_kmrn_reg_locked
                0x000000000043e9c0                e1000_copper_link_setup_82577
                0x000000000043eaa0                e1000_copper_link_setup_m88
                0x000000000043ed00                e1000_copper_link_setup_m88_gen2
                0x000000000043ee10                e1000_copper_link_setup_igp
                0x000000000043ef90                e1000_phy_setup_autoneg
                0x000000000043f0e0                e1000_copper_link_autoneg
                0x000000000043f1f0                e1000_phy_force_speed_duplex_setup
                0x000000000043f290                e1000_set_d3_lplu_state_generic
                0x000000000043f400                e1000_check_downshift_generic
                0x000000000043f4c0                e1000_check_polarity_m88
                0x000000000043f4f0                e1000_check_polarity_igp
                0x000000000043f560                e1000_check_polarity_ife
                0x000000000043f5b0                e1000_phy_has_link_generic
                0x000000000043f6f0                e1000_phy_force_speed_duplex_ife
                0x000000000043f7d0                e1000_phy_force_speed_duplex_m88
                0x000000000043fa20                e1000_phy_force_speed_duplex_igp
                0x000000000043fb00                e1000_setup_copper_link_generic
                0x000000000043fb70                e1000_get_cable_length_m88
                0x000000000043fbf0                e1000_get_cable_length_m88_gen2
                0x000000000043fe40                e1000_get_cable_length_igp_2
                0x0000000000440050                e1000_get_phy_info_m88
                0x0000000000440170                e1000_get_phy_info_igp
                0x0000000000440270                e1000_get_phy_info_ife
                0x0000000000440340                e1000_phy_sw_reset_generic
                0x00000000004403b0                e1000_phy_hw_reset_generic
                0x0000000000440460                e1000_get_cfg_done_generic
                0x0000000000440480                e1000_phy_init_script_igp3
                0x00000000004406e0                e1000_get_phy_type_from_id
                0x0000000000440860                e1000_determine_phy_address
                0x0000000000440a10                e1000_enable_phy_wakeup_reg_access_bm
                0x0000000000440ab0                e1000_disable_phy_wakeup_reg_access_bm
                0x0000000000440fe0                e1000_write_phy_reg_bm2
                0x0000000000441080                e1000_read_phy_reg_bm2
                0x0000000000441130                e1000_read_phy_reg_bm
                0x0000000000441230                e1000_write_phy_reg_bm
                0x0000000000441330                e1000_power_up_phy_copper
                0x00000000004413c0                e1000_power_down_phy_copper
                0x0000000000441460                e1000_read_phy_reg_hv
                0x0000000000441470                e1000_read_phy_reg_hv_locked
                0x0000000000441480                e1000_read_phy_reg_page_hv
                0x0000000000441490                e1000_write_phy_reg_hv
                0x00000000004414a0                e1000_write_phy_reg_hv_locked
                0x00000000004414b0                e1000_write_phy_reg_page_hv
                0x00000000004414d0                e1000_link_stall_workaround_hv
                0x0000000000441580                e1000_check_polarity_82577
                0x00000000004415b0                e1000_phy_force_speed_duplex_82577
                0x0000000000441650                e1000_get_phy_info_82577
                0x0000000000441750                e1000_get_cable_length_82577
                0x00000000004417a0                e1000_write_phy_reg_gs40g
                0x0000000000441830                e1000_read_phy_reg_gs40g
                0x00000000004418b0                e1000_is_mphy_ready
                0x0000000000441910                e1000_write_phy_reg_mphy
                0x0000000000441a30                e1000_read_phy_reg_mphy
 *fill*         0x0000000000441b32        0xe 90909090
 .text          0x0000000000441b40      0x717 /home/born/DPDK-OVS/DPDK-1.6.0/build/lib/librte_pmd_e1000.a(e1000_vf.o)
                0x00000000004420c0                e1000_init_function_pointers_vf
                0x0000000000442100                e1000_vfta_set_vf
                0x0000000000442160                e1000_rlpml_set_vf
                0x00000000004421b0                e1000_promisc_set_vf
 *fill*         0x0000000000442257        0x9 90909090
 .text          0x0000000000442260     0x1e58 /home/born/DPDK-OVS/DPDK-1.6.0/build/lib/librte_pmd_e1000.a(e1000_80003es2lan.o)
                0x0000000000444090                e1000_init_function_pointers_80003es2lan
 *fill*         0x00000000004440b8        0x8 90909090
 .text          0x00000000004440c0      0xa68 /home/born/DPDK-OVS/DPDK-1.6.0/build/lib/librte_pmd_e1000.a(e1000_82540.o)
                0x0000000000444b00                e1000_init_function_pointers_82540
 *fill*         0x0000000000444b28        0x8 90909090
 .text          0x0000000000444b30      0x926 /home/born/DPDK-OVS/DPDK-1.6.0/build/lib/librte_pmd_e1000.a(e1000_82542.o)
                0x00000000004451c0                e1000_init_function_pointers_82542
                0x00000000004451f0                e1000_translate_register_82542
 *fill*         0x0000000000445456        0xa 90909090
 .text          0x0000000000445460     0x451d /home/born/DPDK-OVS/DPDK-1.6.0/build/lib/librte_pmd_ixgbe.a(ixgbe_ethdev.o)
                0x0000000000449380                rte_ixgbe_pmd_init
                0x00000000004493a0                rte_ixgbevf_pmd_init
                0x00000000004493c0                ixgbe_vlan_hw_filter_disable
                0x00000000004493e0                ixgbe_vlan_hw_filter_enable
                0x0000000000449430                ixgbe_vlan_hw_strip_disable_all
                0x00000000004494f0                ixgbe_vlan_hw_strip_enable_all
 *fill*         0x000000000044997d        0x3 90909090
 .text          0x0000000000449980     0x1330 /home/born/DPDK-OVS/DPDK-1.6.0/build/lib/librte_pmd_ixgbe.a(ixgbe_fdir.o)
                0x0000000000449e60                ixgbe_fdir_configure
                0x000000000044a0d0                ixgbe_fdir_add_signature_filter
                0x000000000044a1d0                ixgbe_fdir_update_signature_filter
                0x000000000044a2d0                ixgbe_fdir_remove_signature_filter
                0x000000000044a4f0                ixgbe_fdir_set_masks
                0x000000000044a7a0                ixgbe_fdir_add_perfect_filter
                0x000000000044a8b0                ixgbe_fdir_update_perfect_filter
                0x000000000044a9c0                ixgbe_fdir_remove_perfect_filter
                0x000000000044abd0                ixgbe_fdir_info_get
 .text          0x000000000044acb0      0xcec /home/born/DPDK-OVS/DPDK-1.6.0/build/lib/librte_pmd_ixgbe.a(ixgbe_pf.o)
                0x000000000044ad50                ixgbe_pf_host_init
                0x000000000044b0b0                ixgbe_pf_host_configure
                0x000000000044b340                ixgbe_pf_mbx_process
 *fill*         0x000000000044b99c        0x4 90909090
 .text          0x000000000044b9a0     0x6449 /home/born/DPDK-OVS/DPDK-1.6.0/build/lib/librte_pmd_ixgbe.a(ixgbe_common.o)
                0x000000000044b9a0                ixgbe_get_mac_addr_generic
                0x000000000044b9e0                ixgbe_get_bus_info_generic
                0x000000000044ba20                ixgbe_set_lan_id_multi_port_pcie
                0x000000000044ba60                ixgbe_led_on_generic
                0x000000000044ba90                ixgbe_led_off_generic
                0x000000000044bac0                ixgbe_calc_eeprom_checksum_generic
                0x000000000044bbe0                ixgbe_validate_eeprom_checksum_generic
                0x000000000044bc70                ixgbe_update_eeprom_checksum_generic
                0x000000000044bcb0                ixgbe_set_rar_generic
                0x000000000044bdb0                ixgbe_clear_rar_generic
                0x000000000044be30                ixgbe_disable_mc_generic
                0x000000000044be50                ixgbe_enable_rx_dma_generic
                0x000000000044bf20                ixgbe_release_swfw_sync
                0x000000000044bf70                ixgbe_acquire_swfw_sync
                0x000000000044c140                ixgbe_blink_led_start_generic
                0x000000000044c260                ixgbe_blink_led_stop_generic
                0x000000000044c380                ixgbe_clear_hw_cntrs_generic
                0x000000000044cbf0                ixgbe_init_hw_generic
                0x000000000044cc10                ixgbe_init_eeprom_params_generic
                0x000000000044cc90                ixgbe_enable_mc_generic
                0x000000000044ea10                ixgbe_read_eeprom_buffer_bit_bang_generic
                0x000000000044eb30                ixgbe_write_eeprom_buffer_bit_bang_generic
                0x000000000044ee40                ixgbe_read_eeprom_bit_bang_generic
                0x000000000044ef20                ixgbe_write_eeprom_generic
                0x000000000044f000                ixgbe_init_ops_generic
                0x000000000044f250                ixgbe_device_supports_autoneg_fc
                0x000000000044f280                ixgbe_start_hw_generic
                0x000000000044f560                ixgbe_start_hw_gen2
                0x000000000044f640                ixgbe_read_pba_string_generic
                0x000000000044f9f0                ixgbe_read_pba_num_generic
                0x000000000044fa70                ixgbe_write_pba_raw
                0x000000000044fb80                ixgbe_get_pba_block_size
                0x000000000044fc70                ixgbe_read_pba_raw
                0x000000000044fdd0                ixgbe_poll_eerd_eewr_done
                0x000000000044fe40                ixgbe_write_eewr_buffer_generic
                0x000000000044fee0                ixgbe_write_eewr_generic
                0x000000000044ff00                ixgbe_read_eerd_buffer_generic
                0x000000000044ff90                ixgbe_read_eerd_generic
                0x000000000044ffa0                ixgbe_validate_mac_addr
                0x000000000044fff0                ixgbe_init_rx_addrs_generic
                0x0000000000450110                ixgbe_add_uc_addr
                0x0000000000450150                ixgbe_update_uc_addr_list_generic
                0x00000000004502a0                ixgbe_set_mta
                0x0000000000450370                ixgbe_update_mc_addr_list_generic
                0x00000000004504e0                ixgbe_fc_autoneg
                0x00000000004506b0                ixgbe_fc_enable_generic
                0x0000000000450c50                ixgbe_disable_pcie_master
                0x0000000000450cc0                ixgbe_stop_adapter_generic
                0x0000000000450d90                ixgbe_disable_sec_rx_path_generic
                0x0000000000450de0                ixgbe_enable_sec_rx_path_generic
                0x0000000000450e00                ixgbe_get_san_mac_addr_generic
                0x0000000000450ef0                ixgbe_set_san_mac_addr_generic
                0x0000000000450fc0                ixgbe_get_pcie_msix_count_generic
                0x0000000000450fd0                ixgbe_insert_mac_addr_generic
                0x0000000000451120                ixgbe_clear_vmdq_generic
                0x00000000004511d0                ixgbe_set_vmdq_generic
                0x0000000000451220                ixgbe_set_vmdq_san_mac_generic
                0x0000000000451290                ixgbe_init_uta_tables_generic
                0x00000000004512c0                ixgbe_find_vlvf_slot
                0x0000000000451320                ixgbe_set_vlvf_generic
                0x00000000004514c0                ixgbe_set_vfta_generic
                0x0000000000451570                ixgbe_clear_vfta_generic
                0x00000000004515f0                ixgbe_check_mac_link_generic
                0x00000000004516e0                ixgbe_get_wwn_prefix_generic
                0x0000000000451790                ixgbe_get_fcoe_boot_status_generic
                0x0000000000451830                ixgbe_set_mac_anti_spoofing
                0x0000000000451900                ixgbe_set_vlan_anti_spoofing
                0x0000000000451950                ixgbe_get_device_caps_generic
                0x0000000000451970                ixgbe_enable_relaxed_ordering_gen2
                0x0000000000451a30                ixgbe_set_fw_drv_ver_generic
                0x0000000000451bd0                ixgbe_set_rxpba_generic
                0x0000000000451d70                ixgbe_clear_tx_pending
 *fill*         0x0000000000451de9        0x7 90909090
 .text          0x0000000000451df0     0x2d1a /home/born/DPDK-OVS/DPDK-1.6.0/build/lib/librte_pmd_ixgbe.a(ixgbe_82599.o)
                0x0000000000451df0                ixgbe_get_supported_physical_layer_82599
                0x0000000000452040                ixgbe_enable_rx_dma_82599
                0x0000000000452080                ixgbe_write_analog_reg8_82599
                0x00000000004520b0                ixgbe_read_analog_reg8_82599
                0x0000000000452100                ixgbe_enable_tx_laser_multispeed_fiber
                0x0000000000452120                ixgbe_disable_tx_laser_multispeed_fiber
                0x0000000000452140                ixgbe_identify_phy_82599
                0x0000000000452210                ixgbe_get_link_capabilities_82599
                0x00000000004523c0                ixgbe_get_media_type_82599
                0x0000000000452480                ixgbe_flap_tx_laser_multispeed_fiber
                0x00000000004524c0                ixgbe_start_hw_82599
                0x0000000000452590                ixgbe_reinit_fdir_tables_82599
                0x0000000000452840                ixgbe_init_fdir_signature_82599
                0x0000000000452970                ixgbe_init_fdir_perfect_82599
                0x0000000000452aa0                ixgbe_atr_compute_sig_hash_82599
                0x0000000000452b70                ixgbe_fdir_add_signature_filter_82599
                0x0000000000452bf0                ixgbe_atr_compute_perfect_hash_82599
                0x0000000000452d20                ixgbe_fdir_set_input_mask_82599
                0x0000000000452f50                ixgbe_fdir_write_perfect_filter_82599
                0x0000000000453120                ixgbe_fdir_erase_perfect_filter_82599
                0x0000000000453290                ixgbe_fdir_add_perfect_filter_82599
                0x0000000000453380                ixgbe_verify_lesm_fw_enabled_82599
                0x0000000000453420                ixgbe_init_mac_link_ops_82599
                0x00000000004534f0                ixgbe_init_ops_82599
                0x0000000000453760                ixgbe_init_phy_ops_82599
                0x0000000000453820                ixgbe_reset_pipeline_82599
                0x00000000004539b0                ixgbe_reset_hw_82599
                0x0000000000453d70                ixgbe_setup_mac_link_82599
                0x0000000000454000                ixgbe_setup_mac_link_smartspeed
                0x0000000000454500                ixgbe_setup_mac_link_multispeed_fiber
                0x0000000000454880                ixgbe_start_mac_link_82599
                0x00000000004549c0                ixgbe_setup_sfp_modules_82599
 *fill*         0x0000000000454b0a        0x6 90909090
 .text          0x0000000000454b10     0x21ce /home/born/DPDK-OVS/DPDK-1.6.0/build/lib/librte_pmd_ixgbe.a(ixgbe_phy.o)
                0x0000000000454b10                ixgbe_setup_phy_link_speed_generic
                0x0000000000454b70                ixgbe_get_phy_firmware_version_generic
                0x0000000000454b90                ixgbe_read_i2c_eeprom_generic
                0x0000000000454bb0                ixgbe_write_i2c_eeprom_generic
                0x0000000000454bd0                ixgbe_tn_check_overtemp
                0x0000000000454c20                ixgbe_write_phy_reg_generic
                0x0000000000454d30                ixgbe_read_phy_reg_generic
                0x0000000000455080                ixgbe_i2c_bus_clear
                0x00000000004552d0                ixgbe_write_i2c_byte_generic
                0x00000000004553f0                ixgbe_read_i2c_byte_generic
                0x00000000004556a0                ixgbe_init_phy_ops_generic
                0x0000000000455780                ixgbe_validate_phy_addr
                0x00000000004557c0                ixgbe_get_phy_id
                0x0000000000455840                ixgbe_get_phy_type_from_id
                0x0000000000455880                ixgbe_identify_phy_generic
                0x0000000000455940                ixgbe_reset_phy_generic
                0x0000000000455a20                ixgbe_get_copper_link_capabilities_generic
                0x0000000000455a80                ixgbe_setup_phy_link_generic
                0x0000000000455e30                ixgbe_check_phy_link_tnx
                0x0000000000456080                ixgbe_setup_phy_link_tnx
                0x0000000000456430                ixgbe_get_phy_firmware_version_tnx
                0x0000000000456450                ixgbe_identify_sfp_module_generic
                0x0000000000456920                ixgbe_identify_module_generic
                0x0000000000456950                ixgbe_get_sfp_init_sequence_offsets
                0x0000000000456b00                ixgbe_reset_phy_nl
 *fill*         0x0000000000456cde        0x2 90909090
 .text          0x0000000000456ce0      0xc2a /home/born/DPDK-OVS/DPDK-1.6.0/build/lib/librte_pmd_ixgbe.a(ixgbe_api.o)
                0x0000000000456ce0                ixgbe_set_mac_type
                0x0000000000456ea0                ixgbe_init_shared_code
                0x0000000000456f20                ixgbe_init_hw
                0x0000000000456f40                ixgbe_reset_hw
                0x0000000000456f60                ixgbe_start_hw
                0x0000000000456f80                ixgbe_enable_relaxed_ordering
                0x0000000000456fa0                ixgbe_clear_hw_cntrs
                0x0000000000456fc0                ixgbe_get_media_type
                0x0000000000456fe0                ixgbe_get_mac_addr
                0x0000000000457000                ixgbe_get_san_mac_addr
                0x0000000000457020                ixgbe_set_san_mac_addr
                0x0000000000457040                ixgbe_get_device_caps
                0x0000000000457060                ixgbe_get_wwn_prefix
                0x0000000000457080                ixgbe_get_fcoe_boot_status
                0x00000000004570a0                ixgbe_get_bus_info
                0x00000000004570c0                ixgbe_get_num_of_tx_queues
                0x00000000004570d0                ixgbe_get_num_of_rx_queues
                0x00000000004570e0                ixgbe_stop_adapter
                0x0000000000457100                ixgbe_read_pba_string
                0x0000000000457110                ixgbe_read_pba_num
                0x0000000000457120                ixgbe_identify_phy
                0x0000000000457160                ixgbe_reset_phy
                0x00000000004571b0                ixgbe_get_phy_firmware_version
                0x00000000004571d0                ixgbe_read_phy_reg
                0x0000000000457240                ixgbe_write_phy_reg
                0x00000000004572c0                ixgbe_setup_phy_link
                0x00000000004572e0                ixgbe_check_phy_link
                0x0000000000457300                ixgbe_setup_phy_link_speed
                0x0000000000457320                ixgbe_check_link
                0x0000000000457340                ixgbe_disable_tx_laser
                0x0000000000457360                ixgbe_enable_tx_laser
                0x0000000000457380                ixgbe_flap_tx_laser
                0x00000000004573a0                ixgbe_setup_link
                0x00000000004573c0                ixgbe_get_link_capabilities
                0x00000000004573e0                ixgbe_led_on
                0x0000000000457400                ixgbe_led_off
                0x0000000000457420                ixgbe_blink_led_start
                0x0000000000457440                ixgbe_blink_led_stop
                0x0000000000457460                ixgbe_init_eeprom_params
                0x0000000000457480                ixgbe_write_eeprom
                0x00000000004574a0                ixgbe_write_eeprom_buffer
                0x00000000004574c0                ixgbe_read_eeprom
                0x00000000004574e0                ixgbe_read_eeprom_buffer
                0x0000000000457500                ixgbe_validate_eeprom_checksum
                0x0000000000457520                ixgbe_update_eeprom_checksum
                0x0000000000457540                ixgbe_insert_mac_addr
                0x0000000000457560                ixgbe_set_rar
                0x0000000000457580                ixgbe_clear_rar
                0x00000000004575a0                ixgbe_set_vmdq
                0x00000000004575c0                ixgbe_set_vmdq_san_mac
                0x00000000004575e0                ixgbe_clear_vmdq
                0x0000000000457600                ixgbe_init_rx_addrs
                0x0000000000457620                ixgbe_get_num_rx_addrs
                0x0000000000457630                ixgbe_update_uc_addr_list
                0x0000000000457650                ixgbe_update_mc_addr_list
                0x0000000000457670                ixgbe_enable_mc
                0x0000000000457690                ixgbe_disable_mc
                0x00000000004576b0                ixgbe_clear_vfta
                0x00000000004576d0                ixgbe_set_vfta
                0x00000000004576f0                ixgbe_set_vlvf
                0x0000000000457710                ixgbe_fc_enable
                0x0000000000457730                ixgbe_set_fw_drv_ver
                0x0000000000457760                ixgbe_read_analog_reg8
                0x0000000000457780                ixgbe_write_analog_reg8
                0x00000000004577a0                ixgbe_init_uta_tables
                0x00000000004577c0                ixgbe_read_i2c_byte
                0x00000000004577e0                ixgbe_write_i2c_byte
                0x0000000000457810                ixgbe_write_i2c_eeprom
                0x0000000000457830                ixgbe_read_i2c_eeprom
                0x0000000000457850                ixgbe_get_supported_physical_layer
                0x0000000000457870                ixgbe_enable_rx_dma
                0x0000000000457890                ixgbe_disable_sec_rx_path
                0x00000000004578b0                ixgbe_enable_sec_rx_path
                0x00000000004578d0                ixgbe_acquire_swfw_semaphore
                0x00000000004578f0                ixgbe_release_swfw_semaphore
 *fill*         0x000000000045790a        0x6 90909090
 .text          0x0000000000457910      0x8d2 /home/born/DPDK-OVS/DPDK-1.6.0/build/lib/librte_pmd_ixgbe.a(ixgbe_vf.o)
                0x0000000000457910                ixgbe_start_hw_vf
                0x0000000000457920                ixgbe_init_hw_vf
                0x0000000000457960                ixgbe_set_vfta_vf
                0x00000000004579d0                ixgbe_get_mac_addr_vf
                0x0000000000457a10                ixgbe_setup_mac_link_vf
                0x0000000000457a20                ixgbe_check_mac_link_vf
                0x0000000000457ae0                ixgbe_update_mc_addr_list_vf
                0x0000000000457c00                ixgbe_stop_adapter_vf
                0x0000000000457ca0                ixgbe_reset_hw_vf
                0x0000000000457d90                ixgbevf_set_uc_addr_vf
                0x0000000000457e20                ixgbe_set_rar_vf
                0x0000000000457ec0                ixgbe_init_ops_vf
                0x0000000000457fd0                ixgbe_get_num_of_tx_queues_vf
                0x0000000000457fe0                ixgbe_get_num_of_rx_queues_vf
                0x0000000000457ff0                ixgbevf_rlpml_set_vf
                0x0000000000458040                ixgbevf_negotiate_api_version
                0x00000000004580c0                ixgbevf_get_queues
 *fill*         0x00000000004581e2        0xe 90909090
 .text          0x00000000004581f0     0x24bf /home/born/DPDK-OVS/DPDK-1.6.0/build/lib/librte_pmd_ixgbe.a(ixgbe_dcb.o)
                0x00000000004581f0                ixgbe_dcb_calculate_tc_credits
                0x0000000000458480                ixgbe_dcb_calculate_tc_credits_cee
                0x00000000004591d0                ixgbe_dcb_unpack_pfc_cee
                0x0000000000459280                ixgbe_dcb_unpack_refill_cee
                0x00000000004592e0                ixgbe_dcb_unpack_max_cee
                0x0000000000459330                ixgbe_dcb_unpack_bwgid_cee
                0x0000000000459380                ixgbe_dcb_unpack_tsa_cee
                0x00000000004593d0                ixgbe_dcb_get_tc_from_up
                0x0000000000459430                ixgbe_dcb_unpack_map_cee
                0x00000000004594d0                ixgbe_dcb_check_config_cee
                0x0000000000459fd0                ixgbe_dcb_get_tc_stats
                0x000000000045a010                ixgbe_dcb_get_pfc_stats
                0x000000000045a050                ixgbe_dcb_config_rx_arbiter_cee
                0x000000000045a170                ixgbe_dcb_config_tx_desc_arbiter_cee
                0x000000000045a240                ixgbe_dcb_config_tx_data_arbiter_cee
                0x000000000045a330                ixgbe_dcb_config_pfc_cee
                0x000000000045a3e0                ixgbe_dcb_config_tc_stats
                0x000000000045a410                ixgbe_dcb_config_pfc
                0x000000000045a450                ixgbe_dcb_hw_config_cee
                0x000000000045a5c0                ixgbe_dcb_hw_config
 *fill*         0x000000000045a6af        0x1 90909090
 .text          0x000000000045a6b0      0xf2a /home/born/DPDK-OVS/DPDK-1.6.0/build/lib/librte_pmd_ixgbe.a(ixgbe_dcb_82599.o)
                0x000000000045a6b0                ixgbe_dcb_get_tc_stats_82599
                0x000000000045a770                ixgbe_dcb_get_pfc_stats_82599
                0x000000000045a7d0                ixgbe_dcb_config_rx_arbiter_82599
                0x000000000045a9f0                ixgbe_dcb_config_tx_desc_arbiter_82599
                0x000000000045ac70                ixgbe_dcb_config_tx_data_arbiter_82599
                0x000000000045af60                ixgbe_dcb_config_pfc_82599
                0x000000000045b280                ixgbe_dcb_config_tc_stats_82599
                0x000000000045b430                ixgbe_dcb_config_82599
                0x000000000045b540                ixgbe_dcb_hw_config_82599
 *fill*         0x000000000045b5da        0x6 90909090
 .text          0x000000000045b5e0      0xc19 /home/born/DPDK-OVS/DPDK-1.6.0/build/lib/librte_pmd_ixgbe.a(ixgbe_dcb_82598.o)
                0x000000000045b5e0                ixgbe_dcb_get_tc_stats_82598
                0x000000000045b660                ixgbe_dcb_get_pfc_stats_82598
                0x000000000045b6c0                ixgbe_dcb_config_rx_arbiter_82598
                0x000000000045b840                ixgbe_dcb_config_tx_desc_arbiter_82598
                0x000000000045bae0                ixgbe_dcb_config_tx_data_arbiter_82598
                0x000000000045bd80                ixgbe_dcb_config_pfc_82598
                0x000000000045c090                ixgbe_dcb_config_tc_stats_82598
                0x000000000045c170                ixgbe_dcb_hw_config_82598
 *fill*         0x000000000045c1f9        0x7 90909090
 .text          0x000000000045c200      0x8f3 /home/born/DPDK-OVS/DPDK-1.6.0/build/lib/librte_pmd_ixgbe.a(ixgbe_mbx.o)
                0x000000000045c510                ixgbe_write_posted_mbx
                0x000000000045c5d0                ixgbe_read_posted_mbx
                0x000000000045c880                ixgbe_read_mbx
                0x000000000045c8b0                ixgbe_write_mbx
                0x000000000045c8e0                ixgbe_check_for_msg
                0x000000000045c900                ixgbe_check_for_ack
                0x000000000045c920                ixgbe_check_for_rst
                0x000000000045c940                ixgbe_init_mbx_ops_generic
                0x000000000045c960                ixgbe_init_mbx_params_vf
                0x000000000045ca20                ixgbe_init_mbx_params_pf
 *fill*         0x000000000045caf3        0xd 90909090
 .text          0x000000000045cb00     0x906c /home/born/DPDK-OVS/DPDK-1.6.0/build/lib/librte_pmd_ixgbe.a(ixgbe_rxtx.o)
                0x000000000045cdb0                ixgbe_recv_pkts
                0x000000000045e170                ixgbe_recv_pkts_bulk_alloc
                0x000000000045e300                ixgbe_xmit_pkts
                0x000000000045f730                ixgbe_recv_scattered_pkts
                0x00000000004627d0                ixgbe_xmit_pkts_simple
                0x0000000000462890                ixgbe_dev_tx_queue_release
                0x00000000004628d0                ixgbe_dev_tx_queue_setup
                0x0000000000462e10                ixgbe_dev_rx_queue_release
                0x0000000000462e40                ixgbe_dev_rx_queue_setup
                0x00000000004631a0                ixgbe_dev_rx_queue_count
                0x0000000000463210                ixgbe_dev_rx_descriptor_done
                0x0000000000463250                ixgbe_dev_clear_queues
                0x0000000000463300                ixgbe_configure_dcb
                0x0000000000463e40                ixgbe_dev_rx_init
                0x0000000000464980                ixgbe_dev_tx_init
                0x0000000000464c30                ixgbe_dev_rxtx_start
                0x0000000000465300                ixgbevf_dev_rx_init
                0x00000000004657b0                ixgbevf_dev_tx_init
                0x0000000000465820                ixgbevf_dev_rxtx_start
 *fill*         0x0000000000465b6c        0x4 90909090
 .text          0x0000000000465b70     0x1738 /home/born/DPDK-OVS/DPDK-1.6.0/build/lib/librte_pmd_ixgbe.a(ixgbe_82598.o)
                0x0000000000465c30                ixgbe_set_vmdq_82598
                0x0000000000465ce0                ixgbe_set_vfta_82598
                0x0000000000465df0                ixgbe_get_supported_physical_layer_82598
                0x0000000000465fc0                ixgbe_enable_relaxed_ordering_82598
                0x0000000000466040                ixgbe_set_lan_id_multi_port_pcie_82598
                0x00000000004660c0                ixgbe_read_i2c_eeprom_82598
                0x00000000004661a0                ixgbe_write_analog_reg8_82598
                0x00000000004661d0                ixgbe_read_analog_reg8_82598
                0x0000000000466720                ixgbe_fc_enable_82598
                0x0000000000466ee0                ixgbe_init_phy_ops_82598
                0x0000000000467050                ixgbe_set_pcie_completion_timeout
                0x0000000000467080                ixgbe_start_hw_82598
                0x0000000000467120                ixgbe_init_ops_82598
 *fill*         0x00000000004672a8        0x8 90909090
 .text          0x00000000004672b0      0xee0 /home/born/DPDK-OVS/DPDK-1.6.0/build/lib/librte_pmd_ixgbe.a(ixgbe_x540.o)
                0x00000000004672b0                ixgbe_get_media_type_X540
                0x00000000004672c0                ixgbe_setup_mac_link_X540
                0x00000000004672d0                ixgbe_get_supported_physical_layer_X540
                0x0000000000467320                ixgbe_blink_led_start_X540
                0x0000000000467390                ixgbe_blink_led_stop_X540
                0x00000000004673e0                ixgbe_write_eewr_X540
                0x0000000000467460                ixgbe_validate_eeprom_checksum_X540
                0x0000000000467520                ixgbe_calc_eeprom_checksum_X540
                0x0000000000467660                ixgbe_read_eerd_X540
                0x00000000004676e0                ixgbe_write_eewr_buffer_X540
                0x0000000000467770                ixgbe_read_eerd_buffer_X540
                0x0000000000467800                ixgbe_start_hw_X540
                0x0000000000467820                ixgbe_reset_hw_X540
                0x0000000000467a10                ixgbe_init_eeprom_params_X540
                0x0000000000467a60                ixgbe_acquire_swfw_sync_X540
                0x0000000000467c60                ixgbe_release_swfw_sync_X540
                0x0000000000467d40                ixgbe_update_eeprom_checksum_X540
                0x0000000000467eb0                ixgbe_init_ops_X540
                0x0000000000468180                ixgbe_get_link_capabilities_X540
 .text          0x0000000000468190     0x18d7 /home/born/DPDK-OVS/DPDK-1.6.0/build/lib/librte_pmd_virtio.a(virtio_ethdev.o)
                0x00000000004693c0                virtio_dev_queue_setup
                0x0000000000469a50                rte_virtio_pmd_init
 *fill*         0x0000000000469a67        0x9 90909090
 .text          0x0000000000469a70       0x78 /home/born/DPDK-OVS/DPDK-1.6.0/build/lib/librte_pmd_virtio.a(virtqueue.o)
                0x0000000000469a70                virtqueue_disable_intr
                0x0000000000469a80                virtqueue_detatch_unused
 *fill*         0x0000000000469ae8        0x8 90909090
 .text          0x0000000000469af0      0x174 /home/born/DPDK-OVS/DPDK-1.6.0/build/lib/librte_pmd_virtio.a(virtio_pci.o)
                0x0000000000469af0                vtpci_read_dev_config
                0x0000000000469b60                vtpci_write_dev_config
                0x0000000000469be0                vtpci_negotiate_features
                0x0000000000469bf0                vtpci_get_status
                0x0000000000469c00                vtpci_set_status
                0x0000000000469c40                vtpci_reinit_complete
                0x0000000000469c50                vtpci_reset
 *fill*         0x0000000000469c64        0xc 90909090
 .text          0x0000000000469c70     0x2d7c /home/born/DPDK-OVS/DPDK-1.6.0/build/lib/librte_pmd_virtio.a(virtio_rxtx.o)
                0x000000000046a960                virtio_dev_rxtx_start
                0x000000000046a9b0                virtio_dev_rx_queue_setup
                0x000000000046aa20                virtio_dev_tx_queue_setup
                0x000000000046aa70                virtio_recv_pkts
                0x000000000046bf30                virtio_xmit_pkts
 *fill*         0x000000000046c9ec        0x4 90909090
 .text          0x000000000046c9f0      0xc47 /home/born/DPDK-OVS/DPDK-1.6.0/build/lib/librte_pmd_vmxnet3.a(vmxnet3_ethdev.o)
                0x000000000046d620                rte_vmxnet3_pmd_init
 *fill*         0x000000000046d637        0x9 90909090
 .text          0x000000000046d640     0x379b /home/born/DPDK-OVS/DPDK-1.6.0/build/lib/librte_pmd_vmxnet3.a(vmxnet3_rxtx.o)
                0x000000000046dde0                vmxnet3_dev_tx_queue_release
                0x000000000046de70                vmxnet3_dev_rx_queue_release
                0x000000000046df10                vmxnet3_dev_clear_queues
                0x000000000046dfc0                vmxnet3_xmit_pkts
                0x000000000046e290                vmxnet3_recv_pkts
                0x00000000004701d0                vmxnet3_dev_tx_queue_setup
                0x0000000000470420                vmxnet3_dev_rx_queue_setup
                0x0000000000470710                vmxnet3_dev_rxtx_init
                0x0000000000470c70                vmxnet3_rss_configure
                0x0000000000470db0                vmxnet3_vlan_configure
 *fill*         0x0000000000470ddb        0x5 90909090
 .text          0x0000000000470de0     0x27db /home/born/DPDK-OVS/DPDK-1.6.0/build/lib/libethdev.a(rte_ethdev.o)
                0x0000000000471020                rte_eth_dev_allocate
                0x0000000000471260                rte_eth_driver_register
                0x0000000000471270                rte_eth_dev_socket_id
                0x00000000004712a0                rte_eth_dev_count
                0x00000000004712b0                rte_eth_dev_configure
                0x0000000000471710                rte_eth_dev_stop
                0x0000000000471760                rte_eth_dev_close
                0x00000000004717b0                rte_eth_rx_queue_setup
                0x00000000004718e0                rte_eth_tx_queue_setup
                0x00000000004719e0                rte_eth_promiscuous_enable
                0x0000000000471a20                rte_eth_promiscuous_disable
                0x0000000000471a70                rte_eth_promiscuous_get
                0x0000000000471aa0                rte_eth_allmulticast_enable
                0x0000000000471ae0                rte_eth_allmulticast_disable
                0x0000000000471b30                rte_eth_allmulticast_get
                0x0000000000471b70                rte_eth_link_get
                0x0000000000471c00                rte_eth_link_get_nowait
                0x0000000000471c90                rte_eth_stats_get
                0x0000000000471dc0                rte_eth_stats_reset
                0x0000000000471e00                rte_eth_dev_set_tx_queue_stats_mapping
                0x0000000000471e50                rte_eth_dev_set_rx_queue_stats_mapping
                0x0000000000471ea0                rte_eth_dev_info_get
                0x0000000000471f10                rte_eth_dev_start
                0x0000000000472100                rte_eth_macaddr_get
                0x0000000000472140                rte_eth_dev_vlan_filter
                0x00000000004721a0                rte_eth_dev_set_vlan_strip_on_queue
                0x0000000000472200                rte_eth_dev_set_vlan_ether_type
                0x0000000000472250                rte_eth_dev_set_vlan_offload
                0x0000000000472380                rte_eth_dev_get_vlan_offload
                0x00000000004723d0                rte_eth_dev_fdir_add_signature_filter
                0x0000000000472460                rte_eth_dev_fdir_update_signature_filter
                0x00000000004724f0                rte_eth_dev_fdir_remove_signature_filter
                0x0000000000472580                rte_eth_dev_fdir_get_infos
                0x00000000004725e0                rte_eth_dev_fdir_add_perfect_filter
                0x0000000000472690                rte_eth_dev_fdir_update_perfect_filter
                0x0000000000472740                rte_eth_dev_fdir_remove_perfect_filter
                0x00000000004727e0                rte_eth_dev_fdir_set_masks
                0x0000000000472850                rte_eth_dev_flow_ctrl_set
                0x00000000004728b0                rte_eth_dev_priority_flow_ctrl_set
                0x0000000000472910                rte_eth_dev_rss_reta_update
                0x00000000004729c0                rte_eth_dev_rss_reta_query
                0x0000000000472a20                rte_eth_led_on
                0x0000000000472a70                rte_eth_led_off
                0x0000000000472ac0                rte_eth_dev_mac_addr_add
                0x0000000000472cb0                rte_eth_dev_mac_addr_remove
                0x0000000000472db0                rte_eth_dev_set_vf_rxmode
                0x0000000000472e50                rte_eth_dev_uc_hash_table_set
                0x0000000000473060                rte_eth_dev_uc_all_hash_table_set
                0x00000000004730b0                rte_eth_dev_set_vf_rx
                0x0000000000473140                rte_eth_dev_set_vf_tx
                0x00000000004731d0                rte_eth_dev_set_vf_vlan_filter
                0x0000000000473240                rte_eth_mirror_rule_set
                0x00000000004732d0                rte_eth_mirror_rule_reset
                0x0000000000473330                rte_eth_dev_callback_register
                0x0000000000473410                rte_eth_dev_callback_unregister
                0x0000000000473500                _rte_eth_dev_callback_process
 *fill*         0x00000000004735bb        0x1 90909090
 .text          0x00000000004735bc      0xb5c /home/born/DPDK-OVS/DPDK-1.6.0/build/lib/librte_malloc.a(rte_malloc.o)
                0x0000000000473914                rte_free
                0x0000000000473961                rte_malloc_socket
                0x00000000004739f8                rte_malloc
                0x0000000000473a25                rte_zmalloc_socket
                0x0000000000473a77                rte_zmalloc
                0x0000000000473aa4                rte_calloc_socket
                0x0000000000473adf                rte_calloc
                0x0000000000473b16                rte_realloc
                0x0000000000473f4c                rte_malloc_validate
                0x0000000000473fc5                rte_malloc_get_socket_stats
                0x000000000047401f                rte_malloc_dump_stats
                0x0000000000474105                rte_malloc_set_limit
 .text          0x0000000000474118      0x733 /home/born/DPDK-OVS/DPDK-1.6.0/build/lib/librte_malloc.a(malloc_elem.o)
                0x00000000004741a9                malloc_elem_init
                0x0000000000474219                malloc_elem_mkend
                0x00000000004742ed                malloc_elem_can_hold
                0x00000000004743b0                malloc_elem_alloc
                0x00000000004745aa                malloc_elem_free
                0x00000000004746c3                malloc_elem_resize
 *fill*         0x000000000047484b        0x1 90909090
 .text          0x000000000047484c      0x8e9 /home/born/DPDK-OVS/DPDK-1.6.0/build/lib/librte_malloc.a(malloc_heap.o)
                0x0000000000474f30                malloc_heap_alloc
                0x0000000000475042                malloc_heap_get_stats
 *fill*         0x0000000000475135        0xb 90909090
 .text          0x0000000000475140      0xf98 /home/born/DPDK-OVS/DPDK-1.6.0/build/lib/librte_mempool.a(rte_mempool.o)
                0x0000000000475330                rte_mempool_obj_iter
                0x0000000000475460                rte_mempool_calc_obj_size
                0x00000000004755c0                rte_mempool_xmem_size
                0x0000000000475600                rte_mempool_xmem_usage
                0x00000000004756a0                rte_mempool_xmem_create
                0x0000000000475b90                rte_mempool_create
                0x0000000000475bf0                rte_mempool_count
                0x0000000000475c40                rte_mempool_audit
                0x0000000000475cb0                rte_mempool_dump
                0x0000000000475f80                rte_mempool_list_dump
                0x0000000000476010                rte_mempool_lookup
 *fill*         0x00000000004760d8        0x8 90909090
 .text          0x00000000004760e0      0x6c8 /home/born/DPDK-OVS/DPDK-1.6.0/build/lib/librte_ring.a(rte_ring.o)
                0x0000000000476210                rte_ring_create
                0x0000000000476500                rte_ring_set_water_mark
                0x0000000000476520                rte_ring_dump
                0x0000000000476650                rte_ring_list_dump
                0x00000000004766e0                rte_ring_lookup
 *fill*         0x00000000004767a8        0x8 90909090
 .text          0x00000000004767b0     0x1fb7 /home/born/DPDK-OVS/DPDK-1.6.0/build/lib/librte_eal.a(eal.o)
                0x0000000000476a30                rte_eal_get_configuration
                0x0000000000476a40                eal_parse_sysfs_value
                0x0000000000476bf0                rte_set_application_usage_hook
                0x0000000000476c00                rte_eal_init
                0x0000000000478750                rte_eal_lcore_role
                0x0000000000478760                rte_eal_process_type
 *fill*         0x0000000000478767        0x9 90909090
 .text          0x0000000000478770      0xd81 /home/born/DPDK-OVS/DPDK-1.6.0/build/lib/librte_eal.a(eal_hugepage_info.o)
                0x0000000000478e90                eal_hugepage_info_init
 *fill*         0x00000000004794f1        0xf 90909090
 .text          0x0000000000479500     0x23d2 /home/born/DPDK-OVS/DPDK-1.6.0/build/lib/librte_eal.a(eal_memory.o)
                0x000000000047a030                rte_eal_memory_init
 *fill*         0x000000000047b8d2        0xe 90909090
 .text          0x000000000047b8e0      0x423 /home/born/DPDK-OVS/DPDK-1.6.0/build/lib/librte_eal.a(eal_thread.o)
                0x000000000047b9d0                rte_eal_remote_launch
                0x000000000047bab0                eal_thread_init_master
                0x000000000047baf0                eal_thread_loop
 *fill*         0x000000000047bd03        0xd 90909090
 .text          0x000000000047bd10      0x2bf /home/born/DPDK-OVS/DPDK-1.6.0/build/lib/librte_eal.a(eal_log.o)
                0x000000000047bec0                rte_eal_log_init
                0x000000000047bf60                rte_eal_log_early_init
 *fill*         0x000000000047bfcf        0x1 90909090
 .text          0x000000000047bfd0     0x1e11 /home/born/DPDK-OVS/DPDK-1.6.0/build/lib/librte_eal.a(eal_pci.o)
                0x000000000047db70                rte_eal_pci_probe_one_driver
                0x000000000047dd50                rte_eal_pci_init
 *fill*         0x000000000047dde1        0xf 90909090
 .text          0x000000000047ddf0      0x17b /home/born/DPDK-OVS/DPDK-1.6.0/build/lib/librte_eal.a(eal_debug.o)
                0x000000000047ddf0                rte_dump_stack
                0x000000000047de80                rte_dump_registers
                0x000000000047de90                rte_exit
 *fill*         0x000000000047df6b        0x5 90909090
 .text          0x000000000047df70      0x5a6 /home/born/DPDK-OVS/DPDK-1.6.0/build/lib/librte_eal.a(eal_lcore.o)
                0x000000000047e3b0                rte_eal_cpu_init
 *fill*         0x000000000047e516        0xa 90909090
 .text          0x000000000047e520      0x413 /home/born/DPDK-OVS/DPDK-1.6.0/build/lib/librte_eal.a(eal_timer.o)
                0x000000000047e520                rte_get_tsc_hz
                0x000000000047e530                rte_delay_us
                0x000000000047e680                rte_eal_timer_init
 *fill*         0x000000000047e933        0xd 90909090
 .text          0x000000000047e940      0xade /home/born/DPDK-OVS/DPDK-1.6.0/build/lib/librte_eal.a(eal_interrupts.o)
                0x000000000047eda0                rte_intr_callback_register
                0x000000000047efe0                rte_intr_callback_unregister
                0x000000000047f1e0                rte_intr_enable
                0x000000000047f2c0                rte_intr_disable
                0x000000000047f3a0                rte_eal_intr_init
 *fill*         0x000000000047f41e        0x2 90909090
 .text          0x000000000047f420      0x5b6 /home/born/DPDK-OVS/DPDK-1.6.0/build/lib/librte_eal.a(eal_alarm.o)
                0x000000000047f570                rte_eal_alarm_init
                0x000000000047f5e0                rte_eal_alarm_set
                0x000000000047f7f0                rte_eal_alarm_cancel
 *fill*         0x000000000047f9d6        0xa 90909090
 .text          0x000000000047f9e0     0x1b22 /home/born/DPDK-OVS/DPDK-1.6.0/build/lib/librte_eal.a(eal_ivshmem.o)
                0x00000000004807b0                rte_eal_ivshmem_obj_init
                0x0000000000480af0                rte_eal_ivshmem_init
 *fill*         0x0000000000481502        0xe 90909090
 .text          0x0000000000481510      0xc54 /home/born/DPDK-OVS/DPDK-1.6.0/build/lib/librte_eal.a(eal_common_memzone.o)
                0x0000000000481c00                rte_memzone_reserve_aligned
                0x0000000000481cd0                rte_memzone_reserve
                0x0000000000481ce0                rte_memzone_reserve_bounded
                0x0000000000481db0                rte_memzone_lookup
                0x0000000000481e80                rte_memzone_dump
                0x0000000000481f50                rte_eal_memzone_init
 *fill*         0x0000000000482164        0xc 90909090
 .text          0x0000000000482170      0xd90 /home/born/DPDK-OVS/DPDK-1.6.0/build/lib/librte_eal.a(eal_common_log.o)
                0x0000000000482170                rte_log_add_in_history
                0x0000000000482720                rte_log_set_history
                0x0000000000482730                rte_openlog_stream
                0x0000000000482750                rte_set_log_level
                0x0000000000482760                rte_set_log_type
                0x0000000000482790                rte_log_cur_msg_loglevel
                0x00000000004827c0                rte_log_cur_msg_logtype
                0x00000000004827f0                rte_log_dump_history
                0x0000000000482d80                rte_vlog
                0x0000000000482e20                rte_eal_common_log_init
 .text          0x0000000000482f00      0x24a /home/born/DPDK-OVS/DPDK-1.6.0/build/lib/librte_eal.a(eal_common_launch.o)
                0x0000000000482f00                rte_eal_wait_lcore
                0x0000000000482f50                rte_eal_mp_remote_launch
                0x00000000004830c0                rte_eal_get_lcore_state
                0x00000000004830e0                rte_eal_mp_wait_lcore
 *fill*         0x000000000048314a        0x6 90909090
 .text          0x0000000000483150      0x4ee /home/born/DPDK-OVS/DPDK-1.6.0/build/lib/librte_eal.a(eal_common_pci.o)
                0x0000000000483370                rte_eal_pci_probe
                0x00000000004834a0                rte_eal_pci_dump
                0x00000000004835e0                rte_eal_pci_register
                0x0000000000483600                rte_eal_pci_unregister
                0x0000000000483630                rte_eal_pci_set_blacklist
 *fill*         0x000000000048363e        0x2 90909090
 .text          0x0000000000483640      0x118 /home/born/DPDK-OVS/DPDK-1.6.0/build/lib/librte_eal.a(eal_common_memory.o)
                0x0000000000483640                rte_eal_get_physmem_layout
                0x0000000000483660                rte_eal_get_physmem_size
                0x00000000004836a0                rte_dump_physmem_layout
                0x0000000000483720                rte_memory_get_nchannel
                0x0000000000483740                rte_memory_get_nrank
 *fill*         0x0000000000483758        0x8 90909090
 .text          0x0000000000483760      0x290 /home/born/DPDK-OVS/DPDK-1.6.0/build/lib/librte_eal.a(eal_common_tailqs.o)
                0x0000000000483760                rte_eal_tailq_lookup
                0x00000000004837f0                rte_eal_tailq_lookup_by_idx
                0x0000000000483860                rte_eal_tailq_reserve
                0x0000000000483870                rte_eal_tailq_reserve_by_idx
                0x00000000004838e0                rte_dump_tailq
                0x0000000000483990                rte_eal_tailqs_init
 .text          0x00000000004839f0      0x1dc /home/born/DPDK-OVS/DPDK-1.6.0/build/lib/librte_eal.a(eal_common_errno.o)
                0x0000000000483b20                rte_strerror
 *fill*         0x0000000000483bcc        0x4 90909090
 .text          0x0000000000483bd0      0x95d /home/born/DPDK-OVS/DPDK-1.6.0/build/lib/librte_eal.a(eal_common_whitelist.o)
                0x0000000000483d00                eal_dev_whitelist_add_entry
                0x0000000000483d70                eal_dev_whitelist_exists
                0x0000000000483d80                eal_dev_whitelist_parse
                0x0000000000484460                eal_dev_is_whitelisted
                0x0000000000484510                eal_dev_whitelist_clear
 *fill*         0x000000000048452d        0x3 90909090
 .text          0x0000000000484530      0x1d8 /home/born/DPDK-OVS/DPDK-1.6.0/build/lib/librte_eal.a(eal_common_nonpci_devs.o)
                0x0000000000484660                rte_eal_non_pci_ethdev_init
 *fill*         0x0000000000484708        0x8 90909090
 .text          0x0000000000484710      0x5d6 /home/born/DPDK-OVS/DPDK-1.6.0/build/lib/librte_cmdline.a(cmdline.o)
                0x0000000000484860                cmdline_write_char
                0x00000000004848a0                cmdline_set_prompt
                0x00000000004848e0                cmdline_new
                0x00000000004849c0                cmdline_free
                0x0000000000484a20                cmdline_printf
                0x0000000000484b40                cmdline_in
                0x0000000000484c80                cmdline_quit
                0x0000000000484ca0                cmdline_interact
 *fill*         0x0000000000484ce6        0xa 90909090
 .text          0x0000000000484cf0      0xbe2 /home/born/DPDK-OVS/DPDK-1.6.0/build/lib/librte_cmdline.a(cmdline_parse.o)
                0x0000000000484f90                cmdline_isendoftoken
                0x0000000000484fe0                cmdline_parse
                0x0000000000485260                cmdline_complete
 *fill*         0x00000000004858d2        0xe 90909090
 .text          0x00000000004858e0      0x535 /home/born/DPDK-OVS/DPDK-1.6.0/build/lib/librte_cmdline.a(cmdline_parse_etheraddr.o)
                0x0000000000485a10                cmdline_get_help_etheraddr
                0x0000000000485a30                cmdline_parse_etheraddr
 *fill*         0x0000000000485e15        0xb 90909090
 .text          0x0000000000485e20      0x7f8 /home/born/DPDK-OVS/DPDK-1.6.0/build/lib/librte_cmdline.a(cmdline_parse_ipaddr.o)
                0x0000000000485f50                cmdline_get_help_ipaddr
                0x0000000000486440                cmdline_parse_ipaddr
 *fill*         0x0000000000486618        0x8 90909090
 .text          0x0000000000486620      0x698 /home/born/DPDK-OVS/DPDK-1.6.0/build/lib/librte_cmdline.a(cmdline_parse_num.o)
                0x0000000000486750                cmdline_get_help_num
                0x00000000004867b0                cmdline_parse_num
 *fill*         0x0000000000486cb8        0x8 90909090
 .text          0x0000000000486cc0      0x4ed /home/born/DPDK-OVS/DPDK-1.6.0/build/lib/librte_cmdline.a(cmdline_parse_string.o)
                0x0000000000486df0                cmdline_get_help_string
                0x0000000000486ec0                cmdline_complete_get_nb_string
                0x0000000000486f40                cmdline_complete_get_elt_string
                0x0000000000487030                cmdline_parse_string
 *fill*         0x00000000004871ad        0x3 90909090
 .text          0x00000000004871b0     0x1292 /home/born/DPDK-OVS/DPDK-1.6.0/build/lib/librte_cmdline.a(cmdline_rdline.o)
                0x0000000000487370                rdline_init
                0x0000000000487420                rdline_newline
                0x0000000000487500                rdline_stop
                0x0000000000487510                rdline_quit
                0x0000000000487520                rdline_restart
                0x0000000000487530                rdline_reset
                0x0000000000487590                rdline_get_buffer
                0x0000000000487620                rdline_redisplay
                0x00000000004876f0                rdline_get_history_item
                0x0000000000487810                rdline_add_history
                0x0000000000487910                rdline_char_in
                0x0000000000488420                rdline_clear_history
 *fill*         0x0000000000488442        0xe 90909090
 .text          0x0000000000488450      0x153 /home/born/DPDK-OVS/DPDK-1.6.0/build/lib/librte_cmdline.a(cmdline_vt100.o)
                0x0000000000488450                vt100_init
                0x0000000000488460                vt100_parser
 *fill*         0x00000000004885a3        0xd 90909090
 .text          0x00000000004885b0      0x1e2 /home/born/DPDK-OVS/DPDK-1.6.0/build/lib/librte_cmdline.a(cmdline_socket.o)
                0x00000000004885b0                cmdline_file_new
                0x0000000000488620                cmdline_stdin_new
                0x0000000000488760                cmdline_stdin_exit
 *fill*         0x0000000000488792        0xe 90909090
 .text          0x00000000004887a0      0x8dc /home/born/DPDK-OVS/DPDK-1.6.0/build/lib/librte_cmdline.a(cmdline_cirbuf.o)
                0x00000000004887a0                cirbuf_init
                0x00000000004887d0                cirbuf_add_buf_head
                0x00000000004888b0                cirbuf_add_buf_tail
                0x0000000000488990                cirbuf_add_head_safe
                0x00000000004889f0                cirbuf_add_head
                0x0000000000488a40                cirbuf_add_tail_safe
                0x0000000000488a90                cirbuf_add_tail
                0x0000000000488ad0                cirbuf_align_left
                0x0000000000488c40                cirbuf_align_right
                0x0000000000488da0                cirbuf_del_buf_head
                0x0000000000488e00                cirbuf_del_buf_tail
                0x0000000000488e40                cirbuf_del_head_safe
                0x0000000000488e80                cirbuf_del_head
                0x0000000000488ea0                cirbuf_del_tail_safe
                0x0000000000488ee0                cirbuf_del_tail
                0x0000000000488f00                cirbuf_get_buf_head
                0x0000000000488fa0                cirbuf_get_buf_tail
                0x0000000000489060                cirbuf_get_head
                0x0000000000489070                cirbuf_get_tail
 *fill*         0x000000000048907c        0x4 90909090
 .text          0x0000000000489080     0x25d5 /home/born/DPDK-OVS/DPDK-1.6.0/build/lib/librte_pmd_ring.a(rte_eth_ring.o)
                0x0000000000489f50                rte_eth_from_rings
                0x000000000048b160                rte_eth_ring_pair_create
                0x000000000048b170                rte_eth_ring_pair_attach
                0x000000000048b180                rte_pmd_ring_init
 *fill*         0x000000000048b655        0xb 90909090
 .text          0x000000000048b660       0x92 /usr/lib/x86_64-linux-gnu/libc_nonshared.a(elf-init.oS)
                0x000000000048b660                __libc_csu_init
                0x000000000048b6f0                __libc_csu_fini
 *fill*         0x000000000048b6f2        0xe 90909090
 .text          0x000000000048b700       0x36 /usr/lib/gcc/x86_64-linux-gnu/4.6/crtend.o
 *fill*         0x000000000048b736        0x2 90909090
 .text          0x000000000048b738        0x0 /usr/lib/gcc/x86_64-linux-gnu/4.6/../../../x86_64-linux-gnu/crtn.o
 *(.gnu.warning)

.fini           0x000000000048b738        0xe
 *(.fini)
 .fini          0x000000000048b738        0x4 /usr/lib/gcc/x86_64-linux-gnu/4.6/../../../x86_64-linux-gnu/crti.o
                0x000000000048b738                _fini
 .fini          0x000000000048b73c        0x5 /usr/lib/gcc/x86_64-linux-gnu/4.6/crtbegin.o
 .fini          0x000000000048b741        0x5 /usr/lib/gcc/x86_64-linux-gnu/4.6/../../../x86_64-linux-gnu/crtn.o
                0x000000000048b746                PROVIDE (__etext, .)
                0x000000000048b746                PROVIDE (_etext, .)
                0x000000000048b746                PROVIDE (etext, .)

.rodata         0x000000000048b760     0xcce0
 *(.rodata .rodata.* .gnu.linkonce.r.*)
 .rodata.cst4   0x000000000048b760        0x4 /usr/lib/gcc/x86_64-linux-gnu/4.6/../../../x86_64-linux-gnu/crt1.o
                0x000000000048b760                _IO_stdin_used
 .rodata.str1.1
                0x000000000048b764      0x3ad testpmd.o
                                        0x3b5 (size before relaxing)
 *fill*         0x000000000048bb11        0x7 00
 .rodata.str1.8
                0x000000000048bb18      0xac3 testpmd.o
 *fill*         0x000000000048c5db        0x5 00
 .rodata        0x000000000048c5e0       0x67 testpmd.o
                0x000000000048c5e0                vlan_tags
 *fill*         0x000000000048c647        0x9 00
 .rodata.cst16  0x000000000048c650       0x20 testpmd.o
 .rodata.str1.8
                0x000000000048c670     0x16d1 parameters.o
 .rodata.str1.1
                0x000000000048dd41      0x418 parameters.o
                                        0x444 (size before relaxing)
 *fill*         0x000000000048e159        0x7 00
 .rodata.str1.8
                0x000000000048e160     0x366b cmdline.o
 .rodata.str1.1
                0x00000000004917cb      0x6fa cmdline.o
                                        0x86c (size before relaxing)
 *fill*         0x0000000000491ec5        0xb 00
 .rodata        0x0000000000491ed0       0x20 cmdline.o
 .rodata.str1.8
                0x0000000000491ef0     0x12f6 config.o
                                       0x1316 (size before relaxing)
 .rodata.str1.1
                0x00000000004931e6      0x248 config.o
                                        0x268 (size before relaxing)
 *fill*         0x000000000049342e        0x2 00
 .rodata.cst16  0x0000000000493430       0x20 config.o
 .rodata.str1.1
                0x0000000000000000      0x248 iofwd.o
                                          0x3 (size before relaxing)
 .rodata.str1.1
                0x0000000000493450        0x4 macfwd.o
 .rodata.str1.1
                0x0000000000000000        0xa macfwd-retry.o
 *fill*         0x0000000000493454        0x4 00
 .rodata.str1.8
                0x0000000000493458       0x72 rxonly.o
                                         0x92 (size before relaxing)
 .rodata.str1.1
                0x00000000004934ca       0xd2 rxonly.o
 .rodata.str1.1
                0x000000000049359c        0x7 txonly.o
                                          0xd (size before relaxing)
 *fill*         0x00000000004935a3        0x5 00
 .rodata.str1.8
                0x00000000004935a8       0x7e txonly.o
 .rodata        0x0000000000493626        0xa txonly.o
 .rodata.str1.8
                0x0000000000493630       0x40 csumonly.o
 .rodata.str1.1
                0x0000000000493670       0x40 csumonly.o
 .rodata.str1.8
                0x00000000004936b0      0x159 mempool_anon.o
 .rodata.str1.1
                0x0000000000493809       0x13 mempool_anon.o
                                         0x19 (size before relaxing)
 *fill*         0x000000000049381c        0x4 00
 .rodata        0x0000000000493820       0x14 mempool_anon.o
 .rodata        0x0000000000493834       0x24 /home/born/DPDK-OVS/DPDK-1.6.0/build/lib/librte_pmd_e1000.a(igb_ethdev.o)
 .rodata.str1.1
                0x0000000000493858       0x26 /home/born/DPDK-OVS/DPDK-1.6.0/build/lib/librte_pmd_e1000.a(igb_ethdev.o)
 *fill*         0x000000000049387e        0x2 00
 .rodata.cst16  0x0000000000493880       0x10 /home/born/DPDK-OVS/DPDK-1.6.0/build/lib/librte_pmd_e1000.a(igb_ethdev.o)
 .rodata.str1.8
                0x0000000000493890       0xe6 /home/born/DPDK-OVS/DPDK-1.6.0/build/lib/librte_pmd_e1000.a(igb_rxtx.o)
 .rodata.str1.1
                0x0000000000493976       0x3a /home/born/DPDK-OVS/DPDK-1.6.0/build/lib/librte_pmd_e1000.a(igb_rxtx.o)
                                         0x56 (size before relaxing)
 *fill*         0x00000000004939b0       0x10 00
 .rodata        0x00000000004939c0       0x70 /home/born/DPDK-OVS/DPDK-1.6.0/build/lib/librte_pmd_e1000.a(igb_rxtx.o)
 .rodata.str1.1
                0x0000000000493a30       0x22 /home/born/DPDK-OVS/DPDK-1.6.0/build/lib/librte_pmd_e1000.a(igb_pf.o)
                                         0x28 (size before relaxing)
 *fill*         0x0000000000493a52        0x6 00
 .rodata.str1.8
                0x0000000000493a58       0x54 /home/born/DPDK-OVS/DPDK-1.6.0/build/lib/librte_pmd_e1000.a(igb_pf.o)
 *fill*         0x0000000000493aac        0x4 00
 .rodata        0x0000000000493ab0       0x11 /home/born/DPDK-OVS/DPDK-1.6.0/build/lib/librte_pmd_e1000.a(igb_pf.o)
 .rodata.str1.1
                0x0000000000493ac1        0xb /home/born/DPDK-OVS/DPDK-1.6.0/build/lib/librte_pmd_e1000.a(em_ethdev.o)
                                         0x11 (size before relaxing)
 *fill*         0x0000000000493acc       0x14 00
 .rodata        0x0000000000493ae0       0x74 /home/born/DPDK-OVS/DPDK-1.6.0/build/lib/librte_pmd_e1000.a(em_ethdev.o)
 *fill*         0x0000000000493b54        0x4 00
 .rodata.str1.8
                0x0000000000493b58      0x18c /home/born/DPDK-OVS/DPDK-1.6.0/build/lib/librte_pmd_e1000.a(em_rxtx.o)
 .rodata.str1.1
                0x0000000000000000       0x56 /home/born/DPDK-OVS/DPDK-1.6.0/build/lib/librte_pmd_e1000.a(em_rxtx.o)
 *fill*         0x0000000000493ce4       0x1c 00
 .rodata        0x0000000000493d00       0x70 /home/born/DPDK-OVS/DPDK-1.6.0/build/lib/librte_pmd_e1000.a(em_rxtx.o)
 *fill*         0x0000000000493d70       0x10 00
 .rodata        0x0000000000493d80      0x100 /home/born/DPDK-OVS/DPDK-1.6.0/build/lib/librte_pmd_e1000.a(e1000_82541.o)
 .rodata        0x0000000000493e80       0x3c /home/born/DPDK-OVS/DPDK-1.6.0/build/lib/librte_pmd_e1000.a(e1000_82571.o)
 *fill*         0x0000000000493ebc        0x4 00
 .rodata        0x0000000000493ec0       0x16 /home/born/DPDK-OVS/DPDK-1.6.0/build/lib/librte_pmd_e1000.a(e1000_82575.o)
 *fill*         0x0000000000493ed6        0x2 00
 .rodata        0x0000000000493ed8       0x80 /home/born/DPDK-OVS/DPDK-1.6.0/build/lib/librte_pmd_e1000.a(e1000_i210.o)
 .rodata        0x0000000000493f58       0x88 /home/born/DPDK-OVS/DPDK-1.6.0/build/lib/librte_pmd_e1000.a(e1000_api.o)
 .rodata.str1.8
                0x0000000000493fe0       0xb7 /home/born/DPDK-OVS/DPDK-1.6.0/build/lib/librte_pmd_e1000.a(e1000_ich8lan.o)
 .rodata.str1.1
                0x0000000000000000        0x6 /home/born/DPDK-OVS/DPDK-1.6.0/build/lib/librte_pmd_e1000.a(e1000_ich8lan.o)
 *fill*         0x0000000000494097        0x9 00
 .rodata        0x00000000004940a0       0x6e /home/born/DPDK-OVS/DPDK-1.6.0/build/lib/librte_pmd_e1000.a(e1000_ich8lan.o)
 *fill*         0x000000000049410e        0x2 00
 .rodata.cst16  0x0000000000494110       0x10 /home/born/DPDK-OVS/DPDK-1.6.0/build/lib/librte_pmd_e1000.a(e1000_ich8lan.o)
 .rodata        0x0000000000494120       0x1c /home/born/DPDK-OVS/DPDK-1.6.0/build/lib/librte_pmd_e1000.a(e1000_nvm.o)
 *fill*         0x000000000049413c        0x4 00
 .rodata        0x0000000000494140      0x102 /home/born/DPDK-OVS/DPDK-1.6.0/build/lib/librte_pmd_e1000.a(e1000_phy.o)
 *fill*         0x0000000000494242        0xe 00
 .rodata        0x0000000000494250       0x16 /home/born/DPDK-OVS/DPDK-1.6.0/build/lib/librte_pmd_e1000.a(e1000_80003es2lan.o)
 *fill*         0x0000000000494266        0x2 00
 .rodata.str1.8
                0x0000000000494268       0xf6 /home/born/DPDK-OVS/DPDK-1.6.0/build/lib/librte_pmd_ixgbe.a(ixgbe_ethdev.o)
 .rodata.str1.1
                0x000000000049435e       0x2c /home/born/DPDK-OVS/DPDK-1.6.0/build/lib/librte_pmd_ixgbe.a(ixgbe_ethdev.o)
 .rodata.str1.1
                0x0000000000000000       0x28 /home/born/DPDK-OVS/DPDK-1.6.0/build/lib/librte_pmd_ixgbe.a(ixgbe_pf.o)
 .rodata.str1.8
                0x0000000000000000       0x54 /home/born/DPDK-OVS/DPDK-1.6.0/build/lib/librte_pmd_ixgbe.a(ixgbe_pf.o)
 *fill*         0x000000000049438a        0x6 00
 .rodata        0x0000000000494390       0x13 /home/born/DPDK-OVS/DPDK-1.6.0/build/lib/librte_pmd_ixgbe.a(ixgbe_pf.o)
 .rodata.str1.1
                0x00000000004943a3        0xd /home/born/DPDK-OVS/DPDK-1.6.0/build/lib/librte_pmd_ixgbe.a(ixgbe_common.o)
                                         0x13 (size before relaxing)
 .rodata        0x00000000004943b0       0x11 /home/born/DPDK-OVS/DPDK-1.6.0/build/lib/librte_pmd_ixgbe.a(ixgbe_common.o)
 *fill*         0x00000000004943c1        0xf 00
 .rodata.cst16  0x00000000004943d0      0x100 /home/born/DPDK-OVS/DPDK-1.6.0/build/lib/librte_pmd_ixgbe.a(ixgbe_common.o)
 .rodata        0x00000000004944d0       0x18 /home/born/DPDK-OVS/DPDK-1.6.0/build/lib/librte_pmd_ixgbe.a(ixgbe_api.o)
 .rodata.str1.1
                0x0000000000000000       0x13 /home/born/DPDK-OVS/DPDK-1.6.0/build/lib/librte_pmd_ixgbe.a(ixgbe_vf.o)
 *fill*         0x00000000004944e8        0x8 00
 .rodata        0x00000000004944f0       0x11 /home/born/DPDK-OVS/DPDK-1.6.0/build/lib/librte_pmd_ixgbe.a(ixgbe_vf.o)
 .rodata.str1.1
                0x0000000000000000       0x13 /home/born/DPDK-OVS/DPDK-1.6.0/build/lib/librte_pmd_ixgbe.a(ixgbe_dcb_82599.o)
 *fill*         0x0000000000494501        0xf 00
 .rodata        0x0000000000494510       0x17 /home/born/DPDK-OVS/DPDK-1.6.0/build/lib/librte_pmd_ixgbe.a(ixgbe_dcb_82599.o)
 *fill*         0x0000000000494527        0x1 00
 .rodata.str1.8
                0x0000000000494528      0x19e /home/born/DPDK-OVS/DPDK-1.6.0/build/lib/librte_pmd_ixgbe.a(ixgbe_rxtx.o)
                                        0x27e (size before relaxing)
 .rodata.str1.1
                0x0000000000000000       0x56 /home/born/DPDK-OVS/DPDK-1.6.0/build/lib/librte_pmd_ixgbe.a(ixgbe_rxtx.o)
 *fill*         0x00000000004946c6       0x1a 00
 .rodata        0x00000000004946e0       0x90 /home/born/DPDK-OVS/DPDK-1.6.0/build/lib/librte_pmd_ixgbe.a(ixgbe_rxtx.o)
 .rodata        0x0000000000494770       0xbc /home/born/DPDK-OVS/DPDK-1.6.0/build/lib/librte_pmd_ixgbe.a(ixgbe_82598.o)
 .rodata.str1.1
                0x000000000049482c       0x63 /home/born/DPDK-OVS/DPDK-1.6.0/build/lib/librte_pmd_virtio.a(virtio_ethdev.o)
 .rodata.str1.1
                0x000000000049488f        0xe /home/born/DPDK-OVS/DPDK-1.6.0/build/lib/librte_pmd_virtio.a(virtio_rxtx.o)
 *fill*         0x000000000049489d        0x3 00
 .rodata.str1.8
                0x00000000004948a0       0x53 /home/born/DPDK-OVS/DPDK-1.6.0/build/lib/librte_pmd_virtio.a(virtio_rxtx.o)
 .rodata.str1.1
                0x00000000004948f3       0x3b /home/born/DPDK-OVS/DPDK-1.6.0/build/lib/librte_pmd_vmxnet3.a(vmxnet3_ethdev.o)
 .rodata.str1.1
                0x000000000049492e       0x53 /home/born/DPDK-OVS/DPDK-1.6.0/build/lib/librte_pmd_vmxnet3.a(vmxnet3_rxtx.o)
                                         0x65 (size before relaxing)
 *fill*         0x0000000000494981        0x7 00
 .rodata.str1.8
                0x0000000000494988       0x2c /home/born/DPDK-OVS/DPDK-1.6.0/build/lib/librte_pmd_vmxnet3.a(vmxnet3_rxtx.o)
 *fill*         0x00000000004949b4        0xc 00
 .rodata        0x00000000004949c0       0x20 /home/born/DPDK-OVS/DPDK-1.6.0/build/lib/librte_pmd_vmxnet3.a(vmxnet3_rxtx.o)
 .rodata.cst16  0x00000000004949e0       0x10 /home/born/DPDK-OVS/DPDK-1.6.0/build/lib/librte_pmd_vmxnet3.a(vmxnet3_rxtx.o)
 .rodata.str1.1
                0x00000000004949f0       0x61 /home/born/DPDK-OVS/DPDK-1.6.0/build/lib/libethdev.a(rte_ethdev.o)
                                         0x67 (size before relaxing)
 *fill*         0x0000000000494a51        0x7 00
 .rodata.str1.8
                0x0000000000494a58       0x6b /home/born/DPDK-OVS/DPDK-1.6.0/build/lib/libethdev.a(rte_ethdev.o)
 *fill*         0x0000000000494ac3        0xd 00
 .rodata        0x0000000000494ad0       0x31 /home/born/DPDK-OVS/DPDK-1.6.0/build/lib/libethdev.a(rte_ethdev.o)
 *fill*         0x0000000000494b01        0x7 00
 .rodata        0x0000000000494b08       0xf6 /home/born/DPDK-OVS/DPDK-1.6.0/build/lib/librte_malloc.a(rte_malloc.o)
 *fill*         0x0000000000494bfe        0x2 00
 .rodata        0x0000000000494c00       0x46 /home/born/DPDK-OVS/DPDK-1.6.0/build/lib/librte_malloc.a(malloc_elem.o)
 *fill*         0x0000000000494c46        0x2 00
 .rodata        0x0000000000494c48       0x1f /home/born/DPDK-OVS/DPDK-1.6.0/build/lib/librte_malloc.a(malloc_heap.o)
 .rodata.str1.1
                0x0000000000494c67      0x1b8 /home/born/DPDK-OVS/DPDK-1.6.0/build/lib/librte_mempool.a(rte_mempool.o)
                                        0x1c1 (size before relaxing)
 *fill*         0x0000000000494e1f        0x1 00
 .rodata.str1.8
                0x0000000000494e20       0x40 /home/born/DPDK-OVS/DPDK-1.6.0/build/lib/librte_mempool.a(rte_mempool.o)
 .rodata        0x0000000000494e60       0x14 /home/born/DPDK-OVS/DPDK-1.6.0/build/lib/librte_mempool.a(rte_mempool.o)
 *fill*         0x0000000000494e74        0x4 00
 .rodata.cst8   0x0000000000494e78        0x8 /home/born/DPDK-OVS/DPDK-1.6.0/build/lib/librte_mempool.a(rte_mempool.o)
 .rodata.cst4   0x0000000000494e80        0x4 /home/born/DPDK-OVS/DPDK-1.6.0/build/lib/librte_mempool.a(rte_mempool.o)
 *fill*         0x0000000000494e84        0x4 00
 .rodata.str1.8
                0x0000000000494e88       0x5a /home/born/DPDK-OVS/DPDK-1.6.0/build/lib/librte_ring.a(rte_ring.o)
 .rodata.str1.1
                0x0000000000494ee2       0x8d /home/born/DPDK-OVS/DPDK-1.6.0/build/lib/librte_ring.a(rte_ring.o)
                                         0xc1 (size before relaxing)
 *fill*         0x0000000000494f6f        0x1 00
 .rodata.str1.8
                0x0000000000494f70      0xc0a /home/born/DPDK-OVS/DPDK-1.6.0/build/lib/librte_eal.a(eal.o)
 .rodata.str1.1
                0x0000000000495b7a      0x2c1 /home/born/DPDK-OVS/DPDK-1.6.0/build/lib/librte_eal.a(eal.o)
                                        0x2ce (size before relaxing)
 *fill*         0x0000000000495e3b        0x5 00
 .rodata        0x0000000000495e40       0x76 /home/born/DPDK-OVS/DPDK-1.6.0/build/lib/librte_eal.a(eal.o)
 *fill*         0x0000000000495eb6        0xa 00
 .rodata.cst16  0x0000000000495ec0       0x10 /home/born/DPDK-OVS/DPDK-1.6.0/build/lib/librte_eal.a(eal.o)
 .rodata.str1.1
                0x0000000000495ed0       0x50 /home/born/DPDK-OVS/DPDK-1.6.0/build/lib/librte_eal.a(eal_hugepage_info.o)
                                         0x58 (size before relaxing)
 .rodata.str1.8
                0x0000000000495f20      0x1ac /home/born/DPDK-OVS/DPDK-1.6.0/build/lib/librte_eal.a(eal_hugepage_info.o)
 *fill*         0x00000000004960cc        0x4 00
 .rodata        0x00000000004960d0       0x74 /home/born/DPDK-OVS/DPDK-1.6.0/build/lib/librte_eal.a(eal_hugepage_info.o)
 .rodata.str1.1
                0x0000000000496144      0x11c /home/born/DPDK-OVS/DPDK-1.6.0/build/lib/librte_eal.a(eal_memory.o)
                                        0x13f (size before relaxing)
 .rodata.str1.8
                0x0000000000496260      0x687 /home/born/DPDK-OVS/DPDK-1.6.0/build/lib/librte_eal.a(eal_memory.o)
 *fill*         0x00000000004968e7        0x9 00
 .rodata        0x00000000004968f0       0x88 /home/born/DPDK-OVS/DPDK-1.6.0/build/lib/librte_eal.a(eal_memory.o)
 .rodata.str1.1
                0x0000000000496978       0x69 /home/born/DPDK-OVS/DPDK-1.6.0/build/lib/librte_eal.a(eal_thread.o)
                                         0x6f (size before relaxing)
 *fill*         0x00000000004969e1        0x7 00
 .rodata.str1.8
                0x00000000004969e8       0x98 /home/born/DPDK-OVS/DPDK-1.6.0/build/lib/librte_eal.a(eal_thread.o)
 .rodata        0x0000000000496a80       0x50 /home/born/DPDK-OVS/DPDK-1.6.0/build/lib/librte_eal.a(eal_thread.o)
 .rodata.str1.1
                0x0000000000496ad0        0x3 /home/born/DPDK-OVS/DPDK-1.6.0/build/lib/librte_eal.a(eal_log.o)
                                          0x6 (size before relaxing)
 *fill*         0x0000000000496ad3        0x5 00
 .rodata.str1.8
                0x0000000000496ad8       0x22 /home/born/DPDK-OVS/DPDK-1.6.0/build/lib/librte_eal.a(eal_log.o)
 .rodata.str1.1
                0x0000000000496afa      0x144 /home/born/DPDK-OVS/DPDK-1.6.0/build/lib/librte_eal.a(eal_pci.o)
                                        0x14f (size before relaxing)
 *fill*         0x0000000000496c3e        0x2 00
 .rodata.str1.8
                0x0000000000496c40      0x3d0 /home/born/DPDK-OVS/DPDK-1.6.0/build/lib/librte_eal.a(eal_pci.o)
                                        0x448 (size before relaxing)
 .rodata        0x0000000000497010       0xe9 /home/born/DPDK-OVS/DPDK-1.6.0/build/lib/librte_eal.a(eal_pci.o)
 .rodata.str1.1
                0x00000000004970f9       0x1a /home/born/DPDK-OVS/DPDK-1.6.0/build/lib/librte_eal.a(eal_debug.o)
 *fill*         0x0000000000497113        0x5 00
 .rodata.str1.8
                0x0000000000497118       0x2d /home/born/DPDK-OVS/DPDK-1.6.0/build/lib/librte_eal.a(eal_debug.o)
 *fill*         0x0000000000497145        0x3 00
 .rodata.str1.8
                0x0000000000497148      0x1f8 /home/born/DPDK-OVS/DPDK-1.6.0/build/lib/librte_eal.a(eal_lcore.o)
 .rodata.str1.1
                0x0000000000497340       0x4c /home/born/DPDK-OVS/DPDK-1.6.0/build/lib/librte_eal.a(eal_lcore.o)
                                         0x52 (size before relaxing)
 *fill*         0x000000000049738c        0x4 00
 .rodata        0x0000000000497390       0x11 /home/born/DPDK-OVS/DPDK-1.6.0/build/lib/librte_eal.a(eal_lcore.o)
 .rodata.str1.1
                0x0000000000000000        0x6 /home/born/DPDK-OVS/DPDK-1.6.0/build/lib/librte_eal.a(eal_timer.o)
 *fill*         0x00000000004973a1        0x7 00
 .rodata.str1.8
                0x00000000004973a8       0xc8 /home/born/DPDK-OVS/DPDK-1.6.0/build/lib/librte_eal.a(eal_timer.o)
 .rodata        0x0000000000497470       0x35 /home/born/DPDK-OVS/DPDK-1.6.0/build/lib/librte_eal.a(eal_timer.o)
 *fill*         0x00000000004974a5        0x3 00
 .rodata.cst8   0x00000000004974a8       0x18 /home/born/DPDK-OVS/DPDK-1.6.0/build/lib/librte_eal.a(eal_timer.o)
 .rodata.str1.8
                0x00000000004974c0      0x1fd /home/born/DPDK-OVS/DPDK-1.6.0/build/lib/librte_eal.a(eal_interrupts.o)
 .rodata.str1.1
                0x00000000004976bd       0x4c /home/born/DPDK-OVS/DPDK-1.6.0/build/lib/librte_eal.a(eal_interrupts.o)
                                         0x54 (size before relaxing)
 *fill*         0x0000000000497709        0x7 00
 .rodata        0x0000000000497710       0x20 /home/born/DPDK-OVS/DPDK-1.6.0/build/lib/librte_eal.a(eal_interrupts.o)
 .rodata.str1.8
                0x0000000000497730      0x44f /home/born/DPDK-OVS/DPDK-1.6.0/build/lib/librte_eal.a(eal_ivshmem.o)
 .rodata.str1.1
                0x0000000000497b7f       0xc8 /home/born/DPDK-OVS/DPDK-1.6.0/build/lib/librte_eal.a(eal_ivshmem.o)
                                        0x10e (size before relaxing)
 *fill*         0x0000000000497c47        0x1 00
 .rodata.str1.8
                0x0000000000497c48      0x148 /home/born/DPDK-OVS/DPDK-1.6.0/build/lib/librte_eal.a(eal_common_memzone.o)
 .rodata.str1.1
                0x0000000000000000        0x3 /home/born/DPDK-OVS/DPDK-1.6.0/build/lib/librte_eal.a(eal_common_memzone.o)
 *fill*         0x0000000000497d90       0x10 00
 .rodata        0x0000000000497da0       0x45 /home/born/DPDK-OVS/DPDK-1.6.0/build/lib/librte_eal.a(eal_common_memzone.o)
 .rodata.str1.1
                0x0000000000497de5        0xc /home/born/DPDK-OVS/DPDK-1.6.0/build/lib/librte_eal.a(eal_common_log.o)
 *fill*         0x0000000000497df1        0x7 00
 .rodata.str1.8
                0x0000000000497df8       0x2e /home/born/DPDK-OVS/DPDK-1.6.0/build/lib/librte_eal.a(eal_common_log.o)
 *fill*         0x0000000000497e26        0xa 00
 .rodata        0x0000000000497e30       0x18 /home/born/DPDK-OVS/DPDK-1.6.0/build/lib/librte_eal.a(eal_common_log.o)
 .rodata.str1.1
                0x0000000000497e48       0x40 /home/born/DPDK-OVS/DPDK-1.6.0/build/lib/librte_eal.a(eal_common_pci.o)
                                         0x4d (size before relaxing)
 .rodata.str1.8
                0x0000000000497e88       0x33 /home/born/DPDK-OVS/DPDK-1.6.0/build/lib/librte_eal.a(eal_common_pci.o)
 *fill*         0x0000000000497ebb        0x5 00
 .rodata.str1.8
                0x0000000000497ec0       0x60 /home/born/DPDK-OVS/DPDK-1.6.0/build/lib/librte_eal.a(eal_common_memory.o)
 .rodata.str1.8
                0x0000000000497f20       0x31 /home/born/DPDK-OVS/DPDK-1.6.0/build/lib/librte_eal.a(eal_common_tailqs.o)
                                         0x59 (size before relaxing)
 .rodata.str1.1
                0x0000000000497f51       0x61 /home/born/DPDK-OVS/DPDK-1.6.0/build/lib/librte_eal.a(eal_common_tailqs.o)
 *fill*         0x0000000000497fb2        0xe 00
 .rodata        0x0000000000497fc0       0x1c /home/born/DPDK-OVS/DPDK-1.6.0/build/lib/librte_eal.a(eal_common_tailqs.o)
 *fill*         0x0000000000497fdc        0x4 00
 .rodata.str1.8
                0x0000000000497fe0       0x22 /home/born/DPDK-OVS/DPDK-1.6.0/build/lib/librte_eal.a(eal_common_errno.o)
 .rodata.str1.1
                0x0000000000498002       0x43 /home/born/DPDK-OVS/DPDK-1.6.0/build/lib/librte_eal.a(eal_common_errno.o)
 .rodata.str1.1
                0x0000000000498045       0x1a /home/born/DPDK-OVS/DPDK-1.6.0/build/lib/librte_eal.a(eal_common_whitelist.o)
                                         0x3f (size before relaxing)
 *fill*         0x000000000049805f        0x1 00
 .rodata.str1.8
                0x0000000000498060       0xb4 /home/born/DPDK-OVS/DPDK-1.6.0/build/lib/librte_eal.a(eal_common_whitelist.o)
 *fill*         0x0000000000498114        0xc 00
 .rodata        0x0000000000498120       0x18 /home/born/DPDK-OVS/DPDK-1.6.0/build/lib/librte_eal.a(eal_common_whitelist.o)
 .rodata.str1.1
                0x0000000000000000       0x16 /home/born/DPDK-OVS/DPDK-1.6.0/build/lib/librte_eal.a(eal_common_nonpci_devs.o)
 .rodata.str1.1
                0x0000000000498138       0x35 /home/born/DPDK-OVS/DPDK-1.6.0/build/lib/librte_cmdline.a(cmdline.o)
                                         0x38 (size before relaxing)
 .rodata.str1.1
                0x000000000049816d       0x20 /home/born/DPDK-OVS/DPDK-1.6.0/build/lib/librte_cmdline.a(cmdline_parse.o)
                                         0x23 (size before relaxing)
 .rodata.str1.1
                0x000000000049818d       0x11 /home/born/DPDK-OVS/DPDK-1.6.0/build/lib/librte_cmdline.a(cmdline_parse_etheraddr.o)
                                         0x14 (size before relaxing)
 .rodata.str1.1
                0x000000000049819e       0x41 /home/born/DPDK-OVS/DPDK-1.6.0/build/lib/librte_cmdline.a(cmdline_parse_ipaddr.o)
                                         0x56 (size before relaxing)
 *fill*         0x00000000004981df        0x1 00
 .rodata        0x00000000004981e0       0x61 /home/born/DPDK-OVS/DPDK-1.6.0/build/lib/librte_cmdline.a(cmdline_parse_ipaddr.o)
 .rodata.str1.1
                0x0000000000498241       0x1b /home/born/DPDK-OVS/DPDK-1.6.0/build/lib/librte_cmdline.a(cmdline_parse_num.o)
                                         0x35 (size before relaxing)
 .rodata        0x000000000049825c       0x30 /home/born/DPDK-OVS/DPDK-1.6.0/build/lib/librte_cmdline.a(cmdline_parse_num.o)
 .rodata.str1.1
                0x000000000049828c       0x2a /home/born/DPDK-OVS/DPDK-1.6.0/build/lib/librte_cmdline.a(cmdline_parse_string.o)
                                         0x2d (size before relaxing)
 .rodata.str1.1
                0x00000000004982b6       0x21 /home/born/DPDK-OVS/DPDK-1.6.0/build/lib/librte_cmdline.a(cmdline_rdline.o)
 *fill*         0x00000000004982d7        0x1 00
 .rodata        0x00000000004982d8       0x68 /home/born/DPDK-OVS/DPDK-1.6.0/build/lib/librte_cmdline.a(cmdline_rdline.o)
 .rodata.str1.1
                0x0000000000498340       0x37 /home/born/DPDK-OVS/DPDK-1.6.0/build/lib/librte_cmdline.a(cmdline_vt100.o)
                                         0x43 (size before relaxing)
 .rodata.str1.1
                0x0000000000498377       0x30 /home/born/DPDK-OVS/DPDK-1.6.0/build/lib/librte_pmd_ring.a(rte_eth_ring.o)
 *fill*         0x00000000004983a7        0x1 00
 .rodata.str1.8
                0x00000000004983a8       0x90 /home/born/DPDK-OVS/DPDK-1.6.0/build/lib/librte_pmd_ring.a(rte_eth_ring.o)
                                         0x89 (size before relaxing)
 .rodata        0x0000000000498438        0x8 /home/born/DPDK-OVS/DPDK-1.6.0/build/lib/librte_pmd_ring.a(rte_eth_ring.o)

.rodata1
 *(.rodata1)

.eh_frame_hdr   0x0000000000498440     0x32d4
 *(.eh_frame_hdr)
 .eh_frame_hdr  0x0000000000498440     0x32d4 /usr/lib/gcc/x86_64-linux-gnu/4.6/../../../x86_64-linux-gnu/crt1.o

.eh_frame       0x000000000049b718     0xfccc
 *(.eh_frame)
 .eh_frame      0x000000000049b718       0x40 /usr/lib/gcc/x86_64-linux-gnu/4.6/../../../x86_64-linux-gnu/crt1.o
 .eh_frame      0x000000000049b758      0x5d8 testpmd.o
                                        0x5b8 (size before relaxing)
 .eh_frame      0x000000000049bd30       0xe8 parameters.o
                                         0xf8 (size before relaxing)
 .eh_frame      0x000000000049be18      0xa30 cmdline.o
                                        0x990 (size before relaxing)
 .eh_frame      0x000000000049c848      0x908 config.o
                                        0x8c8 (size before relaxing)
 .eh_frame      0x000000000049d150       0x30 iofwd.o
                                         0x48 (size before relaxing)
 .eh_frame      0x000000000049d180       0x50 macfwd.o
                                         0x68 (size before relaxing)
 .eh_frame      0x000000000049d1d0       0x50 macfwd-retry.o
                                         0x68 (size before relaxing)
 .eh_frame      0x000000000049d220       0x98 rxonly.o
                                         0xb0 (size before relaxing)
 .eh_frame      0x000000000049d2b8      0x128 txonly.o
                                        0x138 (size before relaxing)
 .eh_frame      0x000000000049d3e0       0x50 csumonly.o
                                         0x68 (size before relaxing)
 .eh_frame      0x000000000049d430       0x30 mempool_anon.o
                                         0x48 (size before relaxing)
 .eh_frame      0x000000000049d460      0x558 /home/born/DPDK-OVS/DPDK-1.6.0/build/lib/librte_pmd_e1000.a(igb_ethdev.o)
                                        0x520 (size before relaxing)
 .eh_frame      0x000000000049d9b8      0x450 /home/born/DPDK-OVS/DPDK-1.6.0/build/lib/librte_pmd_e1000.a(igb_rxtx.o)
                                        0x440 (size before relaxing)
 .eh_frame      0x000000000049de08       0xd0 /home/born/DPDK-OVS/DPDK-1.6.0/build/lib/librte_pmd_e1000.a(igb_pf.o)
                                         0xe0 (size before relaxing)
 .eh_frame      0x000000000049ded8      0x338 /home/born/DPDK-OVS/DPDK-1.6.0/build/lib/librte_pmd_e1000.a(em_ethdev.o)
                                        0x310 (size before relaxing)
 .eh_frame      0x000000000049e210      0x360 /home/born/DPDK-OVS/DPDK-1.6.0/build/lib/librte_pmd_e1000.a(em_rxtx.o)
                                        0x350 (size before relaxing)
 .eh_frame      0x000000000049e570      0x2d0 /home/born/DPDK-OVS/DPDK-1.6.0/build/lib/librte_pmd_e1000.a(e1000_82541.o)
                                        0x2a8 (size before relaxing)
 .eh_frame      0x000000000049e840      0x358 /home/born/DPDK-OVS/DPDK-1.6.0/build/lib/librte_pmd_e1000.a(e1000_82543.o)
                                        0x328 (size before relaxing)
 .eh_frame      0x000000000049eb98      0x490 /home/born/DPDK-OVS/DPDK-1.6.0/build/lib/librte_pmd_e1000.a(e1000_82571.o)
                                        0x440 (size before relaxing)
 .eh_frame      0x000000000049f028      0x998 /home/born/DPDK-OVS/DPDK-1.6.0/build/lib/librte_pmd_e1000.a(e1000_82575.o)
                                        0x910 (size before relaxing)
 .eh_frame      0x000000000049f9c0      0x3e0 /home/born/DPDK-OVS/DPDK-1.6.0/build/lib/librte_pmd_e1000.a(e1000_i210.o)
                                        0x3c8 (size before relaxing)
 .eh_frame      0x000000000049fda0      0x608 /home/born/DPDK-OVS/DPDK-1.6.0/build/lib/librte_pmd_e1000.a(e1000_api.o)
                                        0x528 (size before relaxing)
 .eh_frame      0x00000000004a03a8      0x950 /home/born/DPDK-OVS/DPDK-1.6.0/build/lib/librte_pmd_e1000.a(e1000_ich8lan.o)
                                        0x8c8 (size before relaxing)
 .eh_frame      0x00000000004a0cf8      0x6a0 /home/born/DPDK-OVS/DPDK-1.6.0/build/lib/librte_pmd_e1000.a(e1000_mac.o)
                                        0x608 (size before relaxing)
 .eh_frame      0x00000000004a1398      0x1b0 /home/born/DPDK-OVS/DPDK-1.6.0/build/lib/librte_pmd_e1000.a(e1000_manage.o)
 .eh_frame      0x00000000004a1548      0x238 /home/born/DPDK-OVS/DPDK-1.6.0/build/lib/librte_pmd_e1000.a(e1000_mbx.o)
                                        0x200 (size before relaxing)
 .eh_frame      0x00000000004a1780      0x568 /home/born/DPDK-OVS/DPDK-1.6.0/build/lib/librte_pmd_e1000.a(e1000_nvm.o)
                                        0x530 (size before relaxing)
 .eh_frame      0x00000000004a1ce8       0x90 /home/born/DPDK-OVS/DPDK-1.6.0/build/lib/librte_pmd_e1000.a(e1000_osdep.o)
 .eh_frame      0x00000000004a1d78      0xd38 /home/born/DPDK-OVS/DPDK-1.6.0/build/lib/librte_pmd_e1000.a(e1000_phy.o)
                                        0xc50 (size before relaxing)
 .eh_frame      0x00000000004a2ab0      0x230 /home/born/DPDK-OVS/DPDK-1.6.0/build/lib/librte_pmd_e1000.a(e1000_vf.o)
                                        0x210 (size before relaxing)
 .eh_frame      0x00000000004a2ce0      0x478 /home/born/DPDK-OVS/DPDK-1.6.0/build/lib/librte_pmd_e1000.a(e1000_80003es2lan.o)
                                        0x450 (size before relaxing)
 .eh_frame      0x00000000004a3158      0x180 /home/born/DPDK-OVS/DPDK-1.6.0/build/lib/librte_pmd_e1000.a(e1000_82540.o)
 .eh_frame      0x00000000004a32d8      0x188 /home/born/DPDK-OVS/DPDK-1.6.0/build/lib/librte_pmd_e1000.a(e1000_82542.o)
                                        0x170 (size before relaxing)
 .eh_frame      0x00000000004a3460      0x798 /home/born/DPDK-OVS/DPDK-1.6.0/build/lib/librte_pmd_ixgbe.a(ixgbe_ethdev.o)
                                        0x720 (size before relaxing)
 .eh_frame      0x00000000004a3bf8      0x1d8 /home/born/DPDK-OVS/DPDK-1.6.0/build/lib/librte_pmd_ixgbe.a(ixgbe_fdir.o)
                                        0x1d0 (size before relaxing)
 .eh_frame      0x00000000004a3dd0       0xe8 /home/born/DPDK-OVS/DPDK-1.6.0/build/lib/librte_pmd_ixgbe.a(ixgbe_pf.o)
                                         0xf8 (size before relaxing)
 .eh_frame      0x00000000004a3eb8      0xcc0 /home/born/DPDK-OVS/DPDK-1.6.0/build/lib/librte_pmd_ixgbe.a(ixgbe_common.o)
                                        0xc08 (size before relaxing)
 .eh_frame      0x00000000004a4b78      0x570 /home/born/DPDK-OVS/DPDK-1.6.0/build/lib/librte_pmd_ixgbe.a(ixgbe_82599.o)
                                        0x530 (size before relaxing)
 .eh_frame      0x00000000004a50e8      0x550 /home/born/DPDK-OVS/DPDK-1.6.0/build/lib/librte_pmd_ixgbe.a(ixgbe_phy.o)
                                        0x520 (size before relaxing)
 .eh_frame      0x00000000004a5638      0x760 /home/born/DPDK-OVS/DPDK-1.6.0/build/lib/librte_pmd_ixgbe.a(ixgbe_api.o)
                                        0x658 (size before relaxing)
 .eh_frame      0x00000000004a5d98      0x278 /home/born/DPDK-OVS/DPDK-1.6.0/build/lib/librte_pmd_ixgbe.a(ixgbe_vf.o)
                                        0x258 (size before relaxing)
 .eh_frame      0x00000000004a6010      0x2e8 /home/born/DPDK-OVS/DPDK-1.6.0/build/lib/librte_pmd_ixgbe.a(ixgbe_dcb.o)
                                        0x2b8 (size before relaxing)
 .eh_frame      0x00000000004a62f8      0x138 /home/born/DPDK-OVS/DPDK-1.6.0/build/lib/librte_pmd_ixgbe.a(ixgbe_dcb_82599.o)
                                        0x130 (size before relaxing)
 .eh_frame      0x00000000004a6430       0xd0 /home/born/DPDK-OVS/DPDK-1.6.0/build/lib/librte_pmd_ixgbe.a(ixgbe_dcb_82598.o)
 .eh_frame      0x00000000004a6500      0x218 /home/born/DPDK-OVS/DPDK-1.6.0/build/lib/librte_pmd_ixgbe.a(ixgbe_mbx.o)
                                        0x1e8 (size before relaxing)
 .eh_frame      0x00000000004a6718      0x648 /home/born/DPDK-OVS/DPDK-1.6.0/build/lib/librte_pmd_ixgbe.a(ixgbe_rxtx.o)
                                        0x620 (size before relaxing)
 .eh_frame      0x00000000004a6d60      0x368 /home/born/DPDK-OVS/DPDK-1.6.0/build/lib/librte_pmd_ixgbe.a(ixgbe_82598.o)
                                        0x348 (size before relaxing)
 .eh_frame      0x00000000004a70c8      0x320 /home/born/DPDK-OVS/DPDK-1.6.0/build/lib/librte_pmd_ixgbe.a(ixgbe_x540.o)
                                        0x308 (size before relaxing)
 .eh_frame      0x00000000004a73e8      0x210 /home/born/DPDK-OVS/DPDK-1.6.0/build/lib/librte_pmd_virtio.a(virtio_ethdev.o)
                                        0x1f8 (size before relaxing)
 .eh_frame      0x00000000004a75f8       0x30 /home/born/DPDK-OVS/DPDK-1.6.0/build/lib/librte_pmd_virtio.a(virtqueue.o)
                                         0x40 (size before relaxing)
 .eh_frame      0x00000000004a7628       0xb8 /home/born/DPDK-OVS/DPDK-1.6.0/build/lib/librte_pmd_virtio.a(virtio_pci.o)
 .eh_frame      0x00000000004a76e0      0x198 /home/born/DPDK-OVS/DPDK-1.6.0/build/lib/librte_pmd_virtio.a(virtio_rxtx.o)
                                        0x1a0 (size before relaxing)
 .eh_frame      0x00000000004a7878      0x1d8 /home/born/DPDK-OVS/DPDK-1.6.0/build/lib/librte_pmd_vmxnet3.a(vmxnet3_ethdev.o)
                                        0x1c0 (size before relaxing)
 .eh_frame      0x00000000004a7a50      0x2d0 /home/born/DPDK-OVS/DPDK-1.6.0/build/lib/librte_pmd_vmxnet3.a(vmxnet3_rxtx.o)
 .eh_frame      0x00000000004a7d20      0x8a8 /home/born/DPDK-OVS/DPDK-1.6.0/build/lib/libethdev.a(rte_ethdev.o)
                                        0x808 (size before relaxing)
 .eh_frame      0x00000000004a85c8      0x300 /home/born/DPDK-OVS/DPDK-1.6.0/build/lib/librte_malloc.a(rte_malloc.o)
                                        0x318 (size before relaxing)
 .eh_frame      0x00000000004a88c8      0x208 /home/born/DPDK-OVS/DPDK-1.6.0/build/lib/librte_malloc.a(malloc_elem.o)
                                        0x220 (size before relaxing)
 .eh_frame      0x00000000004a8ad0      0x1f0 /home/born/DPDK-OVS/DPDK-1.6.0/build/lib/librte_malloc.a(malloc_heap.o)
                                        0x200 (size before relaxing)
 .eh_frame      0x00000000004a8cc0      0x288 /home/born/DPDK-OVS/DPDK-1.6.0/build/lib/librte_mempool.a(rte_mempool.o)
                                        0x278 (size before relaxing)
 .eh_frame      0x00000000004a8f48       0xe8 /home/born/DPDK-OVS/DPDK-1.6.0/build/lib/librte_ring.a(rte_ring.o)
                                         0xf8 (size before relaxing)
 .eh_frame      0x00000000004a9030      0x158 /home/born/DPDK-OVS/DPDK-1.6.0/build/lib/librte_eal.a(eal.o)
 .eh_frame      0x00000000004a9188       0xe8 /home/born/DPDK-OVS/DPDK-1.6.0/build/lib/librte_eal.a(eal_hugepage_info.o)
                                         0xf8 (size before relaxing)
 .eh_frame      0x00000000004a9270      0x170 /home/born/DPDK-OVS/DPDK-1.6.0/build/lib/librte_eal.a(eal_memory.o)
                                        0x180 (size before relaxing)
 .eh_frame      0x00000000004a93e0       0x98 /home/born/DPDK-OVS/DPDK-1.6.0/build/lib/librte_eal.a(eal_thread.o)
                                         0xa8 (size before relaxing)
 .eh_frame      0x00000000004a9478      0x120 /home/born/DPDK-OVS/DPDK-1.6.0/build/lib/librte_eal.a(eal_log.o)
                                        0x118 (size before relaxing)
 .eh_frame      0x00000000004a9598      0x198 /home/born/DPDK-OVS/DPDK-1.6.0/build/lib/librte_eal.a(eal_pci.o)
                                        0x1a0 (size before relaxing)
 .eh_frame      0x00000000004a9730       0x80 /home/born/DPDK-OVS/DPDK-1.6.0/build/lib/librte_eal.a(eal_debug.o)
                                         0x90 (size before relaxing)
 .eh_frame      0x00000000004a97b0      0x100 /home/born/DPDK-OVS/DPDK-1.6.0/build/lib/librte_eal.a(eal_lcore.o)
                                        0x108 (size before relaxing)
 .eh_frame      0x00000000004a98b0       0x90 /home/born/DPDK-OVS/DPDK-1.6.0/build/lib/librte_eal.a(eal_timer.o)
                                         0xa0 (size before relaxing)
 .eh_frame      0x00000000004a9940      0x118 /home/born/DPDK-OVS/DPDK-1.6.0/build/lib/librte_eal.a(eal_interrupts.o)
                                        0x128 (size before relaxing)
 .eh_frame      0x00000000004a9a58       0xd0 /home/born/DPDK-OVS/DPDK-1.6.0/build/lib/librte_eal.a(eal_alarm.o)
                                         0xe0 (size before relaxing)
 .eh_frame      0x00000000004a9b28      0x180 /home/born/DPDK-OVS/DPDK-1.6.0/build/lib/librte_eal.a(eal_ivshmem.o)
                                        0x188 (size before relaxing)
 .eh_frame      0x00000000004a9ca8      0x1b8 /home/born/DPDK-OVS/DPDK-1.6.0/build/lib/librte_eal.a(eal_common_memzone.o)
 .eh_frame      0x00000000004a9e60      0x190 /home/born/DPDK-OVS/DPDK-1.6.0/build/lib/librte_eal.a(eal_common_log.o)
                                        0x180 (size before relaxing)
 .eh_frame      0x00000000004a9ff0       0xa0 /home/born/DPDK-OVS/DPDK-1.6.0/build/lib/librte_eal.a(eal_common_launch.o)
                                         0xb0 (size before relaxing)
 .eh_frame      0x00000000004aa090       0xf0 /home/born/DPDK-OVS/DPDK-1.6.0/build/lib/librte_eal.a(eal_common_pci.o)
 .eh_frame      0x00000000004aa180       0x88 /home/born/DPDK-OVS/DPDK-1.6.0/build/lib/librte_eal.a(eal_common_memory.o)
                                         0xa0 (size before relaxing)
 .eh_frame      0x00000000004aa208      0x118 /home/born/DPDK-OVS/DPDK-1.6.0/build/lib/librte_eal.a(eal_common_tailqs.o)
                                        0x120 (size before relaxing)
 .eh_frame      0x00000000004aa320       0x58 /home/born/DPDK-OVS/DPDK-1.6.0/build/lib/librte_eal.a(eal_common_errno.o)
                                         0x68 (size before relaxing)
 .eh_frame      0x00000000004aa378      0x118 /home/born/DPDK-OVS/DPDK-1.6.0/build/lib/librte_eal.a(eal_common_whitelist.o)
                                        0x120 (size before relaxing)
 .eh_frame      0x00000000004aa490       0x60 /home/born/DPDK-OVS/DPDK-1.6.0/build/lib/librte_eal.a(eal_common_nonpci_devs.o)
                                         0x70 (size before relaxing)
 .eh_frame      0x00000000004aa4f0      0x1c0 /home/born/DPDK-OVS/DPDK-1.6.0/build/lib/librte_cmdline.a(cmdline.o)
                                        0x1b8 (size before relaxing)
 .eh_frame      0x00000000004aa6b0      0x130 /home/born/DPDK-OVS/DPDK-1.6.0/build/lib/librte_cmdline.a(cmdline_parse.o)
                                        0x140 (size before relaxing)
 .eh_frame      0x00000000004aa7e0       0x88 /home/born/DPDK-OVS/DPDK-1.6.0/build/lib/librte_cmdline.a(cmdline_parse_etheraddr.o)
                                         0xa0 (size before relaxing)
 .eh_frame      0x00000000004aa868      0x138 /home/born/DPDK-OVS/DPDK-1.6.0/build/lib/librte_cmdline.a(cmdline_parse_ipaddr.o)
                                        0x148 (size before relaxing)
 .eh_frame      0x00000000004aa9a0       0xc0 /home/born/DPDK-OVS/DPDK-1.6.0/build/lib/librte_cmdline.a(cmdline_parse_num.o)
                                         0xd0 (size before relaxing)
 .eh_frame      0x00000000004aaa60       0xf0 /home/born/DPDK-OVS/DPDK-1.6.0/build/lib/librte_cmdline.a(cmdline_parse_string.o)
                                        0x100 (size before relaxing)
 .eh_frame      0x00000000004aab50      0x2c0 /home/born/DPDK-OVS/DPDK-1.6.0/build/lib/librte_cmdline.a(cmdline_rdline.o)
                                        0x2a8 (size before relaxing)
 .eh_frame      0x00000000004aae10       0x80 /home/born/DPDK-OVS/DPDK-1.6.0/build/lib/librte_cmdline.a(cmdline_vt100.o)
                                         0x90 (size before relaxing)
 .eh_frame      0x00000000004aae90       0x78 /home/born/DPDK-OVS/DPDK-1.6.0/build/lib/librte_cmdline.a(cmdline_socket.o)
                                         0x90 (size before relaxing)
 .eh_frame      0x00000000004aaf08      0x208 /home/born/DPDK-OVS/DPDK-1.6.0/build/lib/librte_cmdline.a(cmdline_cirbuf.o)
                                        0x1e0 (size before relaxing)
 .eh_frame      0x00000000004ab110      0x290 /home/born/DPDK-OVS/DPDK-1.6.0/build/lib/librte_pmd_ring.a(rte_eth_ring.o)
                                        0x270 (size before relaxing)
 .eh_frame      0x00000000004ab3a0       0x40 /usr/lib/x86_64-linux-gnu/libc_nonshared.a(elf-init.oS)
                                         0x58 (size before relaxing)
 .eh_frame      0x00000000004ab3e0        0x4 /usr/lib/gcc/x86_64-linux-gnu/4.6/crtend.o

.gcc_except_table
 *(.gcc_except_table .gcc_except_table.*)

.exception_ranges
 *(.exception_ranges .exception_ranges*)
                0x00000000004ab3e4                . = (ALIGN (0x200000) - ((0x200000 - .) & 0x1fffff))
                0x00000000006ac1b4                . = DATA_SEGMENT_ALIGN (0x200000, 0x1000)

.eh_frame
 *(.eh_frame)

.gcc_except_table
 *(.gcc_except_table .gcc_except_table.*)

.exception_ranges
 *(.exception_ranges .exception_ranges*)

.tdata
 *(.tdata .tdata.* .gnu.linkonce.td.*)

.tbss           0x00000000006ac1b4      0x108
 *(.tbss .tbss.* .gnu.linkonce.tb.*)
 .tbss          0x00000000006ac1b4        0x4 /home/born/DPDK-OVS/DPDK-1.6.0/build/lib/librte_eal.a(eal_thread.o)
                0x00000000006ac1b4                per_lcore__lcore_id
 .tbss          0x00000000006ac1b8      0x104 /home/born/DPDK-OVS/DPDK-1.6.0/build/lib/librte_eal.a(eal_common_errno.o)
                0x00000000006ac1b8                per_lcore__rte_errno
 *(.tcommon)

.preinit_array  0x00000000006ac1b4        0x0
                0x00000000006ac1b4                PROVIDE (__preinit_array_start, .)
 *(.preinit_array)
                0x00000000006ac1b4                PROVIDE (__preinit_array_end, .)

.init_array     0x00000000006ac1b4        0x0
                0x00000000006ac1b4                PROVIDE (__init_array_start, .)
 *(SORT(.init_array.*) SORT(.ctors.*))
 *(.init_array)
 *(EXCLUDE_FILE(*crtend?.o *crtend.o *crtbegin?.o *crtbegin.o) .ctors)
                0x00000000006ac1b4                PROVIDE (__init_array_end, .)

.fini_array     0x00000000006ac1b4        0x0
                0x00000000006ac1b4                PROVIDE (__fini_array_start, .)
 *(SORT(.fini_array.*) SORT(.dtors.*))
 *(.fini_array)
 *(EXCLUDE_FILE(*crtend?.o *crtend.o *crtbegin?.o *crtbegin.o) .dtors)
                0x00000000006ac1b4                PROVIDE (__fini_array_end, .)

.ctors          0x00000000006ac1b8       0x10
 *crtbegin.o(.ctors)
 .ctors         0x00000000006ac1b8        0x8 /usr/lib/gcc/x86_64-linux-gnu/4.6/crtbegin.o
 *crtbegin?.o(.ctors)
 *(EXCLUDE_FILE(*crtend?.o *crtend.o) .ctors)
 *(SORT(.ctors.*))
 *(.ctors)
 .ctors         0x00000000006ac1c0        0x8 /usr/lib/gcc/x86_64-linux-gnu/4.6/crtend.o

.dtors          0x00000000006ac1c8       0x10
 *crtbegin.o(.dtors)
 .dtors         0x00000000006ac1c8        0x8 /usr/lib/gcc/x86_64-linux-gnu/4.6/crtbegin.o
 *crtbegin?.o(.dtors)
 *(EXCLUDE_FILE(*crtend?.o *crtend.o) .dtors)
 *(SORT(.dtors.*))
 *(.dtors)
 .dtors         0x00000000006ac1d0        0x8 /usr/lib/gcc/x86_64-linux-gnu/4.6/crtend.o
                0x00000000006ac1d0                __DTOR_END__

.jcr            0x00000000006ac1d8        0x8
 *(.jcr)
 .jcr           0x00000000006ac1d8        0x0 /usr/lib/gcc/x86_64-linux-gnu/4.6/crtbegin.o
 .jcr           0x00000000006ac1d8        0x8 /usr/lib/gcc/x86_64-linux-gnu/4.6/crtend.o

.data.rel.ro    0x00000000006ac1e0      0x1c0
 *(.data.rel.ro.local* .gnu.linkonce.d.rel.ro.local.*)
 .data.rel.ro.local
                0x00000000006ac1e0      0x140 /home/born/DPDK-OVS/DPDK-1.6.0/build/lib/librte_eal.a(eal.o)
 .data.rel.ro.local
                0x00000000006ac320       0x40 /home/born/DPDK-OVS/DPDK-1.6.0/build/lib/librte_eal.a(eal_log.o)
 .data.rel.ro.local
                0x00000000006ac360       0x40 /home/born/DPDK-OVS/DPDK-1.6.0/build/lib/librte_cmdline.a(cmdline_parse_num.o)
 *(.data.rel.ro* .gnu.linkonce.d.rel.ro.*)

.dynamic        0x00000000006ac3a0      0x1c0
 *(.dynamic)
 .dynamic       0x00000000006ac3a0      0x1c0 /usr/lib/gcc/x86_64-linux-gnu/4.6/../../../x86_64-linux-gnu/crt1.o
                0x00000000006ac3a0                _DYNAMIC

.got            0x00000000006ac560      0xa78
 *(.got)
 .got           0x00000000006ac560      0xa78 /usr/lib/gcc/x86_64-linux-gnu/4.6/../../../x86_64-linux-gnu/crt1.o
 *(.igot)
                0x00000000006acfe8                . = DATA_SEGMENT_RELRO_END (., 0x18)

.got.plt        0x00000000006acfe8      0x330
 *(.got.plt)
 .got.plt       0x00000000006acfe8      0x330 /usr/lib/gcc/x86_64-linux-gnu/4.6/../../../x86_64-linux-gnu/crt1.o
                0x00000000006acfe8                _GLOBAL_OFFSET_TABLE_
 *(.igot.plt)
 .igot.plt      0x0000000000000000        0x0 /usr/lib/gcc/x86_64-linux-gnu/4.6/../../../x86_64-linux-gnu/crt1.o

.data           0x00000000006ad320     0x66b8
 *(.data .data.* .gnu.linkonce.d.*)
 .data          0x00000000006ad320        0x4 /usr/lib/gcc/x86_64-linux-gnu/4.6/../../../x86_64-linux-gnu/crt1.o
                0x00000000006ad320                data_start
                0x00000000006ad320                __data_start
 .data          0x00000000006ad324        0x0 /usr/lib/gcc/x86_64-linux-gnu/4.6/../../../x86_64-linux-gnu/crti.o
 *fill*         0x00000000006ad324        0x4 00
 .data          0x00000000006ad328        0x8 /usr/lib/gcc/x86_64-linux-gnu/4.6/crtbegin.o
                0x00000000006ad328                __dso_handle
 *fill*         0x00000000006ad330       0x10 00
 .data          0x00000000006ad340      0x291 testpmd.o
                0x00000000006ad350                fdir_conf
                0x00000000006ad360                rx_mode
                0x00000000006ad370                rss_hf
                0x00000000006ad372                tx_thresh
                0x00000000006ad375                rx_thresh
                0x00000000006ad378                nb_txd
                0x00000000006ad37a                nb_rxd
                0x00000000006ad380                nb_txq
                0x00000000006ad390                nb_rxq
                0x00000000006ad3a0                mb_mempool_cache
                0x00000000006ad3a2                nb_pkt_per_burst
                0x00000000006ad3a4                tx_pkt_nb_segs
                0x00000000006ad3c0                tx_pkt_seg_lengths
                0x00000000006ad5be                tx_pkt_length
                0x00000000006ad5c0                mbuf_data_size
                0x00000000006ad5d0                socket_num
 *fill*         0x00000000006ad5d1        0xf 00
 .data.rel      0x00000000006ad5e0       0x58 testpmd.o
                0x00000000006ad5e0                rx_queue_stats_mappings
                0x00000000006ad5f0                tx_queue_stats_mappings
                0x00000000006ad5f8                cur_fwd_eng
                0x00000000006ad600                fwd_engines
 .data          0x00000000006ad638        0x0 parameters.o
 *fill*         0x00000000006ad638        0x8 00
 .data.rel.local
                0x00000000006ad640      0x640 parameters.o
 .data          0x00000000006adc80        0x0 cmdline.o
 .data.rel      0x00000000006adc80     0x4468 cmdline.o
                0x00000000006adc80                main_ctx
                0x00000000006adec0                cmd_reset_mirror_rule
                0x00000000006adf10                cmd_rm_mirror_rule_ruleid
                0x00000000006adf30                cmd_rm_mirror_rule_mirror
                0x00000000006adf50                cmd_rm_mirror_rule_portid
                0x00000000006adf70                cmd_rm_mirror_rule_port
                0x00000000006adf90                cmd_rm_mirror_rule_reset
                0x00000000006adfb0                cmd_set_mirror_link
                0x00000000006ae020                cmd_mirror_link_on
                0x00000000006ae040                cmd_mirror_link_poolid
                0x00000000006ae060                cmd_mirror_link_dstpool
                0x00000000006ae080                cmd_mirror_link_what
                0x00000000006ae0a0                cmd_mirror_link_ruleid
                0x00000000006ae0c0                cmd_mirror_link_mirror
                0x00000000006ae0e0                cmd_mirror_link_portid
                0x00000000006ae100                cmd_mirror_link_port
                0x00000000006ae120                cmd_mirror_link_set
                0x00000000006ae140                cmd_set_mirror_mask
                0x00000000006ae1b0                cmd_mirror_mask_on
                0x00000000006ae1d0                cmd_mirror_mask_poolid
                0x00000000006ae1f0                cmd_mirror_mask_dstpool
                0x00000000006ae210                cmd_mirror_mask_value
                0x00000000006ae230                cmd_mirror_mask_what
                0x00000000006ae250                cmd_mirror_mask_ruleid
                0x00000000006ae270                cmd_mirror_mask_mirror
                0x00000000006ae290                cmd_mirror_mask_portid
                0x00000000006ae2b0                cmd_mirror_mask_port
                0x00000000006ae2d0                cmd_mirror_mask_set
                0x00000000006ae2f0                cmd_vf_rxvlan_filter
                0x00000000006ae350                cmd_vf_rx_vlan_filter_vf_mask
                0x00000000006ae370                cmd_vf_rx_vlan_filter_vf
                0x00000000006ae390                cmd_vf_rx_vlan_filter_portid
                0x00000000006ae3b0                cmd_vf_rx_vlan_filter_port
                0x00000000006ae3d0                cmd_vf_rx_vlan_filter_vlanid
                0x00000000006ae3f0                cmd_vf_rx_vlan_filter_what
                0x00000000006ae410                cmd_vf_rx_vlan_filter_rx_vlan
                0x00000000006ae430                cmd_vf_mac_addr_filter
                0x00000000006ae490                cmd_vf_mac_addr_addr
                0x00000000006ae4a0                cmd_vf_mac_addr_vfnum
                0x00000000006ae4c0                cmd_vf_mac_addr_vf
                0x00000000006ae4e0                cmd_vf_mac_addr_portnum
                0x00000000006ae500                cmd_vf_mac_addr_port
                0x00000000006ae520                cmd_vf_mac_addr_what
                0x00000000006ae540                cmd_vf_mac_addr_cmd
                0x00000000006ae560                cmd_set_vf_rxmode
                0x00000000006ae5c0                cmd_set_vf_rxmode_on
                0x00000000006ae5e0                cmd_set_vf_rxmode_mode
                0x00000000006ae600                cmd_set_vf_rxmode_what
                0x00000000006ae620                cmd_set_vf_rxmode_vfid
                0x00000000006ae640                cmd_set_vf_rxmode_vf
                0x00000000006ae660                cmd_set_vf_rxmode_portid
                0x00000000006ae680                cmd_set_vf_rxmode_port
                0x00000000006ae6a0                cmd_set_vf_rxmode_set
                0x00000000006ae6c0                cmd_set_vf_traffic
                0x00000000006ae720                cmd_setvf_traffic_mode
                0x00000000006ae740                cmd_setvf_traffic_what
                0x00000000006ae760                cmd_setvf_traffic_vfid
                0x00000000006ae780                cmd_setvf_traffic_vf
                0x00000000006ae7a0                cmd_setvf_traffic_portid
                0x00000000006ae7c0                cmd_setvf_traffic_port
                0x00000000006ae7e0                cmd_setvf_traffic_set
                0x00000000006ae800                cmd_set_uc_all_hash_filter
                0x00000000006ae850                cmd_set_uc_all_hash_mode
                0x00000000006ae870                cmd_set_uc_all_hash_value
                0x00000000006ae890                cmd_set_uc_all_hash_what
                0x00000000006ae8b0                cmd_set_uc_all_hash_portid
                0x00000000006ae8d0                cmd_set_uc_all_hash_port
                0x00000000006ae8f0                cmd_set_uc_all_hash_set
                0x00000000006ae910                cmd_set_uc_hash_filter
                0x00000000006ae960                cmd_set_uc_hash_mode
                0x00000000006ae980                cmd_set_uc_hash_mac
                0x00000000006ae990                cmd_set_uc_hash_what
                0x00000000006ae9b0                cmd_set_uc_hash_portid
                0x00000000006ae9d0                cmd_set_uc_hash_port
                0x00000000006ae9f0                cmd_set_uc_hash_set
                0x00000000006aea10                cmd_set_qmap
                0x00000000006aea60                cmd_setqmap_mapvalue
                0x00000000006aea80                cmd_setqmap_queueid
                0x00000000006aeaa0                cmd_setqmap_portid
                0x00000000006aeac0                cmd_setqmap_what
                0x00000000006aeae0                cmd_setqmap_qmap
                0x00000000006aeb00                cmd_setqmap_set
                0x00000000006aeb20                cmd_mac_addr
                0x00000000006aeb60                cmd_mac_addr_addr
                0x00000000006aeb70                cmd_mac_addr_portnum
                0x00000000006aeb90                cmd_mac_addr_what
                0x00000000006aebb0                cmd_mac_addr_cmd
                0x00000000006aebd0                cmd_quit
                0x00000000006aec00                cmd_quit_quit
                0x00000000006aec20                cmd_read_rxd_txd
                0x00000000006aec70                cmd_read_rxd_txd_desc_id
                0x00000000006aec90                cmd_read_rxd_txd_queue_id
                0x00000000006aecb0                cmd_read_rxd_txd_port_id
                0x00000000006aecd0                cmd_read_rxd_txd_rxd_txd
                0x00000000006aecf0                cmd_read_rxd_txd_read
                0x00000000006aed10                cmd_write_reg_bit
                0x00000000006aed60                cmd_write_reg_bit_value
                0x00000000006aed80                cmd_write_reg_bit_bit_pos
                0x00000000006aeda0                cmd_write_reg_bit_reg_off
                0x00000000006aedc0                cmd_write_reg_bit_port_id
                0x00000000006aede0                cmd_write_reg_bit_regbit
                0x00000000006aee00                cmd_write_reg_bit_write
                0x00000000006aee20                cmd_write_reg_bit_field
                0x00000000006aee80                cmd_write_reg_bit_field_value
                0x00000000006aeea0                cmd_write_reg_bit_field_bit2_pos
                0x00000000006aeec0                cmd_write_reg_bit_field_bit1_pos
                0x00000000006aeee0                cmd_write_reg_bit_field_reg_off
                0x00000000006aef00                cmd_write_reg_bit_field_port_id
                0x00000000006aef20                cmd_write_reg_bit_field_regfield
                0x00000000006aef40                cmd_write_reg_bit_field_write
                0x00000000006aef60                cmd_write_reg
                0x00000000006aefb0                cmd_write_reg_value
                0x00000000006aefd0                cmd_write_reg_reg_off
                0x00000000006aeff0                cmd_write_reg_port_id
                0x00000000006af010                cmd_write_reg_reg
                0x00000000006af030                cmd_write_reg_write
                0x00000000006af050                cmd_read_reg_bit
                0x00000000006af0a0                cmd_read_reg_bit_bit_pos
                0x00000000006af0c0                cmd_read_reg_bit_reg_off
                0x00000000006af0e0                cmd_read_reg_bit_port_id
                0x00000000006af100                cmd_read_reg_bit_regbit
                0x00000000006af120                cmd_read_reg_bit_read
                0x00000000006af140                cmd_read_reg_bit_field
                0x00000000006af190                cmd_read_reg_bit_field_bit2_pos
                0x00000000006af1b0                cmd_read_reg_bit_field_bit1_pos
                0x00000000006af1d0                cmd_read_reg_bit_field_reg_off
                0x00000000006af1f0                cmd_read_reg_bit_field_port_id
                0x00000000006af210                cmd_read_reg_bit_field_regfield
                0x00000000006af230                cmd_read_reg_bit_field_read
                0x00000000006af250                cmd_read_reg
                0x00000000006af290                cmd_read_reg_reg_off
                0x00000000006af2b0                cmd_read_reg_port_id
                0x00000000006af2d0                cmd_read_reg_reg
                0x00000000006af2f0                cmd_read_reg_read
                0x00000000006af310                cmd_showport
                0x00000000006af350                cmd_showport_portnum
                0x00000000006af370                cmd_showport_what
                0x00000000006af390                cmd_showport_port
                0x00000000006af3b0                cmd_showport_show
                0x00000000006af3d0                cmd_showportall
                0x00000000006af410                cmd_showportall_all
                0x00000000006af430                cmd_showportall_what
                0x00000000006af450                cmd_showportall_port
                0x00000000006af470                cmd_showportall_show
                0x00000000006af490                cmd_showcfg
                0x00000000006af4d0                cmd_showcfg_what
                0x00000000006af4f0                cmd_showcfg_port
                0x00000000006af510                cmd_showcfg_show
                0x00000000006af530                cmd_start_tx_first
                0x00000000006af560                cmd_start_tx_first_tx_first
                0x00000000006af580                cmd_start_tx_first_start
                0x00000000006af5a0                cmd_start
                0x00000000006af5d0                cmd_start_start
                0x00000000006af5f0                cmd_reset
                0x00000000006af620                cmd_reset_def
                0x00000000006af640                cmd_reset_set
                0x00000000006af660                cmd_priority_flow_control_set
                0x00000000006af6e0                cmd_pfc_set_portid
                0x00000000006af700                cmd_pfc_set_priority
                0x00000000006af720                cmd_pfc_set_pause_time
                0x00000000006af740                cmd_pfc_set_low_water
                0x00000000006af760                cmd_pfc_set_high_water
                0x00000000006af780                cmd_pfc_set_tx_mode
                0x00000000006af7a0                cmd_pfc_set_tx
                0x00000000006af7c0                cmd_pfc_set_rx_mode
                0x00000000006af7e0                cmd_pfc_set_rx
                0x00000000006af800                cmd_pfc_set_flow_ctrl
                0x00000000006af820                cmd_pfc_set_set
                0x00000000006af840                cmd_link_flow_control_set
                0x00000000006af8d0                cmd_lfc_set_portid
                0x00000000006af8f0                cmd_lfc_set_mac_ctrl_frame_fwd
                0x00000000006af910                cmd_lfc_set_mac_ctrl_frame_fwd_mode
                0x00000000006af930                cmd_lfc_set_send_xon
                0x00000000006af950                cmd_lfc_set_pause_time
                0x00000000006af970                cmd_lfc_set_low_water
                0x00000000006af990                cmd_lfc_set_high_water
                0x00000000006af9b0                cmd_lfc_set_tx_mode
                0x00000000006af9d0                cmd_lfc_set_tx
                0x00000000006af9f0                cmd_lfc_set_rx_mode
                0x00000000006afa10                cmd_lfc_set_rx
                0x00000000006afa30                cmd_lfc_set_flow_ctrl
                0x00000000006afa50                cmd_lfc_set_set
                0x00000000006afa70                cmd_set_ipv6_masks_filter
                0x00000000006afb20                cmd_pkt_filter_masks_comp_ipv6_dst_value
                0x00000000006afb40                cmd_pkt_filter_masks_comp_ipv6_dst
                0x00000000006afb60                cmd_pkt_filter_masks_dst_mask_ipv6_value
                0x00000000006afb80                cmd_pkt_filter_masks_src_mask_ipv6_value
                0x00000000006afba0                cmd_pkt_filter_masks_filter_mask_ipv6
                0x00000000006afbc0                cmd_set_masks_filter
                0x00000000006afc60                cmd_pkt_filter_masks_vlan_prio_value
                0x00000000006afc80                cmd_pkt_filter_masks_vlan_prio
                0x00000000006afca0                cmd_pkt_filter_masks_vlan_id_value
                0x00000000006afcc0                cmd_pkt_filter_masks_vlan_id
                0x00000000006afce0                cmd_pkt_filter_masks_flexbytes_value
                0x00000000006afd00                cmd_pkt_filter_masks_flexbytes
                0x00000000006afd20                cmd_pkt_filter_masks_port_dst_mask
                0x00000000006afd40                cmd_pkt_filter_masks_ip_dst_mask
                0x00000000006afd60                cmd_pkt_filter_masks_dst_mask
                0x00000000006afd80                cmd_pkt_filter_masks_port_src_mask
                0x00000000006afda0                cmd_pkt_filter_masks_ip_src_mask
                0x00000000006afdc0                cmd_pkt_filter_masks_src_mask
                0x00000000006afde0                cmd_pkt_filter_masks_only_ip_flow_value
                0x00000000006afe00                cmd_pkt_filter_masks_only_ip_flow
                0x00000000006afe20                cmd_pkt_filter_masks_port_id
                0x00000000006afe40                cmd_pkt_filter_masks_filter_mask
                0x00000000006afe60                cmd_rm_perfect_filter
                0x00000000006aff00                cmd_pkt_filter_rm_perfect_filter
                0x00000000006aff20                cmd_upd_perfect_filter
                0x00000000006affd0                cmd_pkt_filter_upd_perfect_filter
                0x00000000006afff0                cmd_add_perfect_filter
                0x00000000006b00a0                cmd_pkt_filter_add_perfect_filter
                0x00000000006b00c0                cmd_rm_signature_filter
                0x00000000006b0150                cmd_pkt_filter_rm_signature_filter
                0x00000000006b0170                cmd_upd_signature_filter
                0x00000000006b0210                cmd_pkt_filter_upd_signature_filter
                0x00000000006b0230                cmd_add_signature_filter
                0x00000000006b02d0                cmd_pkt_filter_add_signature_filter
                0x00000000006b02f0                cmd_pkt_filter_soft_id
                0x00000000006b0310                cmd_pkt_filter_soft
                0x00000000006b0330                cmd_pkt_filter_queue_id
                0x00000000006b0350                cmd_pkt_filter_queue
                0x00000000006b0370                cmd_pkt_filter_vlan_id
                0x00000000006b0390                cmd_pkt_filter_vlan
                0x00000000006b03b0                cmd_pkt_filter_flexbytes_value
                0x00000000006b03d0                cmd_pkt_filter_flexbytes
                0x00000000006b03f0                cmd_pkt_filter_port_dst
                0x00000000006b0410                cmd_pkt_filter_ip_dst
                0x00000000006b0430                cmd_pkt_filter_dst
                0x00000000006b0450                cmd_pkt_filter_port_src
                0x00000000006b0470                cmd_pkt_filter_ip_src
                0x00000000006b0490                cmd_pkt_filter_src
                0x00000000006b04b0                cmd_pkt_filter_protocol
                0x00000000006b04d0                cmd_pkt_filter_port_id
                0x00000000006b04f0                cmd_set_allmulti_mode_one
                0x00000000006b0530                cmd_set_allmulti_mode_all
                0x00000000006b0570                cmd_setallmulti_mode
                0x00000000006b0590                cmd_setallmulti_portnum
                0x00000000006b05b0                cmd_setallmulti_portall
                0x00000000006b05d0                cmd_setallmulti_allmulti
                0x00000000006b05f0                cmd_setallmulti_set
                0x00000000006b0610                cmd_set_promisc_mode_one
                0x00000000006b0650                cmd_set_promisc_mode_all
                0x00000000006b0690                cmd_setpromisc_mode
                0x00000000006b06b0                cmd_setpromisc_portnum
                0x00000000006b06d0                cmd_setpromisc_portall
                0x00000000006b06f0                cmd_setpromisc_promisc
                0x00000000006b0710                cmd_setpromisc_set
                0x00000000006b0730                cmd_set_burst_tx_retry
                0x00000000006b0790                cmd_set_burst_tx_retry_retry_num
                0x00000000006b07b0                cmd_set_burst_tx_retry_retry
                0x00000000006b07d0                cmd_set_burst_tx_retry_time
                0x00000000006b07f0                cmd_set_burst_tx_retry_delay
                0x00000000006b0810                cmd_set_burst_tx_retry_tx
                0x00000000006b0830                cmd_set_burst_tx_retry_burst
                0x00000000006b0850                cmd_set_burst_tx_retry_set
                0x00000000006b0870                cmd_set_fwd_mode
                0x00000000006b08b0                cmd_setfwd_mode
                0x00000000006b08d0                cmd_setfwd_fwd
                0x00000000006b08f0                cmd_setfwd_set
                0x00000000006b0910                cmd_set_flush_rx
                0x00000000006b0950                cmd_setflushrx_mode
                0x00000000006b0970                cmd_setflushrx_flush_rx
                0x00000000006b0990                cmd_setflushrx_set
                0x00000000006b09b0                cmd_tx_cksum_set
                0x00000000006b09f0                cmd_tx_cksum_set_portid
                0x00000000006b0a10                cmd_tx_cksum_set_cksum_mask
                0x00000000006b0a30                cmd_tx_cksum_set_set
                0x00000000006b0a50                cmd_tx_cksum_set_tx_cksum
                0x00000000006b0a70                cmd_tx_vlan_reset
                0x00000000006b0ab0                cmd_tx_vlan_reset_portid
                0x00000000006b0ad0                cmd_tx_vlan_reset_reset
                0x00000000006b0af0                cmd_tx_vlan_reset_tx_vlan
                0x00000000006b0b10                cmd_tx_vlan_set
                0x00000000006b0b50                cmd_tx_vlan_set_portid
                0x00000000006b0b70                cmd_tx_vlan_set_vlanid
                0x00000000006b0b90                cmd_tx_vlan_set_set
                0x00000000006b0bb0                cmd_tx_vlan_set_tx_vlan
                0x00000000006b0bd0                cmd_rx_vlan_filter
                0x00000000006b0c10                cmd_rx_vlan_filter_portid
                0x00000000006b0c30                cmd_rx_vlan_filter_vlanid
                0x00000000006b0c50                cmd_rx_vlan_filter_what
                0x00000000006b0c70                cmd_rx_vlan_filter_rx_vlan
                0x00000000006b0c90                cmd_vlan_tpid
                0x00000000006b0ce0                cmd_vlan_tpid_portid
                0x00000000006b0d00                cmd_vlan_tpid_tpid
                0x00000000006b0d20                cmd_vlan_tpid_what
                0x00000000006b0d40                cmd_vlan_tpid_set
                0x00000000006b0d60                cmd_vlan_tpid_vlan
                0x00000000006b0d80                cmd_vlan_offload
                0x00000000006b0dd0                cmd_vlan_offload_portid
                0x00000000006b0df0                cmd_vlan_offload_on
                0x00000000006b0e10                cmd_vlan_offload_what
                0x00000000006b0e30                cmd_vlan_offload_set
                0x00000000006b0e50                cmd_vlan_offload_vlan
                0x00000000006b0e70                cmd_rx_vlan_filter_all
                0x00000000006b0eb0                cmd_rx_vlan_filter_all_portid
                0x00000000006b0ed0                cmd_rx_vlan_filter_all_all
                0x00000000006b0ef0                cmd_rx_vlan_filter_all_what
                0x00000000006b0f10                cmd_rx_vlan_filter_all_rx_vlan
                0x00000000006b0f30                cmd_set_txpkts
                0x00000000006b0f70                cmd_set_txpkts_lengths
                0x00000000006b0f90                cmd_set_txpkts_name
                0x00000000006b0fb0                cmd_set_txpkts_keyword
                0x00000000006b0fd0                cmd_set_numbers
                0x00000000006b1010                cmd_set_value
                0x00000000006b1030                cmd_set_what
                0x00000000006b1050                cmd_set_set
                0x00000000006b1070                cmd_set_fwd_mask
                0x00000000006b10b0                cmd_setmask_value
                0x00000000006b10d0                cmd_setmask_mask
                0x00000000006b10f0                cmd_setmask_set
                0x00000000006b1110                cmd_set_fwd_list
                0x00000000006b1150                cmd_set_list_of_items
                0x00000000006b1170                cmd_set_list_name
                0x00000000006b1190                cmd_set_list_keyword
                0x00000000006b11b0                cmd_stop
                0x00000000006b11e0                cmd_stop_stop
                0x00000000006b1200                cmd_config_threshold
                0x00000000006b1250                cmd_config_threshold_value
                0x00000000006b1270                cmd_config_threshold_name
                0x00000000006b1290                cmd_config_threshold_all
                0x00000000006b12b0                cmd_config_threshold_keyword
                0x00000000006b12d0                cmd_config_threshold_port
                0x00000000006b12f0                cmd_config_thresh
                0x00000000006b1340                cmd_config_thresh_value
                0x00000000006b1360                cmd_config_thresh_name
                0x00000000006b1380                cmd_config_thresh_all
                0x00000000006b13a0                cmd_config_thresh_keyword
                0x00000000006b13c0                cmd_config_thresh_port
                0x00000000006b13e0                cmd_config_burst
                0x00000000006b1430                cmd_config_burst_value
                0x00000000006b1450                cmd_config_burst_name
                0x00000000006b1470                cmd_config_burst_all
                0x00000000006b1490                cmd_config_burst_keyword
                0x00000000006b14b0                cmd_config_burst_port
                0x00000000006b14d0                cmd_config_dcb
                0x00000000006b1540                cmd_config_dcb_pfc_en
                0x00000000006b1560                cmd_config_dcb_pfc
                0x00000000006b1580                cmd_config_dcb_num_tcs
                0x00000000006b15a0                cmd_config_dcb_vt_en
                0x00000000006b15c0                cmd_config_dcb_vt
                0x00000000006b15e0                cmd_config_dcb_dcb
                0x00000000006b1600                cmd_config_dcb_port_id
                0x00000000006b1620                cmd_config_dcb_config
                0x00000000006b1640                cmd_config_dcb_port
                0x00000000006b1660                cmd_showport_reta
                0x00000000006b16c0                cmd_showport_reta_mask_hi
                0x00000000006b16e0                cmd_showport_reta_mask_lo
                0x00000000006b1700                cmd_showport_reta_reta
                0x00000000006b1720                cmd_showport_reta_rss
                0x00000000006b1740                cmd_showport_reta_port_id
                0x00000000006b1760                cmd_showport_reta_port
                0x00000000006b1780                cmd_showport_reta_show
                0x00000000006b17a0                cmd_config_rss_reta
                0x00000000006b17f0                cmd_config_rss_reta_list_of_items
                0x00000000006b1810                cmd_config_rss_reta_list_name
                0x00000000006b1830                cmd_config_rss_reta_name
                0x00000000006b1850                cmd_config_rss_reta_port_id
                0x00000000006b1870                cmd_config_rss_reta_keyword
                0x00000000006b1890                cmd_config_rss_reta_port
                0x00000000006b18b0                cmd_config_rss
                0x00000000006b1900                cmd_config_rss_value
                0x00000000006b1920                cmd_config_rss_name
                0x00000000006b1940                cmd_config_rss_all
                0x00000000006b1960                cmd_config_rss_keyword
                0x00000000006b1980                cmd_config_rss_port
                0x00000000006b19a0                cmd_config_rx_mode_flag
                0x00000000006b19f0                cmd_config_rx_mode_flag_value
                0x00000000006b1a10                cmd_config_rx_mode_flag_name
                0x00000000006b1a30                cmd_config_rx_mode_flag_all
                0x00000000006b1a50                cmd_config_rx_mode_flag_keyword
                0x00000000006b1a70                cmd_config_rx_mode_flag_port
                0x00000000006b1a90                cmd_config_max_pkt_len
                0x00000000006b1ae0                cmd_config_max_pkt_len_value
                0x00000000006b1b00                cmd_config_max_pkt_len_name
                0x00000000006b1b20                cmd_config_max_pkt_len_all
                0x00000000006b1b40                cmd_config_max_pkt_len_keyword
                0x00000000006b1b60                cmd_config_max_pkt_len_port
                0x00000000006b1b80                cmd_config_rx_tx
                0x00000000006b1bd0                cmd_config_rx_tx_value
                0x00000000006b1bf0                cmd_config_rx_tx_name
                0x00000000006b1c10                cmd_config_rx_tx_all
                0x00000000006b1c30                cmd_config_rx_tx_keyword
                0x00000000006b1c50                cmd_config_rx_tx_port
                0x00000000006b1c70                cmd_config_speed_specific
                0x00000000006b1cd0                cmd_config_speed_specific_value2
                0x00000000006b1cf0                cmd_config_speed_specific_item2
                0x00000000006b1d10                cmd_config_speed_specific_value1
                0x00000000006b1d30                cmd_config_speed_specific_item1
                0x00000000006b1d50                cmd_config_speed_specific_id
                0x00000000006b1d70                cmd_config_speed_specific_keyword
                0x00000000006b1d90                cmd_config_speed_specific_port
                0x00000000006b1db0                cmd_config_speed_all
                0x00000000006b1e10                cmd_config_speed_all_value2
                0x00000000006b1e30                cmd_config_speed_all_item2
                0x00000000006b1e50                cmd_config_speed_all_value1
                0x00000000006b1e70                cmd_config_speed_all_item1
                0x00000000006b1e90                cmd_config_speed_all_all
                0x00000000006b1eb0                cmd_config_speed_all_keyword
                0x00000000006b1ed0                cmd_config_speed_all_port
                0x00000000006b1ef0                cmd_operate_specific_port
                0x00000000006b1f30                cmd_operate_specific_port_id
                0x00000000006b1f50                cmd_operate_specific_port_port
                0x00000000006b1f70                cmd_operate_specific_port_cmd
                0x00000000006b1f90                cmd_operate_port
                0x00000000006b1fd0                cmd_operate_port_all_all
                0x00000000006b1ff0                cmd_operate_port_all_port
                0x00000000006b2010                cmd_operate_port_all_cmd
                0x00000000006b2030                cmd_help_long
                0x00000000006b2060                cmd_help_long_section
                0x00000000006b2080                cmd_help_long_help
                0x00000000006b20a0                cmd_help_brief
                0x00000000006b20d0                cmd_help_brief_help
 .data          0x00000000006b20e8        0x0 config.o
 .data          0x00000000006b20e8        0x0 iofwd.o
 *fill*         0x00000000006b20e8       0x18 00
 .data.rel.local
                0x00000000006b2100       0x20 iofwd.o
                0x00000000006b2100                io_fwd_engine
 .data          0x00000000006b2120        0x0 macfwd.o
 .data.rel.local
                0x00000000006b2120       0x20 macfwd.o
                0x00000000006b2120                mac_fwd_engine
 .data          0x00000000006b2140        0x8 macfwd-retry.o
                0x00000000006b2140                burst_tx_retry_num
                0x00000000006b2144                burst_tx_delay_time
 *fill*         0x00000000006b2148       0x18 00
 .data.rel.local
                0x00000000006b2160       0x20 macfwd-retry.o
                0x00000000006b2160                mac_retry_fwd_engine
 .data          0x00000000006b2180        0x0 rxonly.o
 .data.rel.local
                0x00000000006b2180       0x20 rxonly.o
                0x00000000006b2180                rx_only_engine
 .data          0x00000000006b21a0        0x0 txonly.o
 .data.rel.local
                0x00000000006b21a0       0x20 txonly.o
                0x00000000006b21a0                tx_only_engine
 .data          0x00000000006b21c0        0x0 csumonly.o
 .data.rel.local
                0x00000000006b21c0       0x20 csumonly.o
                0x00000000006b21c0                csum_fwd_engine
 .data          0x00000000006b21e0        0x0 mempool_anon.o
 .data          0x00000000006b21e0      0x148 /home/born/DPDK-OVS/DPDK-1.6.0/build/lib/librte_pmd_e1000.a(igb_ethdev.o)
 *fill*         0x00000000006b2328       0x18 00
 .data.rel.local
                0x00000000006b2340       0x80 /home/born/DPDK-OVS/DPDK-1.6.0/build/lib/librte_pmd_e1000.a(igb_ethdev.o)
 .data.rel      0x00000000006b23c0      0x2f8 /home/born/DPDK-OVS/DPDK-1.6.0/build/lib/librte_pmd_e1000.a(igb_ethdev.o)
 *fill*         0x00000000006b26b8        0x8 00
 .data          0x00000000006b26c0       0x28 /home/born/DPDK-OVS/DPDK-1.6.0/build/lib/librte_pmd_e1000.a(igb_rxtx.o)
 .data          0x00000000006b26e8        0x0 /home/born/DPDK-OVS/DPDK-1.6.0/build/lib/librte_pmd_e1000.a(igb_pf.o)
 *fill*         0x00000000006b26e8       0x18 00
 .data          0x00000000006b2700       0xa0 /home/born/DPDK-OVS/DPDK-1.6.0/build/lib/librte_pmd_e1000.a(em_ethdev.o)
 .data.rel.local
                0x00000000006b27a0       0x40 /home/born/DPDK-OVS/DPDK-1.6.0/build/lib/librte_pmd_e1000.a(em_ethdev.o)
 .data.rel      0x00000000006b27e0      0x178 /home/born/DPDK-OVS/DPDK-1.6.0/build/lib/librte_pmd_e1000.a(em_ethdev.o)
 .data          0x00000000006b2958        0x0 /home/born/DPDK-OVS/DPDK-1.6.0/build/lib/librte_pmd_e1000.a(em_rxtx.o)
 .data          0x00000000006b2958        0x0 /home/born/DPDK-OVS/DPDK-1.6.0/build/lib/librte_pmd_e1000.a(e1000_82541.o)
 .data          0x00000000006b2958        0x0 /home/born/DPDK-OVS/DPDK-1.6.0/build/lib/librte_pmd_e1000.a(e1000_82543.o)
 .data          0x00000000006b2958        0x0 /home/born/DPDK-OVS/DPDK-1.6.0/build/lib/librte_pmd_e1000.a(e1000_82571.o)
 .data          0x00000000006b2958        0x0 /home/born/DPDK-OVS/DPDK-1.6.0/build/lib/librte_pmd_e1000.a(e1000_82575.o)
 .data          0x00000000006b2958        0x0 /home/born/DPDK-OVS/DPDK-1.6.0/build/lib/librte_pmd_e1000.a(e1000_i210.o)
 .data          0x00000000006b2958        0x0 /home/born/DPDK-OVS/DPDK-1.6.0/build/lib/librte_pmd_e1000.a(e1000_api.o)
 .data          0x00000000006b2958        0x0 /home/born/DPDK-OVS/DPDK-1.6.0/build/lib/librte_pmd_e1000.a(e1000_ich8lan.o)
 .data          0x00000000006b2958        0x0 /home/born/DPDK-OVS/DPDK-1.6.0/build/lib/librte_pmd_e1000.a(e1000_mac.o)
 .data          0x00000000006b2958        0x0 /home/born/DPDK-OVS/DPDK-1.6.0/build/lib/librte_pmd_e1000.a(e1000_manage.o)
 .data          0x00000000006b2958        0x0 /home/born/DPDK-OVS/DPDK-1.6.0/build/lib/librte_pmd_e1000.a(e1000_mbx.o)
 .data          0x00000000006b2958        0x0 /home/born/DPDK-OVS/DPDK-1.6.0/build/lib/librte_pmd_e1000.a(e1000_nvm.o)
 .data          0x00000000006b2958        0x0 /home/born/DPDK-OVS/DPDK-1.6.0/build/lib/librte_pmd_e1000.a(e1000_osdep.o)
 .data          0x00000000006b2958        0x0 /home/born/DPDK-OVS/DPDK-1.6.0/build/lib/librte_pmd_e1000.a(e1000_phy.o)
 .data          0x00000000006b2958        0x0 /home/born/DPDK-OVS/DPDK-1.6.0/build/lib/librte_pmd_e1000.a(e1000_vf.o)
 .data          0x00000000006b2958        0x0 /home/born/DPDK-OVS/DPDK-1.6.0/build/lib/librte_pmd_e1000.a(e1000_80003es2lan.o)
 .data          0x00000000006b2958        0x0 /home/born/DPDK-OVS/DPDK-1.6.0/build/lib/librte_pmd_e1000.a(e1000_82540.o)
 .data          0x00000000006b2958        0x0 /home/born/DPDK-OVS/DPDK-1.6.0/build/lib/librte_pmd_e1000.a(e1000_82542.o)
 *fill*         0x00000000006b2958        0x8 00
 .data          0x00000000006b2960      0x148 /home/born/DPDK-OVS/DPDK-1.6.0/build/lib/librte_pmd_ixgbe.a(ixgbe_ethdev.o)
 *fill*         0x00000000006b2aa8       0x18 00
 .data.rel.local
                0x00000000006b2ac0       0x80 /home/born/DPDK-OVS/DPDK-1.6.0/build/lib/librte_pmd_ixgbe.a(ixgbe_ethdev.o)
 .data.rel      0x00000000006b2b40      0x2f8 /home/born/DPDK-OVS/DPDK-1.6.0/build/lib/librte_pmd_ixgbe.a(ixgbe_ethdev.o)
 .data          0x00000000006b2e38        0x0 /home/born/DPDK-OVS/DPDK-1.6.0/build/lib/librte_pmd_ixgbe.a(ixgbe_fdir.o)
 .data          0x00000000006b2e38        0x0 /home/born/DPDK-OVS/DPDK-1.6.0/build/lib/librte_pmd_ixgbe.a(ixgbe_pf.o)
 .data          0x00000000006b2e38        0x0 /home/born/DPDK-OVS/DPDK-1.6.0/build/lib/librte_pmd_ixgbe.a(ixgbe_common.o)
 .data          0x00000000006b2e38        0x0 /home/born/DPDK-OVS/DPDK-1.6.0/build/lib/librte_pmd_ixgbe.a(ixgbe_82599.o)
 .data          0x00000000006b2e38        0x0 /home/born/DPDK-OVS/DPDK-1.6.0/build/lib/librte_pmd_ixgbe.a(ixgbe_phy.o)
 .data          0x00000000006b2e38        0x0 /home/born/DPDK-OVS/DPDK-1.6.0/build/lib/librte_pmd_ixgbe.a(ixgbe_api.o)
 .data          0x00000000006b2e38        0x0 /home/born/DPDK-OVS/DPDK-1.6.0/build/lib/librte_pmd_ixgbe.a(ixgbe_vf.o)
 .data          0x00000000006b2e38        0x0 /home/born/DPDK-OVS/DPDK-1.6.0/build/lib/librte_pmd_ixgbe.a(ixgbe_dcb.o)
 .data          0x00000000006b2e38        0x0 /home/born/DPDK-OVS/DPDK-1.6.0/build/lib/librte_pmd_ixgbe.a(ixgbe_dcb_82599.o)
 .data          0x00000000006b2e38        0x0 /home/born/DPDK-OVS/DPDK-1.6.0/build/lib/librte_pmd_ixgbe.a(ixgbe_dcb_82598.o)
 .data          0x00000000006b2e38        0x0 /home/born/DPDK-OVS/DPDK-1.6.0/build/lib/librte_pmd_ixgbe.a(ixgbe_mbx.o)
 *fill*         0x00000000006b2e38        0x8 00
 .data          0x00000000006b2e40       0x28 /home/born/DPDK-OVS/DPDK-1.6.0/build/lib/librte_pmd_ixgbe.a(ixgbe_rxtx.o)
 *fill*         0x00000000006b2e68        0x8 00
 .data.rel.local
                0x00000000006b2e70       0x18 /home/born/DPDK-OVS/DPDK-1.6.0/build/lib/librte_pmd_ixgbe.a(ixgbe_rxtx.o)
 .data          0x00000000006b2e88        0x0 /home/born/DPDK-OVS/DPDK-1.6.0/build/lib/librte_pmd_ixgbe.a(ixgbe_82598.o)
 .data          0x00000000006b2e88        0x0 /home/born/DPDK-OVS/DPDK-1.6.0/build/lib/librte_pmd_ixgbe.a(ixgbe_x540.o)
 *fill*         0x00000000006b2e88        0x8 00
 .data          0x00000000006b2e90       0x10 /home/born/DPDK-OVS/DPDK-1.6.0/build/lib/librte_pmd_virtio.a(virtio_ethdev.o)
 .data.rel.local
                0x00000000006b2ea0       0x40 /home/born/DPDK-OVS/DPDK-1.6.0/build/lib/librte_pmd_virtio.a(virtio_ethdev.o)
 .data.rel      0x00000000006b2ee0      0x178 /home/born/DPDK-OVS/DPDK-1.6.0/build/lib/librte_pmd_virtio.a(virtio_ethdev.o)
 .data          0x00000000006b3058        0x0 /home/born/DPDK-OVS/DPDK-1.6.0/build/lib/librte_pmd_virtio.a(virtqueue.o)
 .data          0x00000000006b3058        0x0 /home/born/DPDK-OVS/DPDK-1.6.0/build/lib/librte_pmd_virtio.a(virtio_pci.o)
 .data          0x00000000006b3058        0x0 /home/born/DPDK-OVS/DPDK-1.6.0/build/lib/librte_pmd_virtio.a(virtio_rxtx.o)
 *fill*         0x00000000006b3058        0x8 00
 .data          0x00000000006b3060       0x10 /home/born/DPDK-OVS/DPDK-1.6.0/build/lib/librte_pmd_vmxnet3.a(vmxnet3_ethdev.o)
 *fill*         0x00000000006b3070       0x10 00
 .data.rel.local
                0x00000000006b3080       0x40 /home/born/DPDK-OVS/DPDK-1.6.0/build/lib/librte_pmd_vmxnet3.a(vmxnet3_ethdev.o)
 .data.rel      0x00000000006b30c0      0x178 /home/born/DPDK-OVS/DPDK-1.6.0/build/lib/librte_pmd_vmxnet3.a(vmxnet3_ethdev.o)
 *fill*         0x00000000006b3238        0x8 00
 .data          0x00000000006b3240       0x28 /home/born/DPDK-OVS/DPDK-1.6.0/build/lib/librte_pmd_vmxnet3.a(vmxnet3_rxtx.o)
 .data          0x00000000006b3268        0x0 /home/born/DPDK-OVS/DPDK-1.6.0/build/lib/libethdev.a(rte_ethdev.o)
 .data          0x00000000006b3268        0x0 /home/born/DPDK-OVS/DPDK-1.6.0/build/lib/librte_malloc.a(rte_malloc.o)
 .data          0x00000000006b3268        0x0 /home/born/DPDK-OVS/DPDK-1.6.0/build/lib/librte_malloc.a(malloc_elem.o)
 .data          0x00000000006b3268        0x0 /home/born/DPDK-OVS/DPDK-1.6.0/build/lib/librte_malloc.a(malloc_heap.o)
 .data          0x00000000006b3268        0x0 /home/born/DPDK-OVS/DPDK-1.6.0/build/lib/librte_mempool.a(rte_mempool.o)
 .data          0x00000000006b3268        0x0 /home/born/DPDK-OVS/DPDK-1.6.0/build/lib/librte_ring.a(rte_ring.o)
 *fill*         0x00000000006b3268       0x18 00
 .data          0x00000000006b3280       0x40 /home/born/DPDK-OVS/DPDK-1.6.0/build/lib/librte_eal.a(eal.o)
 .data.rel.local
                0x00000000006b32c0      0x2e0 /home/born/DPDK-OVS/DPDK-1.6.0/build/lib/librte_eal.a(eal.o)
 .data          0x00000000006b35a0        0x0 /home/born/DPDK-OVS/DPDK-1.6.0/build/lib/librte_eal.a(eal_hugepage_info.o)
 .data          0x00000000006b35a0        0x0 /home/born/DPDK-OVS/DPDK-1.6.0/build/lib/librte_eal.a(eal_memory.o)
 .data          0x00000000006b35a0        0x0 /home/born/DPDK-OVS/DPDK-1.6.0/build/lib/librte_eal.a(eal_thread.o)
 .data          0x00000000006b35a0        0x0 /home/born/DPDK-OVS/DPDK-1.6.0/build/lib/librte_eal.a(eal_log.o)
 .data          0x00000000006b35a0        0x0 /home/born/DPDK-OVS/DPDK-1.6.0/build/lib/librte_eal.a(eal_pci.o)
 .data          0x00000000006b35a0        0x0 /home/born/DPDK-OVS/DPDK-1.6.0/build/lib/librte_eal.a(eal_debug.o)
 .data          0x00000000006b35a0        0x0 /home/born/DPDK-OVS/DPDK-1.6.0/build/lib/librte_eal.a(eal_lcore.o)
 .data          0x00000000006b35a0        0x4 /home/born/DPDK-OVS/DPDK-1.6.0/build/lib/librte_eal.a(eal_timer.o)
                0x00000000006b35a0                eal_timer_source
 .data          0x00000000006b35a4        0xc /home/born/DPDK-OVS/DPDK-1.6.0/build/lib/librte_eal.a(eal_interrupts.o)
 .data          0x00000000006b35b0        0x8 /home/born/DPDK-OVS/DPDK-1.6.0/build/lib/librte_eal.a(eal_alarm.o)
 .data          0x00000000006b35b8        0x0 /home/born/DPDK-OVS/DPDK-1.6.0/build/lib/librte_eal.a(eal_ivshmem.o)
 .data          0x00000000006b35b8        0x0 /home/born/DPDK-OVS/DPDK-1.6.0/build/lib/librte_eal.a(eal_common_memzone.o)
 *fill*         0x00000000006b35b8        0x8 00
 .data          0x00000000006b35c0       0x14 /home/born/DPDK-OVS/DPDK-1.6.0/build/lib/librte_eal.a(eal_common_log.o)
                0x00000000006b35c0                rte_logs
 .data          0x00000000006b35d4        0x0 /home/born/DPDK-OVS/DPDK-1.6.0/build/lib/librte_eal.a(eal_common_launch.o)
 .data          0x00000000006b35d4        0x0 /home/born/DPDK-OVS/DPDK-1.6.0/build/lib/librte_eal.a(eal_common_pci.o)
 .data          0x00000000006b35d4        0x0 /home/born/DPDK-OVS/DPDK-1.6.0/build/lib/librte_eal.a(eal_common_memory.o)
 .data          0x00000000006b35d4        0x0 /home/born/DPDK-OVS/DPDK-1.6.0/build/lib/librte_eal.a(eal_common_tailqs.o)
 *fill*         0x00000000006b35d4        0xc 00
 .data.rel.local
                0x00000000006b35e0      0x100 /home/born/DPDK-OVS/DPDK-1.6.0/build/lib/librte_eal.a(eal_common_tailqs.o)
                0x00000000006b35e0                rte_tailq_names
 .data          0x00000000006b36e0        0x0 /home/born/DPDK-OVS/DPDK-1.6.0/build/lib/librte_eal.a(eal_common_errno.o)
 .data          0x00000000006b36e0        0x0 /home/born/DPDK-OVS/DPDK-1.6.0/build/lib/librte_eal.a(eal_common_whitelist.o)
 .data          0x00000000006b36e0        0x0 /home/born/DPDK-OVS/DPDK-1.6.0/build/lib/librte_eal.a(eal_common_nonpci_devs.o)
 .data.rel      0x00000000006b36e0       0x20 /home/born/DPDK-OVS/DPDK-1.6.0/build/lib/librte_eal.a(eal_common_nonpci_devs.o)
                0x00000000006b36e0                dev_types
 .data          0x00000000006b3700        0x0 /home/born/DPDK-OVS/DPDK-1.6.0/build/lib/librte_cmdline.a(cmdline.o)
 .data          0x00000000006b3700        0x0 /home/born/DPDK-OVS/DPDK-1.6.0/build/lib/librte_cmdline.a(cmdline_parse.o)
 .data          0x00000000006b3700        0x0 /home/born/DPDK-OVS/DPDK-1.6.0/build/lib/librte_cmdline.a(cmdline_parse_etheraddr.o)
 .data.rel      0x00000000006b3700       0x20 /home/born/DPDK-OVS/DPDK-1.6.0/build/lib/librte_cmdline.a(cmdline_parse_etheraddr.o)
                0x00000000006b3700                cmdline_token_etheraddr_ops
 .data          0x00000000006b3720        0x0 /home/born/DPDK-OVS/DPDK-1.6.0/build/lib/librte_cmdline.a(cmdline_parse_ipaddr.o)
 .data.rel      0x00000000006b3720       0x20 /home/born/DPDK-OVS/DPDK-1.6.0/build/lib/librte_cmdline.a(cmdline_parse_ipaddr.o)
                0x00000000006b3720                cmdline_token_ipaddr_ops
 .data          0x00000000006b3740        0x0 /home/born/DPDK-OVS/DPDK-1.6.0/build/lib/librte_cmdline.a(cmdline_parse_num.o)
 .data.rel      0x00000000006b3740       0x20 /home/born/DPDK-OVS/DPDK-1.6.0/build/lib/librte_cmdline.a(cmdline_parse_num.o)
                0x00000000006b3740                cmdline_token_num_ops
 .data          0x00000000006b3760        0x0 /home/born/DPDK-OVS/DPDK-1.6.0/build/lib/librte_cmdline.a(cmdline_parse_string.o)
 .data.rel      0x00000000006b3760       0x20 /home/born/DPDK-OVS/DPDK-1.6.0/build/lib/librte_cmdline.a(cmdline_parse_string.o)
                0x00000000006b3760                cmdline_token_string_ops
 .data          0x00000000006b3780        0x0 /home/born/DPDK-OVS/DPDK-1.6.0/build/lib/librte_cmdline.a(cmdline_rdline.o)
 .data          0x00000000006b3780        0x0 /home/born/DPDK-OVS/DPDK-1.6.0/build/lib/librte_cmdline.a(cmdline_vt100.o)
 .data.rel.local
                0x00000000006b3780       0xd0 /home/born/DPDK-OVS/DPDK-1.6.0/build/lib/librte_cmdline.a(cmdline_vt100.o)
                0x00000000006b3780                cmdline_vt100_commands
 .data          0x00000000006b3850        0x0 /home/born/DPDK-OVS/DPDK-1.6.0/build/lib/librte_cmdline.a(cmdline_socket.o)
 .data          0x00000000006b3850        0x0 /home/born/DPDK-OVS/DPDK-1.6.0/build/lib/librte_cmdline.a(cmdline_cirbuf.o)
 .data          0x00000000006b3850        0x0 /home/born/DPDK-OVS/DPDK-1.6.0/build/lib/librte_pmd_ring.a(rte_eth_ring.o)
 *fill*         0x00000000006b3850       0x10 00
 .data.rel.local
                0x00000000006b3860      0x178 /home/born/DPDK-OVS/DPDK-1.6.0/build/lib/librte_pmd_ring.a(rte_eth_ring.o)
 .data          0x00000000006b39d8        0x0 /usr/lib/x86_64-linux-gnu/libc_nonshared.a(elf-init.oS)
 .data          0x00000000006b39d8        0x0 /usr/lib/gcc/x86_64-linux-gnu/4.6/crtend.o
 .data          0x00000000006b39d8        0x0 /usr/lib/gcc/x86_64-linux-gnu/4.6/../../../x86_64-linux-gnu/crtn.o

.data1
 *(.data1)
                0x00000000006b39d8                _edata = .
                0x00000000006b39d8                PROVIDE (edata, .)
                0x00000000006b39d8                __bss_start = .

.bss            0x00000000006b3a00    0x91bc0
 *(.dynbss)
 .dynbss        0x0000000000000000        0x0 /usr/lib/gcc/x86_64-linux-gnu/4.6/../../../x86_64-linux-gnu/crt1.o
 *(.bss .bss.* .gnu.linkonce.b.*)
 .bss           0x00000000006b3a00        0x0 /usr/lib/gcc/x86_64-linux-gnu/4.6/../../../x86_64-linux-gnu/crt1.o
 .bss           0x00000000006b3a00        0x0 /usr/lib/gcc/x86_64-linux-gnu/4.6/../../../x86_64-linux-gnu/crti.o
 .bss           0x00000000006b3a00       0x10 /usr/lib/gcc/x86_64-linux-gnu/4.6/crtbegin.o
 .bss           0x00000000006b3a10       0x82 testpmd.o
                0x00000000006b3a10                nb_rx_queue_stats_mappings
                0x00000000006b3a20                nb_tx_queue_stats_mappings
                0x00000000006b3a22                no_flush_rx
                0x00000000006b3a24                port_topology
                0x00000000006b3a28                txq_flags
                0x00000000006b3a2c                tx_rs_thresh
                0x00000000006b3a2e                tx_free_thresh
                0x00000000006b3a30                rx_drop_en
                0x00000000006b3a32                rx_free_thresh
                0x00000000006b3a34                dcb_q_mapping
                0x00000000006b3a40                dcb_test
                0x00000000006b3a50                dcb_config
                0x00000000006b3a60                param_total_num_mbufs
                0x00000000006b3a64                nb_peer_eth_addrs
                0x00000000006b3a65                mp_anon
                0x00000000006b3a70                numa_support
                0x00000000006b3a80                interactive
                0x00000000006b3a90                verbose_level
 *fill*         0x00000000006b3a92        0x2 00
 .bss           0x00000000006b3a94        0x0 parameters.o
 .bss           0x00000000006b3a94        0x0 cmdline.o
 .bss           0x00000000006b3a94        0x0 config.o
 .bss           0x00000000006b3a94        0x0 iofwd.o
 .bss           0x00000000006b3a94        0x0 macfwd.o
 .bss           0x00000000006b3a94        0x0 macfwd-retry.o
 .bss           0x00000000006b3a94        0x0 rxonly.o
 *fill*         0x00000000006b3a94        0xc 00
 .bss           0x00000000006b3aa0       0x1c txonly.o
 .bss           0x00000000006b3abc        0x0 csumonly.o
 .bss           0x00000000006b3abc        0x0 mempool_anon.o
 .bss           0x00000000006b3abc        0x0 /home/born/DPDK-OVS/DPDK-1.6.0/build/lib/librte_pmd_e1000.a(igb_ethdev.o)
 .bss           0x00000000006b3abc        0x0 /home/born/DPDK-OVS/DPDK-1.6.0/build/lib/librte_pmd_e1000.a(igb_rxtx.o)
 .bss           0x00000000006b3abc        0x0 /home/born/DPDK-OVS/DPDK-1.6.0/build/lib/librte_pmd_e1000.a(igb_pf.o)
 .bss           0x00000000006b3abc        0x0 /home/born/DPDK-OVS/DPDK-1.6.0/build/lib/librte_pmd_e1000.a(em_ethdev.o)
 .bss           0x00000000006b3abc        0x0 /home/born/DPDK-OVS/DPDK-1.6.0/build/lib/librte_pmd_e1000.a(em_rxtx.o)
 .bss           0x00000000006b3abc        0x0 /home/born/DPDK-OVS/DPDK-1.6.0/build/lib/librte_pmd_e1000.a(e1000_82541.o)
 .bss           0x00000000006b3abc        0x0 /home/born/DPDK-OVS/DPDK-1.6.0/build/lib/librte_pmd_e1000.a(e1000_82543.o)
 .bss           0x00000000006b3abc        0x0 /home/born/DPDK-OVS/DPDK-1.6.0/build/lib/librte_pmd_e1000.a(e1000_82571.o)
 .bss           0x00000000006b3abc        0x0 /home/born/DPDK-OVS/DPDK-1.6.0/build/lib/librte_pmd_e1000.a(e1000_82575.o)
 .bss           0x00000000006b3abc        0x0 /home/born/DPDK-OVS/DPDK-1.6.0/build/lib/librte_pmd_e1000.a(e1000_i210.o)
 .bss           0x00000000006b3abc        0x0 /home/born/DPDK-OVS/DPDK-1.6.0/build/lib/librte_pmd_e1000.a(e1000_api.o)
 .bss           0x00000000006b3abc        0x0 /home/born/DPDK-OVS/DPDK-1.6.0/build/lib/librte_pmd_e1000.a(e1000_ich8lan.o)
 .bss           0x00000000006b3abc        0x0 /home/born/DPDK-OVS/DPDK-1.6.0/build/lib/librte_pmd_e1000.a(e1000_mac.o)
 .bss           0x00000000006b3abc        0x0 /home/born/DPDK-OVS/DPDK-1.6.0/build/lib/librte_pmd_e1000.a(e1000_manage.o)
 .bss           0x00000000006b3abc        0x0 /home/born/DPDK-OVS/DPDK-1.6.0/build/lib/librte_pmd_e1000.a(e1000_mbx.o)
 .bss           0x00000000006b3abc        0x0 /home/born/DPDK-OVS/DPDK-1.6.0/build/lib/librte_pmd_e1000.a(e1000_nvm.o)
 .bss           0x00000000006b3abc        0x0 /home/born/DPDK-OVS/DPDK-1.6.0/build/lib/librte_pmd_e1000.a(e1000_osdep.o)
 .bss           0x00000000006b3abc        0x0 /home/born/DPDK-OVS/DPDK-1.6.0/build/lib/librte_pmd_e1000.a(e1000_phy.o)
 .bss           0x00000000006b3abc        0x0 /home/born/DPDK-OVS/DPDK-1.6.0/build/lib/librte_pmd_e1000.a(e1000_vf.o)
 .bss           0x00000000006b3abc        0x0 /home/born/DPDK-OVS/DPDK-1.6.0/build/lib/librte_pmd_e1000.a(e1000_80003es2lan.o)
 .bss           0x00000000006b3abc        0x0 /home/born/DPDK-OVS/DPDK-1.6.0/build/lib/librte_pmd_e1000.a(e1000_82540.o)
 .bss           0x00000000006b3abc        0x0 /home/born/DPDK-OVS/DPDK-1.6.0/build/lib/librte_pmd_e1000.a(e1000_82542.o)
 .bss           0x00000000006b3abc        0x0 /home/born/DPDK-OVS/DPDK-1.6.0/build/lib/librte_pmd_ixgbe.a(ixgbe_ethdev.o)
 .bss           0x00000000006b3abc        0x0 /home/born/DPDK-OVS/DPDK-1.6.0/build/lib/librte_pmd_ixgbe.a(ixgbe_fdir.o)
 .bss           0x00000000006b3abc        0x0 /home/born/DPDK-OVS/DPDK-1.6.0/build/lib/librte_pmd_ixgbe.a(ixgbe_pf.o)
 .bss           0x00000000006b3abc        0x0 /home/born/DPDK-OVS/DPDK-1.6.0/build/lib/librte_pmd_ixgbe.a(ixgbe_common.o)
 .bss           0x00000000006b3abc        0x0 /home/born/DPDK-OVS/DPDK-1.6.0/build/lib/librte_pmd_ixgbe.a(ixgbe_82599.o)
 .bss           0x00000000006b3abc        0x0 /home/born/DPDK-OVS/DPDK-1.6.0/build/lib/librte_pmd_ixgbe.a(ixgbe_phy.o)
 .bss           0x00000000006b3abc        0x0 /home/born/DPDK-OVS/DPDK-1.6.0/build/lib/librte_pmd_ixgbe.a(ixgbe_api.o)
 .bss           0x00000000006b3abc        0x0 /home/born/DPDK-OVS/DPDK-1.6.0/build/lib/librte_pmd_ixgbe.a(ixgbe_vf.o)
 .bss           0x00000000006b3abc        0x0 /home/born/DPDK-OVS/DPDK-1.6.0/build/lib/librte_pmd_ixgbe.a(ixgbe_dcb.o)
 .bss           0x00000000006b3abc        0x0 /home/born/DPDK-OVS/DPDK-1.6.0/build/lib/librte_pmd_ixgbe.a(ixgbe_dcb_82599.o)
 .bss           0x00000000006b3abc        0x0 /home/born/DPDK-OVS/DPDK-1.6.0/build/lib/librte_pmd_ixgbe.a(ixgbe_dcb_82598.o)
 .bss           0x00000000006b3abc        0x0 /home/born/DPDK-OVS/DPDK-1.6.0/build/lib/librte_pmd_ixgbe.a(ixgbe_mbx.o)
 .bss           0x00000000006b3abc        0x0 /home/born/DPDK-OVS/DPDK-1.6.0/build/lib/librte_pmd_ixgbe.a(ixgbe_rxtx.o)
 .bss           0x00000000006b3abc        0x0 /home/born/DPDK-OVS/DPDK-1.6.0/build/lib/librte_pmd_ixgbe.a(ixgbe_82598.o)
 .bss           0x00000000006b3abc        0x0 /home/born/DPDK-OVS/DPDK-1.6.0/build/lib/librte_pmd_ixgbe.a(ixgbe_x540.o)
 .bss           0x00000000006b3abc        0x0 /home/born/DPDK-OVS/DPDK-1.6.0/build/lib/librte_pmd_virtio.a(virtio_ethdev.o)
 .bss           0x00000000006b3abc        0x0 /home/born/DPDK-OVS/DPDK-1.6.0/build/lib/librte_pmd_virtio.a(virtqueue.o)
 .bss           0x00000000006b3abc        0x0 /home/born/DPDK-OVS/DPDK-1.6.0/build/lib/librte_pmd_virtio.a(virtio_pci.o)
 .bss           0x00000000006b3abc        0x0 /home/born/DPDK-OVS/DPDK-1.6.0/build/lib/librte_pmd_virtio.a(virtio_rxtx.o)
 .bss           0x00000000006b3abc        0x0 /home/born/DPDK-OVS/DPDK-1.6.0/build/lib/librte_pmd_vmxnet3.a(vmxnet3_ethdev.o)
 .bss           0x00000000006b3abc        0x0 /home/born/DPDK-OVS/DPDK-1.6.0/build/lib/librte_pmd_vmxnet3.a(vmxnet3_rxtx.o)
 *fill*         0x00000000006b3abc        0x4 00
 .bss           0x00000000006b3ac0       0x24 /home/born/DPDK-OVS/DPDK-1.6.0/build/lib/libethdev.a(rte_ethdev.o)
 .bss           0x00000000006b3ae4        0x0 /home/born/DPDK-OVS/DPDK-1.6.0/build/lib/librte_malloc.a(rte_malloc.o)
 .bss           0x00000000006b3ae4        0x0 /home/born/DPDK-OVS/DPDK-1.6.0/build/lib/librte_malloc.a(malloc_elem.o)
 .bss           0x00000000006b3ae4        0x0 /home/born/DPDK-OVS/DPDK-1.6.0/build/lib/librte_malloc.a(malloc_heap.o)
 .bss           0x00000000006b3ae4        0x0 /home/born/DPDK-OVS/DPDK-1.6.0/build/lib/librte_mempool.a(rte_mempool.o)
 .bss           0x00000000006b3ae4        0x0 /home/born/DPDK-OVS/DPDK-1.6.0/build/lib/librte_ring.a(rte_ring.o)
 *fill*         0x00000000006b3ae4       0x1c 00
 .bss           0x00000000006b3b00    0x3ca40 /home/born/DPDK-OVS/DPDK-1.6.0/build/lib/librte_eal.a(eal.o)
 .bss           0x00000000006f0540        0x8 /home/born/DPDK-OVS/DPDK-1.6.0/build/lib/librte_eal.a(eal_hugepage_info.o)
 *fill*         0x00000000006f0548       0x18 00
 .bss           0x00000000006f0560     0x1020 /home/born/DPDK-OVS/DPDK-1.6.0/build/lib/librte_eal.a(eal_memory.o)
 .bss           0x00000000006f1580        0x0 /home/born/DPDK-OVS/DPDK-1.6.0/build/lib/librte_eal.a(eal_thread.o)
 .bss           0x00000000006f1580        0x8 /home/born/DPDK-OVS/DPDK-1.6.0/build/lib/librte_eal.a(eal_log.o)
 *fill*         0x00000000006f1588        0x8 00
 .bss           0x00000000006f1590        0x8 /home/born/DPDK-OVS/DPDK-1.6.0/build/lib/librte_eal.a(eal_pci.o)
 .bss           0x00000000006f1598        0x0 /home/born/DPDK-OVS/DPDK-1.6.0/build/lib/librte_eal.a(eal_debug.o)
 .bss           0x00000000006f1598        0x0 /home/born/DPDK-OVS/DPDK-1.6.0/build/lib/librte_eal.a(eal_lcore.o)
 *fill*         0x00000000006f1598        0x8 00
 .bss           0x00000000006f15a0        0x8 /home/born/DPDK-OVS/DPDK-1.6.0/build/lib/librte_eal.a(eal_timer.o)
 *fill*         0x00000000006f15a8        0x8 00
 .bss           0x00000000006f15b0       0x30 /home/born/DPDK-OVS/DPDK-1.6.0/build/lib/librte_eal.a(eal_interrupts.o)
 .bss           0x00000000006f15e0       0x18 /home/born/DPDK-OVS/DPDK-1.6.0/build/lib/librte_eal.a(eal_alarm.o)
 *fill*         0x00000000006f15f8        0x8 00
 .bss           0x00000000006f1600       0x14 /home/born/DPDK-OVS/DPDK-1.6.0/build/lib/librte_eal.a(eal_ivshmem.o)
 *fill*         0x00000000006f1614        0xc 00
 .bss           0x00000000006f1620        0x8 /home/born/DPDK-OVS/DPDK-1.6.0/build/lib/librte_eal.a(eal_common_memzone.o)
 *fill*         0x00000000006f1628       0x18 00
 .bss           0x00000000006f1640     0x1044 /home/born/DPDK-OVS/DPDK-1.6.0/build/lib/librte_eal.a(eal_common_log.o)
 .bss           0x00000000006f2684        0x0 /home/born/DPDK-OVS/DPDK-1.6.0/build/lib/librte_eal.a(eal_common_launch.o)
 *fill*         0x00000000006f2684        0xc 00
 .bss           0x00000000006f2690       0x14 /home/born/DPDK-OVS/DPDK-1.6.0/build/lib/librte_eal.a(eal_common_pci.o)
 .bss           0x00000000006f26a4        0x0 /home/born/DPDK-OVS/DPDK-1.6.0/build/lib/librte_eal.a(eal_common_memory.o)
 .bss           0x00000000006f26a4        0x0 /home/born/DPDK-OVS/DPDK-1.6.0/build/lib/librte_eal.a(eal_common_tailqs.o)
 .bss           0x00000000006f26a4        0x0 /home/born/DPDK-OVS/DPDK-1.6.0/build/lib/librte_eal.a(eal_common_errno.o)
 *fill*         0x00000000006f26a4       0x1c 00
 .bss           0x00000000006f26c0     0x1226 /home/born/DPDK-OVS/DPDK-1.6.0/build/lib/librte_eal.a(eal_common_whitelist.o)
 *fill*         0x00000000006f38e6        0x2 00
 .bss           0x00000000006f38e8        0x0 /home/born/DPDK-OVS/DPDK-1.6.0/build/lib/librte_eal.a(eal_common_nonpci_devs.o)
 .bss           0x00000000006f38e8        0x0 /home/born/DPDK-OVS/DPDK-1.6.0/build/lib/librte_cmdline.a(cmdline.o)
 .bss           0x00000000006f38e8        0x0 /home/born/DPDK-OVS/DPDK-1.6.0/build/lib/librte_cmdline.a(cmdline_parse.o)
 *fill*         0x00000000006f38e8        0x8 00
 .bss           0x00000000006f38f0        0x6 /home/born/DPDK-OVS/DPDK-1.6.0/build/lib/librte_cmdline.a(cmdline_parse_etheraddr.o)
 *fill*         0x00000000006f38f6        0x2 00
 .bss           0x00000000006f38f8        0x0 /home/born/DPDK-OVS/DPDK-1.6.0/build/lib/librte_cmdline.a(cmdline_parse_ipaddr.o)
 .bss           0x00000000006f38f8        0x0 /home/born/DPDK-OVS/DPDK-1.6.0/build/lib/librte_cmdline.a(cmdline_parse_num.o)
 .bss           0x00000000006f38f8        0x0 /home/born/DPDK-OVS/DPDK-1.6.0/build/lib/librte_cmdline.a(cmdline_parse_string.o)
 .bss           0x00000000006f38f8        0x0 /home/born/DPDK-OVS/DPDK-1.6.0/build/lib/librte_cmdline.a(cmdline_rdline.o)
 .bss           0x00000000006f38f8        0x0 /home/born/DPDK-OVS/DPDK-1.6.0/build/lib/librte_cmdline.a(cmdline_vt100.o)
 .bss           0x00000000006f38f8        0x0 /home/born/DPDK-OVS/DPDK-1.6.0/build/lib/librte_cmdline.a(cmdline_socket.o)
 .bss           0x00000000006f38f8        0x0 /home/born/DPDK-OVS/DPDK-1.6.0/build/lib/librte_cmdline.a(cmdline_cirbuf.o)
 .bss           0x00000000006f38f8        0x6 /home/born/DPDK-OVS/DPDK-1.6.0/build/lib/librte_pmd_ring.a(rte_eth_ring.o)
 *fill*         0x00000000006f38fe        0x2 00
 .bss           0x00000000006f3900        0x0 /usr/lib/x86_64-linux-gnu/libc_nonshared.a(elf-init.oS)
 .bss           0x00000000006f3900        0x0 /usr/lib/gcc/x86_64-linux-gnu/4.6/crtend.o
 .bss           0x00000000006f3900        0x0 /usr/lib/gcc/x86_64-linux-gnu/4.6/../../../x86_64-linux-gnu/crtn.o
 *(COMMON)
 COMMON         0x00000000006f3900    0x50321 testpmd.o
                0x00000000006f3900                tx_queue_stats_mappings_array
                0x0000000000703900                nb_ports
                0x0000000000703920                fwd_ports_ids
                0x0000000000703940                nb_cfg_ports
                0x0000000000703960                fwd_lcores_cpuids
                0x0000000000703a60                rxring_numa
                0x0000000000703a80                nb_fwd_lcores
                0x0000000000703aa0                txring_numa
                0x0000000000703ac0                port_numa
                0x0000000000703ae0                ports
                0x0000000000703b00                rx_queue_stats_mappings_array
                0x0000000000743b00                nb_fwd_ports
                0x0000000000743b10                fwd_streams
                0x0000000000743b20                nb_fwd_streams
                0x0000000000743b30                cur_fwd_config
                0x0000000000743b40                peer_eth_addrs
                0x0000000000743c00                nb_lcores
                0x0000000000743c10                fwd_lcores
                0x0000000000743c20                nb_cfg_lcores
 *fill*         0x0000000000743c21       0x1f 00
 COMMON         0x0000000000743c40      0x800 /home/born/DPDK-OVS/DPDK-1.6.0/build/lib/libethdev.a(rte_ethdev.o)
                0x0000000000743c40                rte_eth_devices
 COMMON         0x0000000000744440     0x1160 /home/born/DPDK-OVS/DPDK-1.6.0/build/lib/librte_eal.a(eal.o)
                0x0000000000744440                rte_cycles_vmware_tsc_map
                0x0000000000744460                internal_config
                0x00000000007445a0                lcore_config
 COMMON         0x00000000007455a0       0x20 /home/born/DPDK-OVS/DPDK-1.6.0/build/lib/librte_eal.a(eal_common_pci.o)
                0x00000000007455a0                driver_list
                0x00000000007455b0                device_list
                0x00000000007455c0                . = ALIGN ((. != 0x0)?0x8:0x1)

.lbss
 *(.dynlbss)
 *(.lbss .lbss.* .gnu.linkonce.lb.*)
 *(LARGE_COMMON)
                0x00000000007455c0                . = ALIGN (0x8)

.lrodata
 *(.lrodata .lrodata.* .gnu.linkonce.lr.*)

.ldata          0x0000000000b455c0        0x0
 *(.ldata .ldata.* .gnu.linkonce.l.*)
                0x0000000000b455c0                . = ALIGN ((. != 0x0)?0x8:0x1)
                0x0000000000b455c0                . = ALIGN (0x8)
                0x0000000000b455c0                _end = .
                0x0000000000b455c0                PROVIDE (end, .)
                0x0000000000b455c0                . = DATA_SEGMENT_END (.)

.stab
 *(.stab)

.stabstr
 *(.stabstr)

.stab.excl
 *(.stab.excl)

.stab.exclstr
 *(.stab.exclstr)

.stab.index
 *(.stab.index)

.stab.indexstr
 *(.stab.indexstr)

.comment        0x0000000000000000      0x4f1
 *(.comment)
 .comment       0x0000000000000000       0x2a /usr/lib/gcc/x86_64-linux-gnu/4.6/crtbegin.o
                                         0x2b (size before relaxing)
 .comment       0x0000000000000000       0x2b testpmd.o
 .comment       0x0000000000000000       0x2b parameters.o
 .comment       0x0000000000000000       0x2b cmdline.o
 .comment       0x0000000000000000       0x2b config.o
 .comment       0x0000000000000000       0x2b iofwd.o
 .comment       0x0000000000000000       0x2b macfwd.o
 .comment       0x0000000000000000       0x2b macfwd-retry.o
 .comment       0x0000000000000000       0x2b rxonly.o
 .comment       0x0000000000000000       0x2b txonly.o
 .comment       0x0000000000000000       0x2b csumonly.o
 .comment       0x0000000000000000       0x2b mempool_anon.o
 .comment       0x0000000000000000       0x2b /home/born/DPDK-OVS/DPDK-1.6.0/build/lib/librte_pmd_e1000.a(igb_ethdev.o)
 .comment       0x0000000000000000       0x2b /home/born/DPDK-OVS/DPDK-1.6.0/build/lib/librte_pmd_e1000.a(igb_rxtx.o)
 .comment       0x0000000000000000       0x2b /home/born/DPDK-OVS/DPDK-1.6.0/build/lib/librte_pmd_e1000.a(igb_pf.o)
 .comment       0x0000000000000000       0x2b /home/born/DPDK-OVS/DPDK-1.6.0/build/lib/librte_pmd_e1000.a(em_ethdev.o)
 .comment       0x0000000000000000       0x2b /home/born/DPDK-OVS/DPDK-1.6.0/build/lib/librte_pmd_e1000.a(em_rxtx.o)
 .comment       0x0000000000000000       0x2b /home/born/DPDK-OVS/DPDK-1.6.0/build/lib/librte_pmd_e1000.a(e1000_82541.o)
 .comment       0x0000000000000000       0x2b /home/born/DPDK-OVS/DPDK-1.6.0/build/lib/librte_pmd_e1000.a(e1000_82543.o)
 .comment       0x0000000000000000       0x2b /home/born/DPDK-OVS/DPDK-1.6.0/build/lib/librte_pmd_e1000.a(e1000_82571.o)
 .comment       0x0000000000000000       0x2b /home/born/DPDK-OVS/DPDK-1.6.0/build/lib/librte_pmd_e1000.a(e1000_82575.o)
 .comment       0x0000000000000000       0x2b /home/born/DPDK-OVS/DPDK-1.6.0/build/lib/librte_pmd_e1000.a(e1000_i210.o)
 .comment       0x0000000000000000       0x2b /home/born/DPDK-OVS/DPDK-1.6.0/build/lib/librte_pmd_e1000.a(e1000_api.o)
 .comment       0x0000000000000000       0x2b /home/born/DPDK-OVS/DPDK-1.6.0/build/lib/librte_pmd_e1000.a(e1000_ich8lan.o)
 .comment       0x0000000000000000       0x2b /home/born/DPDK-OVS/DPDK-1.6.0/build/lib/librte_pmd_e1000.a(e1000_mac.o)
 .comment       0x0000000000000000       0x2b /home/born/DPDK-OVS/DPDK-1.6.0/build/lib/librte_pmd_e1000.a(e1000_manage.o)
 .comment       0x0000000000000000       0x2b /home/born/DPDK-OVS/DPDK-1.6.0/build/lib/librte_pmd_e1000.a(e1000_mbx.o)
 .comment       0x0000000000000000       0x2b /home/born/DPDK-OVS/DPDK-1.6.0/build/lib/librte_pmd_e1000.a(e1000_nvm.o)
 .comment       0x0000000000000000       0x2b /home/born/DPDK-OVS/DPDK-1.6.0/build/lib/librte_pmd_e1000.a(e1000_osdep.o)
 .comment       0x0000000000000000       0x2b /home/born/DPDK-OVS/DPDK-1.6.0/build/lib/librte_pmd_e1000.a(e1000_phy.o)
 .comment       0x0000000000000000       0x2b /home/born/DPDK-OVS/DPDK-1.6.0/build/lib/librte_pmd_e1000.a(e1000_vf.o)
 .comment       0x0000000000000000       0x2b /home/born/DPDK-OVS/DPDK-1.6.0/build/lib/librte_pmd_e1000.a(e1000_80003es2lan.o)
 .comment       0x0000000000000000       0x2b /home/born/DPDK-OVS/DPDK-1.6.0/build/lib/librte_pmd_e1000.a(e1000_82540.o)
 .comment       0x0000000000000000       0x2b /home/born/DPDK-OVS/DPDK-1.6.0/build/lib/librte_pmd_e1000.a(e1000_82542.o)
 .comment       0x000000000000002a      0x1af /home/born/DPDK-OVS/DPDK-1.6.0/build/lib/librte_pmd_ixgbe.a(ixgbe_ethdev.o)
                                        0x1da (size before relaxing)
 .comment       0x0000000000000000      0x1a0 /home/born/DPDK-OVS/DPDK-1.6.0/build/lib/librte_pmd_ixgbe.a(ixgbe_fdir.o)
 .comment       0x0000000000000000      0x164 /home/born/DPDK-OVS/DPDK-1.6.0/build/lib/librte_pmd_ixgbe.a(ixgbe_pf.o)
 .comment       0x00000000000001d9       0x7a /home/born/DPDK-OVS/DPDK-1.6.0/build/lib/librte_pmd_ixgbe.a(ixgbe_common.o)
                                        0x15d (size before relaxing)
 .comment       0x0000000000000253       0x7a /home/born/DPDK-OVS/DPDK-1.6.0/build/lib/librte_pmd_ixgbe.a(ixgbe_82599.o)
                                        0x198 (size before relaxing)
 .comment       0x00000000000002cd       0x3c /home/born/DPDK-OVS/DPDK-1.6.0/build/lib/librte_pmd_ixgbe.a(ixgbe_phy.o)
                                        0x15a (size before relaxing)
 .comment       0x0000000000000309       0x3c /home/born/DPDK-OVS/DPDK-1.6.0/build/lib/librte_pmd_ixgbe.a(ixgbe_api.o)
                                        0x11f (size before relaxing)
 .comment       0x0000000000000345       0x3a /home/born/DPDK-OVS/DPDK-1.6.0/build/lib/librte_pmd_ixgbe.a(ixgbe_vf.o)
                                        0x118 (size before relaxing)
 .comment       0x000000000000037f       0x3b /home/born/DPDK-OVS/DPDK-1.6.0/build/lib/librte_pmd_ixgbe.a(ixgbe_dcb.o)
                                        0x160 (size before relaxing)
 .comment       0x00000000000003ba       0x41 /home/born/DPDK-OVS/DPDK-1.6.0/build/lib/librte_pmd_ixgbe.a(ixgbe_dcb_82599.o)
                                        0x125 (size before relaxing)
 .comment       0x00000000000003fb       0x41 /home/born/DPDK-OVS/DPDK-1.6.0/build/lib/librte_pmd_ixgbe.a(ixgbe_dcb_82598.o)
                                        0x125 (size before relaxing)
 .comment       0x0000000000000000       0x68 /home/born/DPDK-OVS/DPDK-1.6.0/build/lib/librte_pmd_ixgbe.a(ixgbe_mbx.o)
 .comment       0x0000000000000000      0x1da /home/born/DPDK-OVS/DPDK-1.6.0/build/lib/librte_pmd_ixgbe.a(ixgbe_rxtx.o)
 .comment       0x000000000000043c       0x7a /home/born/DPDK-OVS/DPDK-1.6.0/build/lib/librte_pmd_ixgbe.a(ixgbe_82598.o)
                                        0x198 (size before relaxing)
 .comment       0x00000000000004b6       0x3b /home/born/DPDK-OVS/DPDK-1.6.0/build/lib/librte_pmd_ixgbe.a(ixgbe_x540.o)
                                        0x159 (size before relaxing)
 .comment       0x0000000000000000       0x2b /home/born/DPDK-OVS/DPDK-1.6.0/build/lib/librte_pmd_virtio.a(virtio_ethdev.o)
 .comment       0x0000000000000000       0x2b /home/born/DPDK-OVS/DPDK-1.6.0/build/lib/librte_pmd_virtio.a(virtqueue.o)
 .comment       0x0000000000000000       0x2b /home/born/DPDK-OVS/DPDK-1.6.0/build/lib/librte_pmd_virtio.a(virtio_pci.o)
 .comment       0x0000000000000000       0x2b /home/born/DPDK-OVS/DPDK-1.6.0/build/lib/librte_pmd_virtio.a(virtio_rxtx.o)
 .comment       0x0000000000000000       0x2b /home/born/DPDK-OVS/DPDK-1.6.0/build/lib/librte_pmd_vmxnet3.a(vmxnet3_ethdev.o)
 .comment       0x0000000000000000       0x2b /home/born/DPDK-OVS/DPDK-1.6.0/build/lib/librte_pmd_vmxnet3.a(vmxnet3_rxtx.o)
 .comment       0x0000000000000000       0x2b /home/born/DPDK-OVS/DPDK-1.6.0/build/lib/libethdev.a(rte_ethdev.o)
 .comment       0x0000000000000000       0x2b /home/born/DPDK-OVS/DPDK-1.6.0/build/lib/librte_malloc.a(rte_malloc.o)
 .comment       0x0000000000000000       0x2b /home/born/DPDK-OVS/DPDK-1.6.0/build/lib/librte_malloc.a(malloc_elem.o)
 .comment       0x0000000000000000       0x2b /home/born/DPDK-OVS/DPDK-1.6.0/build/lib/librte_malloc.a(malloc_heap.o)
 .comment       0x0000000000000000       0x2b /home/born/DPDK-OVS/DPDK-1.6.0/build/lib/librte_mempool.a(rte_mempool.o)
 .comment       0x0000000000000000       0x2b /home/born/DPDK-OVS/DPDK-1.6.0/build/lib/librte_ring.a(rte_ring.o)
 .comment       0x0000000000000000       0x2b /home/born/DPDK-OVS/DPDK-1.6.0/build/lib/librte_eal.a(eal.o)
 .comment       0x0000000000000000       0x2b /home/born/DPDK-OVS/DPDK-1.6.0/build/lib/librte_eal.a(eal_hugepage_info.o)
 .comment       0x0000000000000000       0x2b /home/born/DPDK-OVS/DPDK-1.6.0/build/lib/librte_eal.a(eal_memory.o)
 .comment       0x0000000000000000       0x2b /home/born/DPDK-OVS/DPDK-1.6.0/build/lib/librte_eal.a(eal_thread.o)
 .comment       0x0000000000000000       0x2b /home/born/DPDK-OVS/DPDK-1.6.0/build/lib/librte_eal.a(eal_log.o)
 .comment       0x0000000000000000       0x2b /home/born/DPDK-OVS/DPDK-1.6.0/build/lib/librte_eal.a(eal_pci.o)
 .comment       0x0000000000000000       0x2b /home/born/DPDK-OVS/DPDK-1.6.0/build/lib/librte_eal.a(eal_debug.o)
 .comment       0x0000000000000000       0x2b /home/born/DPDK-OVS/DPDK-1.6.0/build/lib/librte_eal.a(eal_lcore.o)
 .comment       0x0000000000000000       0x2b /home/born/DPDK-OVS/DPDK-1.6.0/build/lib/librte_eal.a(eal_timer.o)
 .comment       0x0000000000000000       0x2b /home/born/DPDK-OVS/DPDK-1.6.0/build/lib/librte_eal.a(eal_interrupts.o)
 .comment       0x0000000000000000       0x2b /home/born/DPDK-OVS/DPDK-1.6.0/build/lib/librte_eal.a(eal_alarm.o)
 .comment       0x0000000000000000       0x2b /home/born/DPDK-OVS/DPDK-1.6.0/build/lib/librte_eal.a(eal_ivshmem.o)
 .comment       0x0000000000000000       0x2b /home/born/DPDK-OVS/DPDK-1.6.0/build/lib/librte_eal.a(eal_common_memzone.o)
 .comment       0x0000000000000000       0x2b /home/born/DPDK-OVS/DPDK-1.6.0/build/lib/librte_eal.a(eal_common_log.o)
 .comment       0x0000000000000000       0x2b /home/born/DPDK-OVS/DPDK-1.6.0/build/lib/librte_eal.a(eal_common_launch.o)
 .comment       0x0000000000000000       0x2b /home/born/DPDK-OVS/DPDK-1.6.0/build/lib/librte_eal.a(eal_common_pci.o)
 .comment       0x0000000000000000       0x2b /home/born/DPDK-OVS/DPDK-1.6.0/build/lib/librte_eal.a(eal_common_memory.o)
 .comment       0x0000000000000000       0x2b /home/born/DPDK-OVS/DPDK-1.6.0/build/lib/librte_eal.a(eal_common_tailqs.o)
 .comment       0x0000000000000000       0x2b /home/born/DPDK-OVS/DPDK-1.6.0/build/lib/librte_eal.a(eal_common_errno.o)
 .comment       0x0000000000000000       0x2b /home/born/DPDK-OVS/DPDK-1.6.0/build/lib/librte_eal.a(eal_common_whitelist.o)
 .comment       0x0000000000000000       0x2b /home/born/DPDK-OVS/DPDK-1.6.0/build/lib/librte_eal.a(eal_common_nonpci_devs.o)
 .comment       0x0000000000000000       0x2b /home/born/DPDK-OVS/DPDK-1.6.0/build/lib/librte_cmdline.a(cmdline.o)
 .comment       0x0000000000000000       0x2b /home/born/DPDK-OVS/DPDK-1.6.0/build/lib/librte_cmdline.a(cmdline_parse.o)
 .comment       0x0000000000000000       0x2b /home/born/DPDK-OVS/DPDK-1.6.0/build/lib/librte_cmdline.a(cmdline_parse_etheraddr.o)
 .comment       0x0000000000000000       0x2b /home/born/DPDK-OVS/DPDK-1.6.0/build/lib/librte_cmdline.a(cmdline_parse_ipaddr.o)
 .comment       0x0000000000000000       0x2b /home/born/DPDK-OVS/DPDK-1.6.0/build/lib/librte_cmdline.a(cmdline_parse_num.o)
 .comment       0x0000000000000000       0x2b /home/born/DPDK-OVS/DPDK-1.6.0/build/lib/librte_cmdline.a(cmdline_parse_string.o)
 .comment       0x0000000000000000       0x2b /home/born/DPDK-OVS/DPDK-1.6.0/build/lib/librte_cmdline.a(cmdline_rdline.o)
 .comment       0x0000000000000000       0x2b /home/born/DPDK-OVS/DPDK-1.6.0/build/lib/librte_cmdline.a(cmdline_vt100.o)
 .comment       0x0000000000000000       0x2b /home/born/DPDK-OVS/DPDK-1.6.0/build/lib/librte_cmdline.a(cmdline_socket.o)
 .comment       0x0000000000000000       0x2b /home/born/DPDK-OVS/DPDK-1.6.0/build/lib/librte_cmdline.a(cmdline_cirbuf.o)
 .comment       0x0000000000000000       0x2b /home/born/DPDK-OVS/DPDK-1.6.0/build/lib/librte_pmd_ring.a(rte_eth_ring.o)
 .comment       0x0000000000000000       0x2b /usr/lib/x86_64-linux-gnu/libc_nonshared.a(elf-init.oS)
 .comment       0x0000000000000000       0x2b /usr/lib/gcc/x86_64-linux-gnu/4.6/crtend.o

.debug
 *(.debug)

.line
 *(.line)

.debug_srcinfo
 *(.debug_srcinfo)

.debug_sfnames
 *(.debug_sfnames)

.debug_aranges  0x0000000000000000       0x90
 *(.debug_aranges)
 .debug_aranges
                0x0000000000000000       0x30 /home/born/DPDK-OVS/DPDK-1.6.0/build/lib/librte_malloc.a(rte_malloc.o)
 .debug_aranges
                0x0000000000000030       0x30 /home/born/DPDK-OVS/DPDK-1.6.0/build/lib/librte_malloc.a(malloc_elem.o)
 .debug_aranges
                0x0000000000000060       0x30 /home/born/DPDK-OVS/DPDK-1.6.0/build/lib/librte_malloc.a(malloc_heap.o)

.debug_pubnames
 *(.debug_pubnames)

.debug_info     0x0000000000000000     0x252d
 *(.debug_info .gnu.linkonce.wi.*)
 .debug_info    0x0000000000000000      0xf90 /home/born/DPDK-OVS/DPDK-1.6.0/build/lib/librte_malloc.a(rte_malloc.o)
 .debug_info    0x0000000000000f90      0x888 /home/born/DPDK-OVS/DPDK-1.6.0/build/lib/librte_malloc.a(malloc_elem.o)
 .debug_info    0x0000000000001818      0xd15 /home/born/DPDK-OVS/DPDK-1.6.0/build/lib/librte_malloc.a(malloc_heap.o)

.debug_abbrev   0x0000000000000000      0x61e
 *(.debug_abbrev)
 .debug_abbrev  0x0000000000000000      0x240 /home/born/DPDK-OVS/DPDK-1.6.0/build/lib/librte_malloc.a(rte_malloc.o)
 .debug_abbrev  0x0000000000000240      0x197 /home/born/DPDK-OVS/DPDK-1.6.0/build/lib/librte_malloc.a(malloc_elem.o)
 .debug_abbrev  0x00000000000003d7      0x247 /home/born/DPDK-OVS/DPDK-1.6.0/build/lib/librte_malloc.a(malloc_heap.o)

.debug_line     0x0000000000000000      0xaa6
 *(.debug_line)
 .debug_line    0x0000000000000000      0x3e6 /home/born/DPDK-OVS/DPDK-1.6.0/build/lib/librte_malloc.a(rte_malloc.o)
 .debug_line    0x00000000000003e6      0x2c8 /home/born/DPDK-OVS/DPDK-1.6.0/build/lib/librte_malloc.a(malloc_elem.o)
 .debug_line    0x00000000000006ae      0x3f8 /home/born/DPDK-OVS/DPDK-1.6.0/build/lib/librte_malloc.a(malloc_heap.o)

.debug_frame
 *(.debug_frame)

.debug_str      0x0000000000000000      0xa43
 *(.debug_str)
 .debug_str     0x0000000000000000      0x610 /home/born/DPDK-OVS/DPDK-1.6.0/build/lib/librte_malloc.a(rte_malloc.o)
                                        0x6ed (size before relaxing)
 .debug_str     0x0000000000000610      0x1c2 /home/born/DPDK-OVS/DPDK-1.6.0/build/lib/librte_malloc.a(malloc_elem.o)
                                        0x4d4 (size before relaxing)
 .debug_str     0x00000000000007d2      0x271 /home/born/DPDK-OVS/DPDK-1.6.0/build/lib/librte_malloc.a(malloc_heap.o)
                                        0x77c (size before relaxing)

.debug_loc      0x0000000000000000     0x14a0
 *(.debug_loc)
 .debug_loc     0x0000000000000000      0x900 /home/born/DPDK-OVS/DPDK-1.6.0/build/lib/librte_malloc.a(rte_malloc.o)
 .debug_loc     0x0000000000000900      0x600 /home/born/DPDK-OVS/DPDK-1.6.0/build/lib/librte_malloc.a(malloc_elem.o)
 .debug_loc     0x0000000000000f00      0x5a0 /home/born/DPDK-OVS/DPDK-1.6.0/build/lib/librte_malloc.a(malloc_heap.o)

.debug_macinfo
 *(.debug_macinfo)

.debug_weaknames
 *(.debug_weaknames)

.debug_funcnames
 *(.debug_funcnames)

.debug_typenames
 *(.debug_typenames)

.debug_varnames
 *(.debug_varnames)

.debug_pubtypes
 *(.debug_pubtypes)

.debug_ranges
 *(.debug_ranges)

.gnu.attributes
 *(.gnu.attributes)

/DISCARD/
 *(.note.GNU-stack)
 *(.gnu_debuglink)
 *(.gnu.lto_*)
OUTPUT(testpmd elf64-x86-64)

Cross Reference Table

Symbol                                            File
GLIBC_2.10                                        /lib/x86_64-linux-gnu/libc.so.6
GLIBC_2.11                                        /lib/x86_64-linux-gnu/libpthread.so.0
                                                  /lib/x86_64-linux-gnu/libc.so.6
GLIBC_2.12                                        /lib/x86_64-linux-gnu/libpthread.so.0
                                                  /lib/x86_64-linux-gnu/libc.so.6
GLIBC_2.13                                        /lib/x86_64-linux-gnu/libc.so.6
GLIBC_2.14                                        /lib/x86_64-linux-gnu/libc.so.6
GLIBC_2.15                                        /lib/x86_64-linux-gnu/libc.so.6
GLIBC_2.2.5                                       /usr/lib/gcc/x86_64-linux-gnu/4.6/../../../x86_64-linux-gnu/librt.so
                                                  /lib/x86_64-linux-gnu/ld-linux-x86-64.so.2
                                                  /lib/x86_64-linux-gnu/libc.so.6
                                                  /lib/x86_64-linux-gnu/libpthread.so.0
GLIBC_2.2.6                                       /lib/x86_64-linux-gnu/libpthread.so.0
                                                  /lib/x86_64-linux-gnu/libc.so.6
GLIBC_2.3                                         /lib/x86_64-linux-gnu/libc.so.6
                                                  /lib/x86_64-linux-gnu/ld-linux-x86-64.so.2
GLIBC_2.3.2                                       /lib/x86_64-linux-gnu/libpthread.so.0
                                                  /lib/x86_64-linux-gnu/libc.so.6
GLIBC_2.3.3                                       /usr/lib/gcc/x86_64-linux-gnu/4.6/../../../x86_64-linux-gnu/librt.so
                                                  /lib/x86_64-linux-gnu/libc.so.6
                                                  /lib/x86_64-linux-gnu/libpthread.so.0
GLIBC_2.3.4                                       /usr/lib/gcc/x86_64-linux-gnu/4.6/../../../x86_64-linux-gnu/librt.so
                                                  /lib/x86_64-linux-gnu/libc.so.6
                                                  /lib/x86_64-linux-gnu/libpthread.so.0
GLIBC_2.4                                         /usr/lib/gcc/x86_64-linux-gnu/4.6/../../../x86_64-linux-gnu/librt.so
                                                  /lib/x86_64-linux-gnu/ld-linux-x86-64.so.2
                                                  /lib/x86_64-linux-gnu/libc.so.6
                                                  /lib/x86_64-linux-gnu/libpthread.so.0
GLIBC_2.5                                         /lib/x86_64-linux-gnu/libc.so.6
GLIBC_2.6                                         /lib/x86_64-linux-gnu/libc.so.6
GLIBC_2.7                                         /usr/lib/gcc/x86_64-linux-gnu/4.6/../../../x86_64-linux-gnu/librt.so
                                                  /lib/x86_64-linux-gnu/libc.so.6
GLIBC_2.8                                         /lib/x86_64-linux-gnu/libc.so.6
GLIBC_2.9                                         /lib/x86_64-linux-gnu/libc.so.6
GLIBC_PRIVATE                                     /lib/x86_64-linux-gnu/libpthread.so.0
                                                  /lib/x86_64-linux-gnu/ld-linux-x86-64.so.2
                                                  /lib/x86_64-linux-gnu/libc.so.6
_DYNAMIC                                          /usr/lib/gcc/x86_64-linux-gnu/4.6/../../../x86_64-linux-gnu/crt1.o
_Exit                                             /lib/x86_64-linux-gnu/libc.so.6
_Exit@@GLIBC_2.2.5                                /lib/x86_64-linux-gnu/libc.so.6
_Exit@GLIBC_2.2.5                                 /lib/x86_64-linux-gnu/libc.so.6
_GLOBAL_OFFSET_TABLE_                             /usr/lib/gcc/x86_64-linux-gnu/4.6/../../../x86_64-linux-gnu/crt1.o
                                                  /usr/lib/x86_64-linux-gnu/libc_nonshared.a(elf-init.oS)
                                                  /home/born/DPDK-OVS/DPDK-1.6.0/build/lib/librte_pmd_ring.a(rte_eth_ring.o)
                                                  /home/born/DPDK-OVS/DPDK-1.6.0/build/lib/librte_cmdline.a(cmdline_cirbuf.o)
                                                  /home/born/DPDK-OVS/DPDK-1.6.0/build/lib/librte_cmdline.a(cmdline_socket.o)
                                                  /home/born/DPDK-OVS/DPDK-1.6.0/build/lib/librte_cmdline.a(cmdline_vt100.o)
                                                  /home/born/DPDK-OVS/DPDK-1.6.0/build/lib/librte_cmdline.a(cmdline_rdline.o)
                                                  /home/born/DPDK-OVS/DPDK-1.6.0/build/lib/librte_cmdline.a(cmdline_parse_string.o)
                                                  /home/born/DPDK-OVS/DPDK-1.6.0/build/lib/librte_cmdline.a(cmdline_parse_num.o)
                                                  /home/born/DPDK-OVS/DPDK-1.6.0/build/lib/librte_cmdline.a(cmdline_parse_ipaddr.o)
                                                  /home/born/DPDK-OVS/DPDK-1.6.0/build/lib/librte_cmdline.a(cmdline_parse_etheraddr.o)
                                                  /home/born/DPDK-OVS/DPDK-1.6.0/build/lib/librte_cmdline.a(cmdline_parse.o)
                                                  /home/born/DPDK-OVS/DPDK-1.6.0/build/lib/librte_cmdline.a(cmdline.o)
                                                  /home/born/DPDK-OVS/DPDK-1.6.0/build/lib/librte_eal.a(eal_common_nonpci_devs.o)
                                                  /home/born/DPDK-OVS/DPDK-1.6.0/build/lib/librte_eal.a(eal_common_whitelist.o)
                                                  /home/born/DPDK-OVS/DPDK-1.6.0/build/lib/librte_eal.a(eal_common_errno.o)
                                                  /home/born/DPDK-OVS/DPDK-1.6.0/build/lib/librte_eal.a(eal_common_tailqs.o)
                                                  /home/born/DPDK-OVS/DPDK-1.6.0/build/lib/librte_eal.a(eal_common_memory.o)
                                                  /home/born/DPDK-OVS/DPDK-1.6.0/build/lib/librte_eal.a(eal_common_pci.o)
                                                  /home/born/DPDK-OVS/DPDK-1.6.0/build/lib/librte_eal.a(eal_common_launch.o)
                                                  /home/born/DPDK-OVS/DPDK-1.6.0/build/lib/librte_eal.a(eal_common_log.o)
                                                  /home/born/DPDK-OVS/DPDK-1.6.0/build/lib/librte_eal.a(eal_common_memzone.o)
                                                  /home/born/DPDK-OVS/DPDK-1.6.0/build/lib/librte_eal.a(eal_ivshmem.o)
                                                  /home/born/DPDK-OVS/DPDK-1.6.0/build/lib/librte_eal.a(eal_alarm.o)
                                                  /home/born/DPDK-OVS/DPDK-1.6.0/build/lib/librte_eal.a(eal_interrupts.o)
                                                  /home/born/DPDK-OVS/DPDK-1.6.0/build/lib/librte_eal.a(eal_timer.o)
                                                  /home/born/DPDK-OVS/DPDK-1.6.0/build/lib/librte_eal.a(eal_lcore.o)
                                                  /home/born/DPDK-OVS/DPDK-1.6.0/build/lib/librte_eal.a(eal_debug.o)
                                                  /home/born/DPDK-OVS/DPDK-1.6.0/build/lib/librte_eal.a(eal_pci.o)
                                                  /home/born/DPDK-OVS/DPDK-1.6.0/build/lib/librte_eal.a(eal_log.o)
                                                  /home/born/DPDK-OVS/DPDK-1.6.0/build/lib/librte_eal.a(eal_thread.o)
                                                  /home/born/DPDK-OVS/DPDK-1.6.0/build/lib/librte_eal.a(eal_memory.o)
                                                  /home/born/DPDK-OVS/DPDK-1.6.0/build/lib/librte_eal.a(eal_hugepage_info.o)
                                                  /home/born/DPDK-OVS/DPDK-1.6.0/build/lib/librte_eal.a(eal.o)
                                                  /home/born/DPDK-OVS/DPDK-1.6.0/build/lib/librte_ring.a(rte_ring.o)
                                                  /home/born/DPDK-OVS/DPDK-1.6.0/build/lib/librte_mempool.a(rte_mempool.o)
                                                  /home/born/DPDK-OVS/DPDK-1.6.0/build/lib/librte_malloc.a(malloc_heap.o)
                                                  /home/born/DPDK-OVS/DPDK-1.6.0/build/lib/librte_malloc.a(malloc_elem.o)
                                                  /home/born/DPDK-OVS/DPDK-1.6.0/build/lib/librte_malloc.a(rte_malloc.o)
                                                  /home/born/DPDK-OVS/DPDK-1.6.0/build/lib/libethdev.a(rte_ethdev.o)
                                                  /home/born/DPDK-OVS/DPDK-1.6.0/build/lib/librte_pmd_vmxnet3.a(vmxnet3_rxtx.o)
                                                  /home/born/DPDK-OVS/DPDK-1.6.0/build/lib/librte_pmd_vmxnet3.a(vmxnet3_ethdev.o)
                                                  /home/born/DPDK-OVS/DPDK-1.6.0/build/lib/librte_pmd_virtio.a(virtio_rxtx.o)
                                                  /home/born/DPDK-OVS/DPDK-1.6.0/build/lib/librte_pmd_virtio.a(virtio_pci.o)
                                                  /home/born/DPDK-OVS/DPDK-1.6.0/build/lib/librte_pmd_virtio.a(virtio_ethdev.o)
                                                  /home/born/DPDK-OVS/DPDK-1.6.0/build/lib/librte_pmd_ixgbe.a(ixgbe_x540.o)
                                                  /home/born/DPDK-OVS/DPDK-1.6.0/build/lib/librte_pmd_ixgbe.a(ixgbe_82598.o)
                                                  /home/born/DPDK-OVS/DPDK-1.6.0/build/lib/librte_pmd_ixgbe.a(ixgbe_rxtx.o)
                                                  /home/born/DPDK-OVS/DPDK-1.6.0/build/lib/librte_pmd_ixgbe.a(ixgbe_mbx.o)
                                                  /home/born/DPDK-OVS/DPDK-1.6.0/build/lib/librte_pmd_ixgbe.a(ixgbe_dcb_82598.o)
                                                  /home/born/DPDK-OVS/DPDK-1.6.0/build/lib/librte_pmd_ixgbe.a(ixgbe_dcb_82599.o)
                                                  /home/born/DPDK-OVS/DPDK-1.6.0/build/lib/librte_pmd_ixgbe.a(ixgbe_dcb.o)
                                                  /home/born/DPDK-OVS/DPDK-1.6.0/build/lib/librte_pmd_ixgbe.a(ixgbe_vf.o)
                                                  /home/born/DPDK-OVS/DPDK-1.6.0/build/lib/librte_pmd_ixgbe.a(ixgbe_api.o)
                                                  /home/born/DPDK-OVS/DPDK-1.6.0/build/lib/librte_pmd_ixgbe.a(ixgbe_phy.o)
                                                  /home/born/DPDK-OVS/DPDK-1.6.0/build/lib/librte_pmd_ixgbe.a(ixgbe_82599.o)
                                                  /home/born/DPDK-OVS/DPDK-1.6.0/build/lib/librte_pmd_ixgbe.a(ixgbe_common.o)
                                                  /home/born/DPDK-OVS/DPDK-1.6.0/build/lib/librte_pmd_ixgbe.a(ixgbe_pf.o)
                                                  /home/born/DPDK-OVS/DPDK-1.6.0/build/lib/librte_pmd_ixgbe.a(ixgbe_fdir.o)
                                                  /home/born/DPDK-OVS/DPDK-1.6.0/build/lib/librte_pmd_ixgbe.a(ixgbe_ethdev.o)
                                                  /home/born/DPDK-OVS/DPDK-1.6.0/build/lib/librte_pmd_e1000.a(e1000_82542.o)
                                                  /home/born/DPDK-OVS/DPDK-1.6.0/build/lib/librte_pmd_e1000.a(e1000_82540.o)
                                                  /home/born/DPDK-OVS/DPDK-1.6.0/build/lib/librte_pmd_e1000.a(e1000_80003es2lan.o)
                                                  /home/born/DPDK-OVS/DPDK-1.6.0/build/lib/librte_pmd_e1000.a(e1000_vf.o)
                                                  /home/born/DPDK-OVS/DPDK-1.6.0/build/lib/librte_pmd_e1000.a(e1000_phy.o)
                                                  /home/born/DPDK-OVS/DPDK-1.6.0/build/lib/librte_pmd_e1000.a(e1000_nvm.o)
                                                  /home/born/DPDK-OVS/DPDK-1.6.0/build/lib/librte_pmd_e1000.a(e1000_mbx.o)
                                                  /home/born/DPDK-OVS/DPDK-1.6.0/build/lib/librte_pmd_e1000.a(e1000_manage.o)
                                                  /home/born/DPDK-OVS/DPDK-1.6.0/build/lib/librte_pmd_e1000.a(e1000_mac.o)
                                                  /home/born/DPDK-OVS/DPDK-1.6.0/build/lib/librte_pmd_e1000.a(e1000_ich8lan.o)
                                                  /home/born/DPDK-OVS/DPDK-1.6.0/build/lib/librte_pmd_e1000.a(e1000_api.o)
                                                  /home/born/DPDK-OVS/DPDK-1.6.0/build/lib/librte_pmd_e1000.a(e1000_i210.o)
                                                  /home/born/DPDK-OVS/DPDK-1.6.0/build/lib/librte_pmd_e1000.a(e1000_82575.o)
                                                  /home/born/DPDK-OVS/DPDK-1.6.0/build/lib/librte_pmd_e1000.a(e1000_82571.o)
                                                  /home/born/DPDK-OVS/DPDK-1.6.0/build/lib/librte_pmd_e1000.a(e1000_82543.o)
                                                  /home/born/DPDK-OVS/DPDK-1.6.0/build/lib/librte_pmd_e1000.a(e1000_82541.o)
                                                  /home/born/DPDK-OVS/DPDK-1.6.0/build/lib/librte_pmd_e1000.a(em_rxtx.o)
                                                  /home/born/DPDK-OVS/DPDK-1.6.0/build/lib/librte_pmd_e1000.a(em_ethdev.o)
                                                  /home/born/DPDK-OVS/DPDK-1.6.0/build/lib/librte_pmd_e1000.a(igb_pf.o)
                                                  /home/born/DPDK-OVS/DPDK-1.6.0/build/lib/librte_pmd_e1000.a(igb_rxtx.o)
                                                  /home/born/DPDK-OVS/DPDK-1.6.0/build/lib/librte_pmd_e1000.a(igb_ethdev.o)
                                                  mempool_anon.o
                                                  csumonly.o
                                                  txonly.o
                                                  rxonly.o
                                                  macfwd-retry.o
                                                  macfwd.o
                                                  iofwd.o
                                                  config.o
                                                  cmdline.o
                                                  parameters.o
                                                  testpmd.o
                                                  /usr/lib/gcc/x86_64-linux-gnu/4.6/../../../x86_64-linux-gnu/crti.o
_IO_fprintf                                       /lib/x86_64-linux-gnu/libc.so.6
_IO_fprintf@@GLIBC_2.2.5                          /lib/x86_64-linux-gnu/libc.so.6
_IO_fprintf@GLIBC_2.2.5                           /lib/x86_64-linux-gnu/libc.so.6
_IO_stdin_used                                    /usr/lib/gcc/x86_64-linux-gnu/4.6/../../../x86_64-linux-gnu/crt1.o
_Jv_RegisterClasses                               /lib/x86_64-linux-gnu/libpthread.so.0
                                                  /usr/lib/gcc/x86_64-linux-gnu/4.6/../../../x86_64-linux-gnu/librt.so
                                                  /usr/lib/gcc/x86_64-linux-gnu/4.6/crtbegin.o
__DTOR_END__                                      /usr/lib/gcc/x86_64-linux-gnu/4.6/crtend.o
                                                  /usr/lib/gcc/x86_64-linux-gnu/4.6/crtbegin.o
__after_morecore_hook                             /lib/x86_64-linux-gnu/libc.so.6
__after_morecore_hook@@GLIBC_2.2.5                /lib/x86_64-linux-gnu/libc.so.6
__after_morecore_hook@GLIBC_2.2.5                 /lib/x86_64-linux-gnu/libc.so.6
__close                                           /lib/x86_64-linux-gnu/libpthread.so.0
__close@@GLIBC_2.2.5                              /lib/x86_64-linux-gnu/libpthread.so.0
                                                  /lib/x86_64-linux-gnu/libc.so.6
__close@GLIBC_2.2.5                               /lib/x86_64-linux-gnu/libpthread.so.0
__connect                                         /lib/x86_64-linux-gnu/libpthread.so.0
__connect@@GLIBC_2.2.5                            /lib/x86_64-linux-gnu/libpthread.so.0
                                                  /lib/x86_64-linux-gnu/libc.so.6
__connect@GLIBC_2.2.5                             /lib/x86_64-linux-gnu/libpthread.so.0
__ctype_b_loc                                     /lib/x86_64-linux-gnu/libc.so.6
                                                  /home/born/DPDK-OVS/DPDK-1.6.0/build/lib/librte_cmdline.a(cmdline_rdline.o)
                                                  /home/born/DPDK-OVS/DPDK-1.6.0/build/lib/librte_eal.a(eal_hugepage_info.o)
                                                  /home/born/DPDK-OVS/DPDK-1.6.0/build/lib/librte_eal.a(eal.o)
                                                  /home/born/DPDK-OVS/DPDK-1.6.0/build/lib/librte_malloc.a(malloc_heap.o)
__ctype_b_loc@@GLIBC_2.3                          /lib/x86_64-linux-gnu/libc.so.6
__ctype_b_loc@GLIBC_2.3                           /lib/x86_64-linux-gnu/libc.so.6
__ctype_get_mb_cur_max                            /lib/x86_64-linux-gnu/libc.so.6
__ctype_get_mb_cur_max@@GLIBC_2.2.5               /lib/x86_64-linux-gnu/libc.so.6
__ctype_get_mb_cur_max@GLIBC_2.2.5                /lib/x86_64-linux-gnu/libc.so.6
__ctype_tolower_loc                               /lib/x86_64-linux-gnu/libc.so.6
                                                  /home/born/DPDK-OVS/DPDK-1.6.0/build/lib/librte_eal.a(eal_common_whitelist.o)
__ctype_tolower_loc@@GLIBC_2.3                    /lib/x86_64-linux-gnu/libc.so.6
__ctype_tolower_loc@GLIBC_2.3                     /lib/x86_64-linux-gnu/libc.so.6
__data_start                                      /usr/lib/gcc/x86_64-linux-gnu/4.6/../../../x86_64-linux-gnu/crt1.o
__dso_handle                                      /usr/lib/gcc/x86_64-linux-gnu/4.6/crtbegin.o
__errno_location                                  /lib/x86_64-linux-gnu/libpthread.so.0
                                                  /home/born/DPDK-OVS/DPDK-1.6.0/build/lib/librte_pmd_ring.a(rte_eth_ring.o)
                                                  /home/born/DPDK-OVS/DPDK-1.6.0/build/lib/librte_cmdline.a(cmdline_parse_string.o)
                                                  /home/born/DPDK-OVS/DPDK-1.6.0/build/lib/librte_cmdline.a(cmdline_parse_num.o)
                                                  /home/born/DPDK-OVS/DPDK-1.6.0/build/lib/librte_cmdline.a(cmdline_parse_ipaddr.o)
                                                  /home/born/DPDK-OVS/DPDK-1.6.0/build/lib/librte_cmdline.a(cmdline_parse_etheraddr.o)
                                                  /home/born/DPDK-OVS/DPDK-1.6.0/build/lib/librte_cmdline.a(cmdline_parse.o)
                                                  /home/born/DPDK-OVS/DPDK-1.6.0/build/lib/librte_cmdline.a(cmdline.o)
                                                  /home/born/DPDK-OVS/DPDK-1.6.0/build/lib/librte_eal.a(eal_common_nonpci_devs.o)
                                                  /home/born/DPDK-OVS/DPDK-1.6.0/build/lib/librte_eal.a(eal_common_whitelist.o)
                                                  /home/born/DPDK-OVS/DPDK-1.6.0/build/lib/librte_eal.a(eal_common_errno.o)
                                                  /home/born/DPDK-OVS/DPDK-1.6.0/build/lib/librte_eal.a(eal_common_pci.o)
                                                  /home/born/DPDK-OVS/DPDK-1.6.0/build/lib/librte_eal.a(eal_common_memzone.o)
                                                  /home/born/DPDK-OVS/DPDK-1.6.0/build/lib/librte_eal.a(eal_ivshmem.o)
                                                  /home/born/DPDK-OVS/DPDK-1.6.0/build/lib/librte_eal.a(eal_alarm.o)
                                                  /home/born/DPDK-OVS/DPDK-1.6.0/build/lib/librte_eal.a(eal_interrupts.o)
                                                  /home/born/DPDK-OVS/DPDK-1.6.0/build/lib/librte_eal.a(eal_lcore.o)
                                                  /home/born/DPDK-OVS/DPDK-1.6.0/build/lib/librte_eal.a(eal_pci.o)
                                                  /home/born/DPDK-OVS/DPDK-1.6.0/build/lib/librte_eal.a(eal_thread.o)
                                                  /home/born/DPDK-OVS/DPDK-1.6.0/build/lib/librte_eal.a(eal_memory.o)
                                                  /home/born/DPDK-OVS/DPDK-1.6.0/build/lib/librte_eal.a(eal_hugepage_info.o)
                                                  /home/born/DPDK-OVS/DPDK-1.6.0/build/lib/librte_eal.a(eal.o)
                                                  /home/born/DPDK-OVS/DPDK-1.6.0/build/lib/librte_ring.a(rte_ring.o)
                                                  /home/born/DPDK-OVS/DPDK-1.6.0/build/lib/librte_mempool.a(rte_mempool.o)
                                                  /home/born/DPDK-OVS/DPDK-1.6.0/build/lib/librte_malloc.a(malloc_heap.o)
                                                  /home/born/DPDK-OVS/DPDK-1.6.0/build/lib/librte_pmd_vmxnet3.a(vmxnet3_rxtx.o)
                                                  /home/born/DPDK-OVS/DPDK-1.6.0/build/lib/librte_pmd_vmxnet3.a(vmxnet3_ethdev.o)
                                                  /home/born/DPDK-OVS/DPDK-1.6.0/build/lib/librte_pmd_virtio.a(virtio_rxtx.o)
                                                  /home/born/DPDK-OVS/DPDK-1.6.0/build/lib/librte_pmd_virtio.a(virtio_ethdev.o)
                                                  /home/born/DPDK-OVS/DPDK-1.6.0/build/lib/librte_pmd_ixgbe.a(ixgbe_rxtx.o)
                                                  /home/born/DPDK-OVS/DPDK-1.6.0/build/lib/librte_pmd_e1000.a(em_rxtx.o)
                                                  /home/born/DPDK-OVS/DPDK-1.6.0/build/lib/librte_pmd_e1000.a(igb_rxtx.o)
                                                  mempool_anon.o
                                                  config.o
                                                  cmdline.o
                                                  parameters.o
                                                  testpmd.o
__errno_location@@GLIBC_2.2.5                     /lib/x86_64-linux-gnu/libpthread.so.0
                                                  /lib/x86_64-linux-gnu/libc.so.6
__errno_location@GLIBC_2.2.5                      /lib/x86_64-linux-gnu/libpthread.so.0
__fcntl                                           /lib/x86_64-linux-gnu/libpthread.so.0
__fcntl@@GLIBC_2.2.5                              /lib/x86_64-linux-gnu/libpthread.so.0
                                                  /lib/x86_64-linux-gnu/libc.so.6
__fcntl@GLIBC_2.2.5                               /lib/x86_64-linux-gnu/libpthread.so.0
__free_hook                                       /lib/x86_64-linux-gnu/libc.so.6
__free_hook@@GLIBC_2.2.5                          /lib/x86_64-linux-gnu/libc.so.6
__free_hook@GLIBC_2.2.5                           /lib/x86_64-linux-gnu/libc.so.6
__fxstat                                          /lib/x86_64-linux-gnu/libc.so.6
                                                  /home/born/DPDK-OVS/DPDK-1.6.0/build/lib/librte_eal.a(eal_memory.o)
__fxstat@@GLIBC_2.2.5                             /lib/x86_64-linux-gnu/libc.so.6
__fxstat@GLIBC_2.2.5                              /lib/x86_64-linux-gnu/libc.so.6
__getdelim                                        /lib/x86_64-linux-gnu/libc.so.6
__getdelim@@GLIBC_2.2.5                           /lib/x86_64-linux-gnu/libc.so.6
__getdelim@GLIBC_2.2.5                            /lib/x86_64-linux-gnu/libc.so.6
                                                  /lib/x86_64-linux-gnu/libpthread.so.0
__gmon_start__                                    /usr/lib/gcc/x86_64-linux-gnu/4.6/../../../x86_64-linux-gnu/librt.so
                                                  /usr/lib/gcc/x86_64-linux-gnu/4.6/../../../x86_64-linux-gnu/crti.o
__init_array_end                                  /usr/lib/x86_64-linux-gnu/libc_nonshared.a(elf-init.oS)
__init_array_start                                /usr/lib/x86_64-linux-gnu/libc_nonshared.a(elf-init.oS)
__isascii_l                                       /lib/x86_64-linux-gnu/libc.so.6
__isascii_l@@GLIBC_2.2.5                          /lib/x86_64-linux-gnu/libc.so.6
__isascii_l@GLIBC_2.2.5                           /lib/x86_64-linux-gnu/libc.so.6
__libc_csu_fini                                   /usr/lib/x86_64-linux-gnu/libc_nonshared.a(elf-init.oS)
                                                  /usr/lib/gcc/x86_64-linux-gnu/4.6/../../../x86_64-linux-gnu/crt1.o
__libc_csu_init                                   /usr/lib/x86_64-linux-gnu/libc_nonshared.a(elf-init.oS)
                                                  /usr/lib/gcc/x86_64-linux-gnu/4.6/../../../x86_64-linux-gnu/crt1.o
__libc_start_main                                 /lib/x86_64-linux-gnu/libc.so.6
                                                  /usr/lib/gcc/x86_64-linux-gnu/4.6/../../../x86_64-linux-gnu/crt1.o
__libc_start_main@@GLIBC_2.2.5                    /lib/x86_64-linux-gnu/libc.so.6
__libc_start_main@GLIBC_2.2.5                     /lib/x86_64-linux-gnu/libc.so.6
__lseek                                           /lib/x86_64-linux-gnu/libpthread.so.0
__lseek@@GLIBC_2.2.5                              /lib/x86_64-linux-gnu/libpthread.so.0
                                                  /lib/x86_64-linux-gnu/libc.so.6
__lseek@GLIBC_2.2.5                               /lib/x86_64-linux-gnu/libpthread.so.0
__malloc_hook                                     /lib/x86_64-linux-gnu/libc.so.6
__malloc_hook@@GLIBC_2.2.5                        /lib/x86_64-linux-gnu/libc.so.6
__malloc_hook@GLIBC_2.2.5                         /lib/x86_64-linux-gnu/libc.so.6
__malloc_initialize_hook                          /lib/x86_64-linux-gnu/libc.so.6
__malloc_initialize_hook@@GLIBC_2.2.5             /lib/x86_64-linux-gnu/libc.so.6
__malloc_initialize_hook@GLIBC_2.2.5              /lib/x86_64-linux-gnu/libc.so.6
__memalign_hook                                   /lib/x86_64-linux-gnu/libc.so.6
__memalign_hook@@GLIBC_2.2.5                      /lib/x86_64-linux-gnu/libc.so.6
__memalign_hook@GLIBC_2.2.5                       /lib/x86_64-linux-gnu/libc.so.6
__memcpy_chk                                      /lib/x86_64-linux-gnu/libc.so.6
                                                  /home/born/DPDK-OVS/DPDK-1.6.0/build/lib/librte_eal.a(eal_log.o)
__memcpy_chk@@GLIBC_2.3.4                         /lib/x86_64-linux-gnu/libc.so.6
__memcpy_chk@GLIBC_2.3.4                          /lib/x86_64-linux-gnu/libc.so.6
__nanosleep                                       /lib/x86_64-linux-gnu/libpthread.so.0
__nanosleep@@GLIBC_2.2.6                          /lib/x86_64-linux-gnu/libpthread.so.0
                                                  /lib/x86_64-linux-gnu/libc.so.6
__nanosleep@GLIBC_2.2.6                           /lib/x86_64-linux-gnu/libpthread.so.0
__open                                            /lib/x86_64-linux-gnu/libpthread.so.0
__open64                                          /lib/x86_64-linux-gnu/libpthread.so.0
__open64@@GLIBC_2.2.5                             /lib/x86_64-linux-gnu/libpthread.so.0
                                                  /lib/x86_64-linux-gnu/libc.so.6
__open64@GLIBC_2.2.5                              /lib/x86_64-linux-gnu/libpthread.so.0
__open@@GLIBC_2.2.5                               /lib/x86_64-linux-gnu/libpthread.so.0
                                                  /lib/x86_64-linux-gnu/libc.so.6
__open@GLIBC_2.2.5                                /lib/x86_64-linux-gnu/libpthread.so.0
__openat64_2                                      /lib/x86_64-linux-gnu/libc.so.6
__openat64_2@@GLIBC_2.7                           /lib/x86_64-linux-gnu/libc.so.6
__openat64_2@GLIBC_2.7                            /lib/x86_64-linux-gnu/libc.so.6
__pread64                                         /lib/x86_64-linux-gnu/libpthread.so.0
__pread64@@GLIBC_2.2.5                            /lib/x86_64-linux-gnu/libpthread.so.0
                                                  /lib/x86_64-linux-gnu/libc.so.6
__pread64@GLIBC_2.2.5                             /lib/x86_64-linux-gnu/libpthread.so.0
__printf_chk                                      /lib/x86_64-linux-gnu/libc.so.6
                                                  /home/born/DPDK-OVS/DPDK-1.6.0/build/lib/librte_eal.a(eal_common_tailqs.o)
                                                  /home/born/DPDK-OVS/DPDK-1.6.0/build/lib/librte_eal.a(eal_common_memory.o)
                                                  /home/born/DPDK-OVS/DPDK-1.6.0/build/lib/librte_eal.a(eal_common_pci.o)
                                                  /home/born/DPDK-OVS/DPDK-1.6.0/build/lib/librte_eal.a(eal_common_memzone.o)
                                                  /home/born/DPDK-OVS/DPDK-1.6.0/build/lib/librte_eal.a(eal_ivshmem.o)
                                                  /home/born/DPDK-OVS/DPDK-1.6.0/build/lib/librte_eal.a(eal.o)
                                                  /home/born/DPDK-OVS/DPDK-1.6.0/build/lib/librte_ring.a(rte_ring.o)
                                                  /home/born/DPDK-OVS/DPDK-1.6.0/build/lib/librte_mempool.a(rte_mempool.o)
                                                  csumonly.o
                                                  txonly.o
                                                  rxonly.o
                                                  config.o
                                                  cmdline.o
                                                  parameters.o
                                                  testpmd.o
__printf_chk@@GLIBC_2.3.4                         /lib/x86_64-linux-gnu/libc.so.6
__printf_chk@GLIBC_2.3.4                          /lib/x86_64-linux-gnu/libc.so.6
__pwrite64                                        /lib/x86_64-linux-gnu/libpthread.so.0
__pwrite64@@GLIBC_2.2.5                           /lib/x86_64-linux-gnu/libpthread.so.0
                                                  /lib/x86_64-linux-gnu/libc.so.6
__pwrite64@GLIBC_2.2.5                            /lib/x86_64-linux-gnu/libpthread.so.0
__read                                            /lib/x86_64-linux-gnu/libpthread.so.0
__read@@GLIBC_2.2.5                               /lib/x86_64-linux-gnu/libpthread.so.0
                                                  /lib/x86_64-linux-gnu/libc.so.6
__read@GLIBC_2.2.5                                /lib/x86_64-linux-gnu/libpthread.so.0
__read_chk                                        /lib/x86_64-linux-gnu/libc.so.6
                                                  /home/born/DPDK-OVS/DPDK-1.6.0/build/lib/librte_eal.a(eal_interrupts.o)
__read_chk@@GLIBC_2.4                             /lib/x86_64-linux-gnu/libc.so.6
__read_chk@GLIBC_2.4                              /lib/x86_64-linux-gnu/libc.so.6
__realloc_hook                                    /lib/x86_64-linux-gnu/libc.so.6
__realloc_hook@@GLIBC_2.2.5                       /lib/x86_64-linux-gnu/libc.so.6
__realloc_hook@GLIBC_2.2.5                        /lib/x86_64-linux-gnu/libc.so.6
__rte_panic                                       /home/born/DPDK-OVS/DPDK-1.6.0/build/lib/librte_eal.a(eal_debug.o)
                                                  /home/born/DPDK-OVS/DPDK-1.6.0/build/lib/librte_eal.a(eal_common_whitelist.o)
                                                  /home/born/DPDK-OVS/DPDK-1.6.0/build/lib/librte_eal.a(eal_interrupts.o)
                                                  /home/born/DPDK-OVS/DPDK-1.6.0/build/lib/librte_eal.a(eal_timer.o)
                                                  /home/born/DPDK-OVS/DPDK-1.6.0/build/lib/librte_eal.a(eal_lcore.o)
                                                  /home/born/DPDK-OVS/DPDK-1.6.0/build/lib/librte_eal.a(eal_thread.o)
                                                  /home/born/DPDK-OVS/DPDK-1.6.0/build/lib/librte_eal.a(eal_hugepage_info.o)
                                                  /home/born/DPDK-OVS/DPDK-1.6.0/build/lib/librte_eal.a(eal.o)
                                                  /home/born/DPDK-OVS/DPDK-1.6.0/build/lib/librte_mempool.a(rte_mempool.o)
                                                  /home/born/DPDK-OVS/DPDK-1.6.0/build/lib/librte_malloc.a(malloc_elem.o)
                                                  /home/born/DPDK-OVS/DPDK-1.6.0/build/lib/librte_malloc.a(rte_malloc.o)
                                                  /home/born/DPDK-OVS/DPDK-1.6.0/build/lib/libethdev.a(rte_ethdev.o)
                                                  /home/born/DPDK-OVS/DPDK-1.6.0/build/lib/librte_pmd_vmxnet3.a(vmxnet3_rxtx.o)
                                                  /home/born/DPDK-OVS/DPDK-1.6.0/build/lib/librte_pmd_ixgbe.a(ixgbe_dcb_82599.o)
                                                  /home/born/DPDK-OVS/DPDK-1.6.0/build/lib/librte_pmd_ixgbe.a(ixgbe_vf.o)
                                                  /home/born/DPDK-OVS/DPDK-1.6.0/build/lib/librte_pmd_ixgbe.a(ixgbe_common.o)
                                                  /home/born/DPDK-OVS/DPDK-1.6.0/build/lib/librte_pmd_ixgbe.a(ixgbe_pf.o)
                                                  /home/born/DPDK-OVS/DPDK-1.6.0/build/lib/librte_pmd_e1000.a(e1000_ich8lan.o)
                                                  /home/born/DPDK-OVS/DPDK-1.6.0/build/lib/librte_pmd_e1000.a(igb_pf.o)
                                                  mempool_anon.o
                                                  txonly.o
                                                  testpmd.o
__sched_cpualloc                                  /lib/x86_64-linux-gnu/libc.so.6
                                                  /home/born/DPDK-OVS/DPDK-1.6.0/build/lib/librte_eal.a(eal_thread.o)
__sched_cpualloc@@GLIBC_2.7                       /lib/x86_64-linux-gnu/libc.so.6
__sched_cpualloc@GLIBC_2.7                        /lib/x86_64-linux-gnu/libc.so.6
__sched_cpufree                                   /lib/x86_64-linux-gnu/libc.so.6
                                                  /home/born/DPDK-OVS/DPDK-1.6.0/build/lib/librte_eal.a(eal_thread.o)
__sched_cpufree@@GLIBC_2.7                        /lib/x86_64-linux-gnu/libc.so.6
__sched_cpufree@GLIBC_2.7                         /lib/x86_64-linux-gnu/libc.so.6
__send                                            /lib/x86_64-linux-gnu/libpthread.so.0
__send@@GLIBC_2.2.5                               /lib/x86_64-linux-gnu/libpthread.so.0
                                                  /lib/x86_64-linux-gnu/libc.so.6
__send@GLIBC_2.2.5                                /lib/x86_64-linux-gnu/libpthread.so.0
__stack_chk_fail                                  /lib/x86_64-linux-gnu/libc.so.6
                                                  /home/born/DPDK-OVS/DPDK-1.6.0/build/lib/librte_pmd_ring.a(rte_eth_ring.o)
                                                  /home/born/DPDK-OVS/DPDK-1.6.0/build/lib/librte_cmdline.a(cmdline_socket.o)
                                                  /home/born/DPDK-OVS/DPDK-1.6.0/build/lib/librte_cmdline.a(cmdline_rdline.o)
                                                  /home/born/DPDK-OVS/DPDK-1.6.0/build/lib/librte_cmdline.a(cmdline_parse_ipaddr.o)
                                                  /home/born/DPDK-OVS/DPDK-1.6.0/build/lib/librte_cmdline.a(cmdline_parse_etheraddr.o)
                                                  /home/born/DPDK-OVS/DPDK-1.6.0/build/lib/librte_cmdline.a(cmdline_parse.o)
                                                  /home/born/DPDK-OVS/DPDK-1.6.0/build/lib/librte_eal.a(eal_common_nonpci_devs.o)
                                                  /home/born/DPDK-OVS/DPDK-1.6.0/build/lib/librte_eal.a(eal_common_whitelist.o)
                                                  /home/born/DPDK-OVS/DPDK-1.6.0/build/lib/librte_eal.a(eal_common_pci.o)
                                                  /home/born/DPDK-OVS/DPDK-1.6.0/build/lib/librte_eal.a(eal_ivshmem.o)
                                                  /home/born/DPDK-OVS/DPDK-1.6.0/build/lib/librte_eal.a(eal_interrupts.o)
                                                  /home/born/DPDK-OVS/DPDK-1.6.0/build/lib/librte_eal.a(eal_lcore.o)
                                                  /home/born/DPDK-OVS/DPDK-1.6.0/build/lib/librte_eal.a(eal_pci.o)
                                                  /home/born/DPDK-OVS/DPDK-1.6.0/build/lib/librte_eal.a(eal_log.o)
                                                  /home/born/DPDK-OVS/DPDK-1.6.0/build/lib/librte_eal.a(eal_memory.o)
                                                  /home/born/DPDK-OVS/DPDK-1.6.0/build/lib/librte_eal.a(eal_hugepage_info.o)
                                                  /home/born/DPDK-OVS/DPDK-1.6.0/build/lib/librte_eal.a(eal.o)
                                                  /home/born/DPDK-OVS/DPDK-1.6.0/build/lib/librte_ring.a(rte_ring.o)
                                                  /home/born/DPDK-OVS/DPDK-1.6.0/build/lib/librte_mempool.a(rte_mempool.o)
                                                  /home/born/DPDK-OVS/DPDK-1.6.0/build/lib/librte_malloc.a(malloc_heap.o)
                                                  /home/born/DPDK-OVS/DPDK-1.6.0/build/lib/libethdev.a(rte_ethdev.o)
                                                  /home/born/DPDK-OVS/DPDK-1.6.0/build/lib/librte_pmd_vmxnet3.a(vmxnet3_rxtx.o)
                                                  /home/born/DPDK-OVS/DPDK-1.6.0/build/lib/librte_pmd_vmxnet3.a(vmxnet3_ethdev.o)
                                                  /home/born/DPDK-OVS/DPDK-1.6.0/build/lib/librte_pmd_virtio.a(virtio_rxtx.o)
                                                  /home/born/DPDK-OVS/DPDK-1.6.0/build/lib/librte_pmd_virtio.a(virtio_ethdev.o)
                                                  /home/born/DPDK-OVS/DPDK-1.6.0/build/lib/librte_pmd_ixgbe.a(ixgbe_rxtx.o)
                                                  /home/born/DPDK-OVS/DPDK-1.6.0/build/lib/librte_pmd_ixgbe.a(ixgbe_dcb.o)
                                                  /home/born/DPDK-OVS/DPDK-1.6.0/build/lib/librte_pmd_ixgbe.a(ixgbe_pf.o)
                                                  /home/born/DPDK-OVS/DPDK-1.6.0/build/lib/librte_pmd_ixgbe.a(ixgbe_ethdev.o)
                                                  /home/born/DPDK-OVS/DPDK-1.6.0/build/lib/librte_pmd_e1000.a(e1000_mac.o)
                                                  /home/born/DPDK-OVS/DPDK-1.6.0/build/lib/librte_pmd_e1000.a(em_rxtx.o)
                                                  /home/born/DPDK-OVS/DPDK-1.6.0/build/lib/librte_pmd_e1000.a(em_ethdev.o)
                                                  /home/born/DPDK-OVS/DPDK-1.6.0/build/lib/librte_pmd_e1000.a(igb_pf.o)
                                                  /home/born/DPDK-OVS/DPDK-1.6.0/build/lib/librte_pmd_e1000.a(igb_rxtx.o)
                                                  /home/born/DPDK-OVS/DPDK-1.6.0/build/lib/librte_pmd_e1000.a(igb_ethdev.o)
                                                  csumonly.o
                                                  txonly.o
                                                  config.o
                                                  cmdline.o
                                                  parameters.o
                                                  testpmd.o
__stack_chk_fail@@GLIBC_2.4                       /lib/x86_64-linux-gnu/libc.so.6
__stack_chk_fail@GLIBC_2.4                        /lib/x86_64-linux-gnu/libc.so.6
__strdup                                          /lib/x86_64-linux-gnu/libc.so.6
                                                  /home/born/DPDK-OVS/DPDK-1.6.0/build/lib/librte_eal.a(eal_hugepage_info.o)
__strdup@@GLIBC_2.2.5                             /lib/x86_64-linux-gnu/libc.so.6
__strdup@GLIBC_2.2.5                              /lib/x86_64-linux-gnu/libc.so.6
__strndup                                         /lib/x86_64-linux-gnu/libc.so.6
                                                  /home/born/DPDK-OVS/DPDK-1.6.0/build/lib/librte_eal.a(eal_pci.o)
__strndup@@GLIBC_2.2.5                            /lib/x86_64-linux-gnu/libc.so.6
__strndup@GLIBC_2.2.5                             /lib/x86_64-linux-gnu/libc.so.6
__strtoll_l                                       /lib/x86_64-linux-gnu/libc.so.6
__strtoll_l@@GLIBC_2.2.5                          /lib/x86_64-linux-gnu/libc.so.6
__strtoll_l@GLIBC_2.2.5                           /lib/x86_64-linux-gnu/libc.so.6
__strtoull_l                                      /lib/x86_64-linux-gnu/libc.so.6
__strtoull_l@@GLIBC_2.2.5                         /lib/x86_64-linux-gnu/libc.so.6
__strtoull_l@GLIBC_2.2.5                          /lib/x86_64-linux-gnu/libc.so.6
__syslog_chk                                      /lib/x86_64-linux-gnu/libc.so.6
                                                  /home/born/DPDK-OVS/DPDK-1.6.0/build/lib/librte_eal.a(eal_log.o)
__syslog_chk@@GLIBC_2.4                           /lib/x86_64-linux-gnu/libc.so.6
__syslog_chk@GLIBC_2.4                            /lib/x86_64-linux-gnu/libc.so.6
__tls_get_addr                                    /lib/x86_64-linux-gnu/ld-linux-x86-64.so.2
                                                  /home/born/DPDK-OVS/DPDK-1.6.0/build/lib/librte_pmd_ring.a(rte_eth_ring.o)
                                                  /home/born/DPDK-OVS/DPDK-1.6.0/build/lib/librte_eal.a(eal_common_errno.o)
                                                  /home/born/DPDK-OVS/DPDK-1.6.0/build/lib/librte_eal.a(eal_common_log.o)
                                                  /home/born/DPDK-OVS/DPDK-1.6.0/build/lib/librte_eal.a(eal_common_memzone.o)
                                                  /home/born/DPDK-OVS/DPDK-1.6.0/build/lib/librte_eal.a(eal_alarm.o)
                                                  /home/born/DPDK-OVS/DPDK-1.6.0/build/lib/librte_eal.a(eal_thread.o)
                                                  /home/born/DPDK-OVS/DPDK-1.6.0/build/lib/librte_ring.a(rte_ring.o)
                                                  /home/born/DPDK-OVS/DPDK-1.6.0/build/lib/librte_mempool.a(rte_mempool.o)
                                                  /home/born/DPDK-OVS/DPDK-1.6.0/build/lib/librte_malloc.a(rte_malloc.o)
                                                  /home/born/DPDK-OVS/DPDK-1.6.0/build/lib/libethdev.a(rte_ethdev.o)
                                                  /home/born/DPDK-OVS/DPDK-1.6.0/build/lib/librte_pmd_vmxnet3.a(vmxnet3_rxtx.o)
                                                  /home/born/DPDK-OVS/DPDK-1.6.0/build/lib/librte_pmd_vmxnet3.a(vmxnet3_ethdev.o)
                                                  /home/born/DPDK-OVS/DPDK-1.6.0/build/lib/librte_pmd_virtio.a(virtio_rxtx.o)
                                                  /home/born/DPDK-OVS/DPDK-1.6.0/build/lib/librte_pmd_virtio.a(virtio_ethdev.o)
                                                  /home/born/DPDK-OVS/DPDK-1.6.0/build/lib/librte_pmd_ixgbe.a(ixgbe_rxtx.o)
                                                  /home/born/DPDK-OVS/DPDK-1.6.0/build/lib/librte_pmd_e1000.a(em_rxtx.o)
                                                  /home/born/DPDK-OVS/DPDK-1.6.0/build/lib/librte_pmd_e1000.a(igb_rxtx.o)
                                                  mempool_anon.o
                                                  csumonly.o
                                                  txonly.o
                                                  rxonly.o
                                                  macfwd-retry.o
                                                  macfwd.o
                                                  iofwd.o
                                                  testpmd.o
__tls_get_addr@@GLIBC_2.3                         /lib/x86_64-linux-gnu/ld-linux-x86-64.so.2
__tls_get_addr@GLIBC_2.3                          /lib/x86_64-linux-gnu/ld-linux-x86-64.so.2
                                                  /lib/x86_64-linux-gnu/libc.so.6
                                                  /lib/x86_64-linux-gnu/libpthread.so.0
__toascii_l                                       /lib/x86_64-linux-gnu/libc.so.6
__toascii_l@@GLIBC_2.2.5                          /lib/x86_64-linux-gnu/libc.so.6
__toascii_l@GLIBC_2.2.5                           /lib/x86_64-linux-gnu/libc.so.6
__vdprintf_chk                                    /lib/x86_64-linux-gnu/libc.so.6
                                                  /home/born/DPDK-OVS/DPDK-1.6.0/build/lib/librte_cmdline.a(cmdline.o)
__vdprintf_chk@@GLIBC_2.8                         /lib/x86_64-linux-gnu/libc.so.6
__vdprintf_chk@GLIBC_2.8                          /lib/x86_64-linux-gnu/libc.so.6
__vfprintf_chk                                    /lib/x86_64-linux-gnu/libc.so.6
                                                  /home/born/DPDK-OVS/DPDK-1.6.0/build/lib/librte_eal.a(eal_common_log.o)
__vfprintf_chk@@GLIBC_2.3.4                       /lib/x86_64-linux-gnu/libc.so.6
__vfprintf_chk@GLIBC_2.3.4                        /lib/x86_64-linux-gnu/libc.so.6
__vsnprintf                                       /lib/x86_64-linux-gnu/libc.so.6
__vsnprintf@@GLIBC_2.2.5                          /lib/x86_64-linux-gnu/libc.so.6
__vsnprintf@GLIBC_2.2.5                           /lib/x86_64-linux-gnu/libc.so.6
__vsnprintf_chk                                   /lib/x86_64-linux-gnu/libc.so.6
                                                  /home/born/DPDK-OVS/DPDK-1.6.0/build/lib/librte_pmd_ring.a(rte_eth_ring.o)
                                                  /home/born/DPDK-OVS/DPDK-1.6.0/build/lib/librte_cmdline.a(cmdline_parse_string.o)
                                                  /home/born/DPDK-OVS/DPDK-1.6.0/build/lib/librte_cmdline.a(cmdline_parse_num.o)
                                                  /home/born/DPDK-OVS/DPDK-1.6.0/build/lib/librte_cmdline.a(cmdline_parse_ipaddr.o)
                                                  /home/born/DPDK-OVS/DPDK-1.6.0/build/lib/librte_cmdline.a(cmdline_parse_etheraddr.o)
                                                  /home/born/DPDK-OVS/DPDK-1.6.0/build/lib/librte_cmdline.a(cmdline_parse.o)
                                                  /home/born/DPDK-OVS/DPDK-1.6.0/build/lib/librte_cmdline.a(cmdline.o)
                                                  /home/born/DPDK-OVS/DPDK-1.6.0/build/lib/librte_eal.a(eal_common_nonpci_devs.o)
                                                  /home/born/DPDK-OVS/DPDK-1.6.0/build/lib/librte_eal.a(eal_common_whitelist.o)
                                                  /home/born/DPDK-OVS/DPDK-1.6.0/build/lib/librte_eal.a(eal_common_errno.o)
                                                  /home/born/DPDK-OVS/DPDK-1.6.0/build/lib/librte_eal.a(eal_common_pci.o)
                                                  /home/born/DPDK-OVS/DPDK-1.6.0/build/lib/librte_eal.a(eal_common_memzone.o)
                                                  /home/born/DPDK-OVS/DPDK-1.6.0/build/lib/librte_eal.a(eal_ivshmem.o)
                                                  /home/born/DPDK-OVS/DPDK-1.6.0/build/lib/librte_eal.a(eal_lcore.o)
                                                  /home/born/DPDK-OVS/DPDK-1.6.0/build/lib/librte_eal.a(eal_pci.o)
                                                  /home/born/DPDK-OVS/DPDK-1.6.0/build/lib/librte_eal.a(eal_memory.o)
                                                  /home/born/DPDK-OVS/DPDK-1.6.0/build/lib/librte_eal.a(eal_hugepage_info.o)
                                                  /home/born/DPDK-OVS/DPDK-1.6.0/build/lib/librte_eal.a(eal.o)
                                                  /home/born/DPDK-OVS/DPDK-1.6.0/build/lib/librte_ring.a(rte_ring.o)
                                                  /home/born/DPDK-OVS/DPDK-1.6.0/build/lib/librte_mempool.a(rte_mempool.o)
                                                  /home/born/DPDK-OVS/DPDK-1.6.0/build/lib/librte_pmd_vmxnet3.a(vmxnet3_rxtx.o)
                                                  /home/born/DPDK-OVS/DPDK-1.6.0/build/lib/librte_pmd_vmxnet3.a(vmxnet3_ethdev.o)
                                                  /home/born/DPDK-OVS/DPDK-1.6.0/build/lib/librte_pmd_virtio.a(virtio_rxtx.o)
                                                  /home/born/DPDK-OVS/DPDK-1.6.0/build/lib/librte_pmd_virtio.a(virtio_ethdev.o)
                                                  /home/born/DPDK-OVS/DPDK-1.6.0/build/lib/librte_pmd_ixgbe.a(ixgbe_rxtx.o)
                                                  /home/born/DPDK-OVS/DPDK-1.6.0/build/lib/librte_pmd_e1000.a(em_rxtx.o)
                                                  /home/born/DPDK-OVS/DPDK-1.6.0/build/lib/librte_pmd_e1000.a(igb_rxtx.o)
                                                  config.o
                                                  cmdline.o
                                                  parameters.o
                                                  testpmd.o
__vsnprintf_chk@@GLIBC_2.3.4                      /lib/x86_64-linux-gnu/libc.so.6
__vsnprintf_chk@GLIBC_2.3.4                       /lib/x86_64-linux-gnu/libc.so.6
__vsscanf                                         /lib/x86_64-linux-gnu/libc.so.6
__vsscanf@@GLIBC_2.2.5                            /lib/x86_64-linux-gnu/libc.so.6
__vsscanf@GLIBC_2.2.5                             /lib/x86_64-linux-gnu/libc.so.6
__wait                                            /lib/x86_64-linux-gnu/libpthread.so.0
__wait@@GLIBC_2.2.5                               /lib/x86_64-linux-gnu/libpthread.so.0
                                                  /lib/x86_64-linux-gnu/libc.so.6
__wait@GLIBC_2.2.5                                /lib/x86_64-linux-gnu/libpthread.so.0
__waitpid                                         /lib/x86_64-linux-gnu/libc.so.6
__waitpid@@GLIBC_2.2.5                            /lib/x86_64-linux-gnu/libc.so.6
__waitpid@GLIBC_2.2.5                             /lib/x86_64-linux-gnu/libc.so.6
__wcstoll_l                                       /lib/x86_64-linux-gnu/libc.so.6
__wcstoll_l@@GLIBC_2.2.5                          /lib/x86_64-linux-gnu/libc.so.6
__wcstoll_l@GLIBC_2.2.5                           /lib/x86_64-linux-gnu/libc.so.6
__wcstoull_l                                      /lib/x86_64-linux-gnu/libc.so.6
__wcstoull_l@@GLIBC_2.2.5                         /lib/x86_64-linux-gnu/libc.so.6
__wcstoull_l@GLIBC_2.2.5                          /lib/x86_64-linux-gnu/libc.so.6
__write                                           /lib/x86_64-linux-gnu/libpthread.so.0
__write@@GLIBC_2.2.5                              /lib/x86_64-linux-gnu/libpthread.so.0
                                                  /lib/x86_64-linux-gnu/libc.so.6
__write@GLIBC_2.2.5                               /lib/x86_64-linux-gnu/libpthread.so.0
__xpg_sigpause                                    /lib/x86_64-linux-gnu/libc.so.6
__xpg_sigpause@@GLIBC_2.2.5                       /lib/x86_64-linux-gnu/libc.so.6
__xpg_sigpause@GLIBC_2.2.5                        /lib/x86_64-linux-gnu/libc.so.6
__xpg_strerror_r                                  /lib/x86_64-linux-gnu/libc.so.6
                                                  /home/born/DPDK-OVS/DPDK-1.6.0/build/lib/librte_eal.a(eal_common_errno.o)
__xpg_strerror_r@@GLIBC_2.3.4                     /lib/x86_64-linux-gnu/libc.so.6
__xpg_strerror_r@GLIBC_2.3.4                      /lib/x86_64-linux-gnu/libc.so.6
_dl_starting_up                                   /lib/x86_64-linux-gnu/libc.so.6
_environ                                          /lib/x86_64-linux-gnu/libc.so.6
_environ@@GLIBC_2.2.5                             /lib/x86_64-linux-gnu/libc.so.6
_environ@GLIBC_2.2.5                              /lib/x86_64-linux-gnu/libc.so.6
_fini                                             /usr/lib/gcc/x86_64-linux-gnu/4.6/../../../x86_64-linux-gnu/crti.o
_flushlbf                                         /lib/x86_64-linux-gnu/libc.so.6
_flushlbf@@GLIBC_2.2.5                            /lib/x86_64-linux-gnu/libc.so.6
_flushlbf@GLIBC_2.2.5                             /lib/x86_64-linux-gnu/libc.so.6
_init                                             /usr/lib/gcc/x86_64-linux-gnu/4.6/../../../x86_64-linux-gnu/crti.o
                                                  /usr/lib/x86_64-linux-gnu/libc_nonshared.a(elf-init.oS)
_longjmp                                          /lib/x86_64-linux-gnu/libc.so.6
_longjmp@@GLIBC_2.2.5                             /lib/x86_64-linux-gnu/libc.so.6
_longjmp@GLIBC_2.2.5                              /lib/x86_64-linux-gnu/libc.so.6
_rte_eth_dev_callback_process                     /home/born/DPDK-OVS/DPDK-1.6.0/build/lib/libethdev.a(rte_ethdev.o)
                                                  /home/born/DPDK-OVS/DPDK-1.6.0/build/lib/librte_pmd_ixgbe.a(ixgbe_ethdev.o)
                                                  /home/born/DPDK-OVS/DPDK-1.6.0/build/lib/librte_pmd_e1000.a(em_ethdev.o)
                                                  /home/born/DPDK-OVS/DPDK-1.6.0/build/lib/librte_pmd_e1000.a(igb_ethdev.o)
_start                                            /usr/lib/gcc/x86_64-linux-gnu/4.6/../../../x86_64-linux-gnu/crt1.o
abort                                             /lib/x86_64-linux-gnu/libc.so.6
                                                  /home/born/DPDK-OVS/DPDK-1.6.0/build/lib/librte_eal.a(eal_debug.o)
abort@@GLIBC_2.2.5                                /lib/x86_64-linux-gnu/libc.so.6
abort@GLIBC_2.2.5                                 /lib/x86_64-linux-gnu/libc.so.6
                                                  /lib/x86_64-linux-gnu/libpthread.so.0
accept                                            /lib/x86_64-linux-gnu/libpthread.so.0
accept@@GLIBC_2.2.5                               /lib/x86_64-linux-gnu/libpthread.so.0
                                                  /lib/x86_64-linux-gnu/libc.so.6
accept@GLIBC_2.2.5                                /lib/x86_64-linux-gnu/libpthread.so.0
access                                            /lib/x86_64-linux-gnu/libc.so.6
                                                  /home/born/DPDK-OVS/DPDK-1.6.0/build/lib/librte_eal.a(eal_lcore.o)
                                                  /home/born/DPDK-OVS/DPDK-1.6.0/build/lib/librte_eal.a(eal_pci.o)
access@@GLIBC_2.2.5                               /lib/x86_64-linux-gnu/libc.so.6
access@GLIBC_2.2.5                                /lib/x86_64-linux-gnu/libc.so.6
addmntent                                         /lib/x86_64-linux-gnu/libc.so.6
addmntent@@GLIBC_2.2.5                            /lib/x86_64-linux-gnu/libc.so.6
addmntent@GLIBC_2.2.5                             /lib/x86_64-linux-gnu/libc.so.6
adjtime                                           /lib/x86_64-linux-gnu/libc.so.6
adjtime@@GLIBC_2.2.5                              /lib/x86_64-linux-gnu/libc.so.6
adjtime@GLIBC_2.2.5                               /lib/x86_64-linux-gnu/libc.so.6
adjtimex                                          /lib/x86_64-linux-gnu/libc.so.6
adjtimex@@GLIBC_2.2.5                             /lib/x86_64-linux-gnu/libc.so.6
adjtimex@GLIBC_2.2.5                              /lib/x86_64-linux-gnu/libc.so.6
advance                                           /lib/x86_64-linux-gnu/libc.so.6
advance@@GLIBC_2.2.5                              /lib/x86_64-linux-gnu/libc.so.6
advance@GLIBC_2.2.5                               /lib/x86_64-linux-gnu/libc.so.6
aio_cancel64                                      /usr/lib/gcc/x86_64-linux-gnu/4.6/../../../x86_64-linux-gnu/librt.so
aio_cancel64@@GLIBC_2.2.5                         /usr/lib/gcc/x86_64-linux-gnu/4.6/../../../x86_64-linux-gnu/librt.so
aio_cancel64@GLIBC_2.2.5                          /usr/lib/gcc/x86_64-linux-gnu/4.6/../../../x86_64-linux-gnu/librt.so
aio_error64                                       /usr/lib/gcc/x86_64-linux-gnu/4.6/../../../x86_64-linux-gnu/librt.so
aio_error64@@GLIBC_2.2.5                          /usr/lib/gcc/x86_64-linux-gnu/4.6/../../../x86_64-linux-gnu/librt.so
aio_error64@GLIBC_2.2.5                           /usr/lib/gcc/x86_64-linux-gnu/4.6/../../../x86_64-linux-gnu/librt.so
aio_fsync64                                       /usr/lib/gcc/x86_64-linux-gnu/4.6/../../../x86_64-linux-gnu/librt.so
aio_fsync64@@GLIBC_2.2.5                          /usr/lib/gcc/x86_64-linux-gnu/4.6/../../../x86_64-linux-gnu/librt.so
aio_fsync64@GLIBC_2.2.5                           /usr/lib/gcc/x86_64-linux-gnu/4.6/../../../x86_64-linux-gnu/librt.so
aio_init                                          /usr/lib/gcc/x86_64-linux-gnu/4.6/../../../x86_64-linux-gnu/librt.so
aio_init@@GLIBC_2.2.5                             /usr/lib/gcc/x86_64-linux-gnu/4.6/../../../x86_64-linux-gnu/librt.so
aio_init@GLIBC_2.2.5                              /usr/lib/gcc/x86_64-linux-gnu/4.6/../../../x86_64-linux-gnu/librt.so
aio_read64                                        /usr/lib/gcc/x86_64-linux-gnu/4.6/../../../x86_64-linux-gnu/librt.so
aio_read64@@GLIBC_2.2.5                           /usr/lib/gcc/x86_64-linux-gnu/4.6/../../../x86_64-linux-gnu/librt.so
aio_read64@GLIBC_2.2.5                            /usr/lib/gcc/x86_64-linux-gnu/4.6/../../../x86_64-linux-gnu/librt.so
aio_return64                                      /usr/lib/gcc/x86_64-linux-gnu/4.6/../../../x86_64-linux-gnu/librt.so
aio_return64@@GLIBC_2.2.5                         /usr/lib/gcc/x86_64-linux-gnu/4.6/../../../x86_64-linux-gnu/librt.so
aio_return64@GLIBC_2.2.5                          /usr/lib/gcc/x86_64-linux-gnu/4.6/../../../x86_64-linux-gnu/librt.so
aio_suspend64                                     /usr/lib/gcc/x86_64-linux-gnu/4.6/../../../x86_64-linux-gnu/librt.so
aio_suspend64@@GLIBC_2.2.5                        /usr/lib/gcc/x86_64-linux-gnu/4.6/../../../x86_64-linux-gnu/librt.so
aio_suspend64@GLIBC_2.2.5                         /usr/lib/gcc/x86_64-linux-gnu/4.6/../../../x86_64-linux-gnu/librt.so
aio_write64                                       /usr/lib/gcc/x86_64-linux-gnu/4.6/../../../x86_64-linux-gnu/librt.so
aio_write64@@GLIBC_2.2.5                          /usr/lib/gcc/x86_64-linux-gnu/4.6/../../../x86_64-linux-gnu/librt.so
aio_write64@GLIBC_2.2.5                           /usr/lib/gcc/x86_64-linux-gnu/4.6/../../../x86_64-linux-gnu/librt.so
all_ports_stopped                                 testpmd.o
                                                  cmdline.o
alphasort64                                       /lib/x86_64-linux-gnu/libc.so.6
alphasort64@@GLIBC_2.2.5                          /lib/x86_64-linux-gnu/libc.so.6
alphasort64@GLIBC_2.2.5                           /lib/x86_64-linux-gnu/libc.so.6
arch_prctl                                        /lib/x86_64-linux-gnu/libc.so.6
arch_prctl@@GLIBC_2.2.5                           /lib/x86_64-linux-gnu/libc.so.6
arch_prctl@GLIBC_2.2.5                            /lib/x86_64-linux-gnu/libc.so.6
argp_error                                        /lib/x86_64-linux-gnu/libc.so.6
argp_error@@GLIBC_2.2.5                           /lib/x86_64-linux-gnu/libc.so.6
argp_error@GLIBC_2.2.5                            /lib/x86_64-linux-gnu/libc.so.6
argp_failure                                      /lib/x86_64-linux-gnu/libc.so.6
argp_failure@@GLIBC_2.2.5                         /lib/x86_64-linux-gnu/libc.so.6
argp_failure@GLIBC_2.2.5                          /lib/x86_64-linux-gnu/libc.so.6
argp_help                                         /lib/x86_64-linux-gnu/libc.so.6
argp_help@@GLIBC_2.2.5                            /lib/x86_64-linux-gnu/libc.so.6
argp_help@GLIBC_2.2.5                             /lib/x86_64-linux-gnu/libc.so.6
argp_parse                                        /lib/x86_64-linux-gnu/libc.so.6
argp_parse@@GLIBC_2.2.5                           /lib/x86_64-linux-gnu/libc.so.6
argp_parse@GLIBC_2.2.5                            /lib/x86_64-linux-gnu/libc.so.6
argp_state_help                                   /lib/x86_64-linux-gnu/libc.so.6
argp_state_help@@GLIBC_2.2.5                      /lib/x86_64-linux-gnu/libc.so.6
argp_state_help@GLIBC_2.2.5                       /lib/x86_64-linux-gnu/libc.so.6
argp_usage                                        /lib/x86_64-linux-gnu/libc.so.6
argp_usage@@GLIBC_2.2.5                           /lib/x86_64-linux-gnu/libc.so.6
argp_usage@GLIBC_2.2.5                            /lib/x86_64-linux-gnu/libc.so.6
argz_add                                          /lib/x86_64-linux-gnu/libc.so.6
argz_add@@GLIBC_2.2.5                             /lib/x86_64-linux-gnu/libc.so.6
argz_add@GLIBC_2.2.5                              /lib/x86_64-linux-gnu/libc.so.6
argz_add_sep                                      /lib/x86_64-linux-gnu/libc.so.6
argz_add_sep@@GLIBC_2.2.5                         /lib/x86_64-linux-gnu/libc.so.6
argz_add_sep@GLIBC_2.2.5                          /lib/x86_64-linux-gnu/libc.so.6
argz_append                                       /lib/x86_64-linux-gnu/libc.so.6
argz_append@@GLIBC_2.2.5                          /lib/x86_64-linux-gnu/libc.so.6
argz_append@GLIBC_2.2.5                           /lib/x86_64-linux-gnu/libc.so.6
argz_count                                        /lib/x86_64-linux-gnu/libc.so.6
argz_count@@GLIBC_2.2.5                           /lib/x86_64-linux-gnu/libc.so.6
argz_count@GLIBC_2.2.5                            /lib/x86_64-linux-gnu/libc.so.6
argz_create                                       /lib/x86_64-linux-gnu/libc.so.6
argz_create@@GLIBC_2.2.5                          /lib/x86_64-linux-gnu/libc.so.6
argz_create@GLIBC_2.2.5                           /lib/x86_64-linux-gnu/libc.so.6
argz_create_sep                                   /lib/x86_64-linux-gnu/libc.so.6
argz_create_sep@@GLIBC_2.2.5                      /lib/x86_64-linux-gnu/libc.so.6
argz_create_sep@GLIBC_2.2.5                       /lib/x86_64-linux-gnu/libc.so.6
argz_extract                                      /lib/x86_64-linux-gnu/libc.so.6
argz_extract@@GLIBC_2.2.5                         /lib/x86_64-linux-gnu/libc.so.6
argz_extract@GLIBC_2.2.5                          /lib/x86_64-linux-gnu/libc.so.6
argz_insert                                       /lib/x86_64-linux-gnu/libc.so.6
argz_insert@@GLIBC_2.2.5                          /lib/x86_64-linux-gnu/libc.so.6
argz_insert@GLIBC_2.2.5                           /lib/x86_64-linux-gnu/libc.so.6
argz_next                                         /lib/x86_64-linux-gnu/libc.so.6
argz_next@@GLIBC_2.2.5                            /lib/x86_64-linux-gnu/libc.so.6
argz_next@GLIBC_2.2.5                             /lib/x86_64-linux-gnu/libc.so.6
argz_replace                                      /lib/x86_64-linux-gnu/libc.so.6
argz_replace@@GLIBC_2.2.5                         /lib/x86_64-linux-gnu/libc.so.6
argz_replace@GLIBC_2.2.5                          /lib/x86_64-linux-gnu/libc.so.6
argz_stringify                                    /lib/x86_64-linux-gnu/libc.so.6
argz_stringify@@GLIBC_2.2.5                       /lib/x86_64-linux-gnu/libc.so.6
argz_stringify@GLIBC_2.2.5                        /lib/x86_64-linux-gnu/libc.so.6
asctime_r                                         /lib/x86_64-linux-gnu/libc.so.6
asctime_r@@GLIBC_2.2.5                            /lib/x86_64-linux-gnu/libc.so.6
asctime_r@GLIBC_2.2.5                             /lib/x86_64-linux-gnu/libc.so.6
asprintf                                          /lib/x86_64-linux-gnu/libc.so.6
asprintf@@GLIBC_2.2.5                             /lib/x86_64-linux-gnu/libc.so.6
asprintf@GLIBC_2.2.5                              /lib/x86_64-linux-gnu/libc.so.6
backtrace                                         /lib/x86_64-linux-gnu/libc.so.6
                                                  /home/born/DPDK-OVS/DPDK-1.6.0/build/lib/librte_eal.a(eal_debug.o)
backtrace@@GLIBC_2.2.5                            /lib/x86_64-linux-gnu/libc.so.6
backtrace@GLIBC_2.2.5                             /lib/x86_64-linux-gnu/libc.so.6
backtrace_symbols                                 /lib/x86_64-linux-gnu/libc.so.6
                                                  /home/born/DPDK-OVS/DPDK-1.6.0/build/lib/librte_eal.a(eal_debug.o)
backtrace_symbols@@GLIBC_2.2.5                    /lib/x86_64-linux-gnu/libc.so.6
backtrace_symbols@GLIBC_2.2.5                     /lib/x86_64-linux-gnu/libc.so.6
backtrace_symbols_fd                              /lib/x86_64-linux-gnu/libc.so.6
backtrace_symbols_fd@@GLIBC_2.2.5                 /lib/x86_64-linux-gnu/libc.so.6
backtrace_symbols_fd@GLIBC_2.2.5                  /lib/x86_64-linux-gnu/libc.so.6
bcmp                                              /lib/x86_64-linux-gnu/libc.so.6
bcmp@@GLIBC_2.2.5                                 /lib/x86_64-linux-gnu/libc.so.6
bcmp@GLIBC_2.2.5                                  /lib/x86_64-linux-gnu/libc.so.6
bdflush                                           /lib/x86_64-linux-gnu/libc.so.6
bdflush@@GLIBC_2.2.5                              /lib/x86_64-linux-gnu/libc.so.6
bdflush@GLIBC_2.2.5                               /lib/x86_64-linux-gnu/libc.so.6
bind                                              /lib/x86_64-linux-gnu/libc.so.6
bind@@GLIBC_2.2.5                                 /lib/x86_64-linux-gnu/libc.so.6
bind@GLIBC_2.2.5                                  /lib/x86_64-linux-gnu/libc.so.6
bind_textdomain_codeset                           /lib/x86_64-linux-gnu/libc.so.6
bind_textdomain_codeset@@GLIBC_2.2.5              /lib/x86_64-linux-gnu/libc.so.6
bind_textdomain_codeset@GLIBC_2.2.5               /lib/x86_64-linux-gnu/libc.so.6
bindtextdomain                                    /lib/x86_64-linux-gnu/libc.so.6
bindtextdomain@@GLIBC_2.2.5                       /lib/x86_64-linux-gnu/libc.so.6
bindtextdomain@GLIBC_2.2.5                        /lib/x86_64-linux-gnu/libc.so.6
brk                                               /lib/x86_64-linux-gnu/libc.so.6
brk@@GLIBC_2.2.5                                  /lib/x86_64-linux-gnu/libc.so.6
brk@GLIBC_2.2.5                                   /lib/x86_64-linux-gnu/libc.so.6
bsd_signal                                        /lib/x86_64-linux-gnu/libc.so.6
bsd_signal@@GLIBC_2.2.5                           /lib/x86_64-linux-gnu/libc.so.6
bsd_signal@GLIBC_2.2.5                            /lib/x86_64-linux-gnu/libc.so.6
btowc                                             /lib/x86_64-linux-gnu/libc.so.6
btowc@@GLIBC_2.2.5                                /lib/x86_64-linux-gnu/libc.so.6
btowc@GLIBC_2.2.5                                 /lib/x86_64-linux-gnu/libc.so.6
burst_tx_delay_time                               macfwd-retry.o
                                                  config.o
                                                  cmdline.o
burst_tx_retry_num                                macfwd-retry.o
                                                  config.o
                                                  cmdline.o
bzero                                             /lib/x86_64-linux-gnu/libc.so.6
bzero@@GLIBC_2.2.5                                /lib/x86_64-linux-gnu/libc.so.6
bzero@GLIBC_2.2.5                                 /lib/x86_64-linux-gnu/libc.so.6
calloc                                            /lib/x86_64-linux-gnu/libc.so.6
                                                  mempool_anon.o
calloc@@GLIBC_2.2.5                               /lib/x86_64-linux-gnu/libc.so.6
                                                  /lib/x86_64-linux-gnu/ld-linux-x86-64.so.2
calloc@GLIBC_2.2.5                                /lib/x86_64-linux-gnu/libc.so.6
                                                  /lib/x86_64-linux-gnu/libpthread.so.0
                                                  /usr/lib/gcc/x86_64-linux-gnu/4.6/../../../x86_64-linux-gnu/librt.so
canonicalize_file_name                            /lib/x86_64-linux-gnu/libc.so.6
canonicalize_file_name@@GLIBC_2.2.5               /lib/x86_64-linux-gnu/libc.so.6
canonicalize_file_name@GLIBC_2.2.5                /lib/x86_64-linux-gnu/libc.so.6
cfree                                             /lib/x86_64-linux-gnu/libc.so.6
cfree@@GLIBC_2.2.5                                /lib/x86_64-linux-gnu/libc.so.6
cfree@GLIBC_2.2.5                                 /lib/x86_64-linux-gnu/libc.so.6
chdir                                             /lib/x86_64-linux-gnu/libc.so.6
chdir@@GLIBC_2.2.5                                /lib/x86_64-linux-gnu/libc.so.6
chdir@GLIBC_2.2.5                                 /lib/x86_64-linux-gnu/libc.so.6
chmod                                             /lib/x86_64-linux-gnu/libc.so.6
chmod@@GLIBC_2.2.5                                /lib/x86_64-linux-gnu/libc.so.6
chmod@GLIBC_2.2.5                                 /lib/x86_64-linux-gnu/libc.so.6
chown                                             /lib/x86_64-linux-gnu/libc.so.6
chown@@GLIBC_2.2.5                                /lib/x86_64-linux-gnu/libc.so.6
chown@GLIBC_2.2.5                                 /lib/x86_64-linux-gnu/libc.so.6
cirbuf_add_buf_head                               /home/born/DPDK-OVS/DPDK-1.6.0/build/lib/librte_cmdline.a(cmdline_cirbuf.o)
cirbuf_add_buf_tail                               /home/born/DPDK-OVS/DPDK-1.6.0/build/lib/librte_cmdline.a(cmdline_cirbuf.o)
                                                  /home/born/DPDK-OVS/DPDK-1.6.0/build/lib/librte_cmdline.a(cmdline_rdline.o)
cirbuf_add_head                                   /home/born/DPDK-OVS/DPDK-1.6.0/build/lib/librte_cmdline.a(cmdline_cirbuf.o)
                                                  /home/born/DPDK-OVS/DPDK-1.6.0/build/lib/librte_cmdline.a(cmdline_rdline.o)
cirbuf_add_head_safe                              /home/born/DPDK-OVS/DPDK-1.6.0/build/lib/librte_cmdline.a(cmdline_cirbuf.o)
cirbuf_add_tail                                   /home/born/DPDK-OVS/DPDK-1.6.0/build/lib/librte_cmdline.a(cmdline_cirbuf.o)
                                                  /home/born/DPDK-OVS/DPDK-1.6.0/build/lib/librte_cmdline.a(cmdline_rdline.o)
cirbuf_add_tail_safe                              /home/born/DPDK-OVS/DPDK-1.6.0/build/lib/librte_cmdline.a(cmdline_cirbuf.o)
                                                  /home/born/DPDK-OVS/DPDK-1.6.0/build/lib/librte_cmdline.a(cmdline_rdline.o)
cirbuf_align_left                                 /home/born/DPDK-OVS/DPDK-1.6.0/build/lib/librte_cmdline.a(cmdline_cirbuf.o)
                                                  /home/born/DPDK-OVS/DPDK-1.6.0/build/lib/librte_cmdline.a(cmdline_rdline.o)
cirbuf_align_right                                /home/born/DPDK-OVS/DPDK-1.6.0/build/lib/librte_cmdline.a(cmdline_cirbuf.o)
cirbuf_del_buf_head                               /home/born/DPDK-OVS/DPDK-1.6.0/build/lib/librte_cmdline.a(cmdline_cirbuf.o)
                                                  /home/born/DPDK-OVS/DPDK-1.6.0/build/lib/librte_cmdline.a(cmdline_rdline.o)
cirbuf_del_buf_tail                               /home/born/DPDK-OVS/DPDK-1.6.0/build/lib/librte_cmdline.a(cmdline_cirbuf.o)
cirbuf_del_head                                   /home/born/DPDK-OVS/DPDK-1.6.0/build/lib/librte_cmdline.a(cmdline_cirbuf.o)
                                                  /home/born/DPDK-OVS/DPDK-1.6.0/build/lib/librte_cmdline.a(cmdline_rdline.o)
cirbuf_del_head_safe                              /home/born/DPDK-OVS/DPDK-1.6.0/build/lib/librte_cmdline.a(cmdline_cirbuf.o)
                                                  /home/born/DPDK-OVS/DPDK-1.6.0/build/lib/librte_cmdline.a(cmdline_rdline.o)
cirbuf_del_tail                                   /home/born/DPDK-OVS/DPDK-1.6.0/build/lib/librte_cmdline.a(cmdline_cirbuf.o)
                                                  /home/born/DPDK-OVS/DPDK-1.6.0/build/lib/librte_cmdline.a(cmdline_rdline.o)
cirbuf_del_tail_safe                              /home/born/DPDK-OVS/DPDK-1.6.0/build/lib/librte_cmdline.a(cmdline_cirbuf.o)
                                                  /home/born/DPDK-OVS/DPDK-1.6.0/build/lib/librte_cmdline.a(cmdline_rdline.o)
cirbuf_get_buf_head                               /home/born/DPDK-OVS/DPDK-1.6.0/build/lib/librte_cmdline.a(cmdline_cirbuf.o)
                                                  /home/born/DPDK-OVS/DPDK-1.6.0/build/lib/librte_cmdline.a(cmdline_rdline.o)
cirbuf_get_buf_tail                               /home/born/DPDK-OVS/DPDK-1.6.0/build/lib/librte_cmdline.a(cmdline_cirbuf.o)
cirbuf_get_head                                   /home/born/DPDK-OVS/DPDK-1.6.0/build/lib/librte_cmdline.a(cmdline_cirbuf.o)
                                                  /home/born/DPDK-OVS/DPDK-1.6.0/build/lib/librte_cmdline.a(cmdline_rdline.o)
cirbuf_get_tail                                   /home/born/DPDK-OVS/DPDK-1.6.0/build/lib/librte_cmdline.a(cmdline_cirbuf.o)
                                                  /home/born/DPDK-OVS/DPDK-1.6.0/build/lib/librte_cmdline.a(cmdline_rdline.o)
cirbuf_init                                       /home/born/DPDK-OVS/DPDK-1.6.0/build/lib/librte_cmdline.a(cmdline_cirbuf.o)
                                                  /home/born/DPDK-OVS/DPDK-1.6.0/build/lib/librte_cmdline.a(cmdline_rdline.o)
clearenv                                          /lib/x86_64-linux-gnu/libc.so.6
clearenv@@GLIBC_2.2.5                             /lib/x86_64-linux-gnu/libc.so.6
clearenv@GLIBC_2.2.5                              /lib/x86_64-linux-gnu/libc.so.6
clock_gettime                                     /usr/lib/gcc/x86_64-linux-gnu/4.6/../../../x86_64-linux-gnu/librt.so
                                                  /home/born/DPDK-OVS/DPDK-1.6.0/build/lib/librte_eal.a(eal_timer.o)
clock_gettime@@GLIBC_2.2.5                        /usr/lib/gcc/x86_64-linux-gnu/4.6/../../../x86_64-linux-gnu/librt.so
clock_gettime@GLIBC_2.2.5                         /usr/lib/gcc/x86_64-linux-gnu/4.6/../../../x86_64-linux-gnu/librt.so
clone                                             /lib/x86_64-linux-gnu/libc.so.6
clone@@GLIBC_2.2.5                                /lib/x86_64-linux-gnu/libc.so.6
clone@GLIBC_2.2.5                                 /lib/x86_64-linux-gnu/libc.so.6
close                                             /lib/x86_64-linux-gnu/libpthread.so.0
                                                  /home/born/DPDK-OVS/DPDK-1.6.0/build/lib/librte_cmdline.a(cmdline.o)
                                                  /home/born/DPDK-OVS/DPDK-1.6.0/build/lib/librte_eal.a(eal_ivshmem.o)
                                                  /home/born/DPDK-OVS/DPDK-1.6.0/build/lib/librte_eal.a(eal_interrupts.o)
                                                  /home/born/DPDK-OVS/DPDK-1.6.0/build/lib/librte_eal.a(eal_pci.o)
                                                  /home/born/DPDK-OVS/DPDK-1.6.0/build/lib/librte_eal.a(eal_memory.o)
                                                  /home/born/DPDK-OVS/DPDK-1.6.0/build/lib/librte_eal.a(eal_hugepage_info.o)
                                                  /home/born/DPDK-OVS/DPDK-1.6.0/build/lib/librte_eal.a(eal.o)
                                                  mempool_anon.o
close@@GLIBC_2.2.5                                /lib/x86_64-linux-gnu/libpthread.so.0
                                                  /lib/x86_64-linux-gnu/libc.so.6
close@GLIBC_2.2.5                                 /lib/x86_64-linux-gnu/libpthread.so.0
                                                  /usr/lib/gcc/x86_64-linux-gnu/4.6/../../../x86_64-linux-gnu/librt.so
close_port                                        testpmd.o
                                                  cmdline.o
closedir                                          /lib/x86_64-linux-gnu/libc.so.6
                                                  /home/born/DPDK-OVS/DPDK-1.6.0/build/lib/librte_eal.a(eal_lcore.o)
                                                  /home/born/DPDK-OVS/DPDK-1.6.0/build/lib/librte_eal.a(eal_pci.o)
                                                  /home/born/DPDK-OVS/DPDK-1.6.0/build/lib/librte_eal.a(eal_hugepage_info.o)
closedir@@GLIBC_2.2.5                             /lib/x86_64-linux-gnu/libc.so.6
closedir@GLIBC_2.2.5                              /lib/x86_64-linux-gnu/libc.so.6
cmd_add_perfect_filter                            cmdline.o
cmd_add_signature_filter                          cmdline.o
cmd_config_burst                                  cmdline.o
cmd_config_burst_all                              cmdline.o
cmd_config_burst_keyword                          cmdline.o
cmd_config_burst_name                             cmdline.o
cmd_config_burst_port                             cmdline.o
cmd_config_burst_value                            cmdline.o
cmd_config_dcb                                    cmdline.o
cmd_config_dcb_config                             cmdline.o
cmd_config_dcb_dcb                                cmdline.o
cmd_config_dcb_num_tcs                            cmdline.o
cmd_config_dcb_pfc                                cmdline.o
cmd_config_dcb_pfc_en                             cmdline.o
cmd_config_dcb_port                               cmdline.o
cmd_config_dcb_port_id                            cmdline.o
cmd_config_dcb_vt                                 cmdline.o
cmd_config_dcb_vt_en                              cmdline.o
cmd_config_max_pkt_len                            cmdline.o
cmd_config_max_pkt_len_all                        cmdline.o
cmd_config_max_pkt_len_keyword                    cmdline.o
cmd_config_max_pkt_len_name                       cmdline.o
cmd_config_max_pkt_len_port                       cmdline.o
cmd_config_max_pkt_len_value                      cmdline.o
cmd_config_rss                                    cmdline.o
cmd_config_rss_all                                cmdline.o
cmd_config_rss_keyword                            cmdline.o
cmd_config_rss_name                               cmdline.o
cmd_config_rss_port                               cmdline.o
cmd_config_rss_reta                               cmdline.o
cmd_config_rss_reta_keyword                       cmdline.o
cmd_config_rss_reta_list_name                     cmdline.o
cmd_config_rss_reta_list_of_items                 cmdline.o
cmd_config_rss_reta_name                          cmdline.o
cmd_config_rss_reta_port                          cmdline.o
cmd_config_rss_reta_port_id                       cmdline.o
cmd_config_rss_value                              cmdline.o
cmd_config_rx_mode_flag                           cmdline.o
cmd_config_rx_mode_flag_all                       cmdline.o
cmd_config_rx_mode_flag_keyword                   cmdline.o
cmd_config_rx_mode_flag_name                      cmdline.o
cmd_config_rx_mode_flag_port                      cmdline.o
cmd_config_rx_mode_flag_value                     cmdline.o
cmd_config_rx_tx                                  cmdline.o
cmd_config_rx_tx_all                              cmdline.o
cmd_config_rx_tx_keyword                          cmdline.o
cmd_config_rx_tx_name                             cmdline.o
cmd_config_rx_tx_port                             cmdline.o
cmd_config_rx_tx_value                            cmdline.o
cmd_config_speed_all                              cmdline.o
cmd_config_speed_all_all                          cmdline.o
cmd_config_speed_all_item1                        cmdline.o
cmd_config_speed_all_item2                        cmdline.o
cmd_config_speed_all_keyword                      cmdline.o
cmd_config_speed_all_port                         cmdline.o
cmd_config_speed_all_value1                       cmdline.o
cmd_config_speed_all_value2                       cmdline.o
cmd_config_speed_specific                         cmdline.o
cmd_config_speed_specific_id                      cmdline.o
cmd_config_speed_specific_item1                   cmdline.o
cmd_config_speed_specific_item2                   cmdline.o
cmd_config_speed_specific_keyword                 cmdline.o
cmd_config_speed_specific_port                    cmdline.o
cmd_config_speed_specific_value1                  cmdline.o
cmd_config_speed_specific_value2                  cmdline.o
cmd_config_thresh                                 cmdline.o
cmd_config_thresh_all                             cmdline.o
cmd_config_thresh_keyword                         cmdline.o
cmd_config_thresh_name                            cmdline.o
cmd_config_thresh_port                            cmdline.o
cmd_config_thresh_value                           cmdline.o
cmd_config_threshold                              cmdline.o
cmd_config_threshold_all                          cmdline.o
cmd_config_threshold_keyword                      cmdline.o
cmd_config_threshold_name                         cmdline.o
cmd_config_threshold_port                         cmdline.o
cmd_config_threshold_value                        cmdline.o
cmd_help_brief                                    cmdline.o
cmd_help_brief_help                               cmdline.o
cmd_help_long                                     cmdline.o
cmd_help_long_help                                cmdline.o
cmd_help_long_section                             cmdline.o
cmd_lfc_set_flow_ctrl                             cmdline.o
cmd_lfc_set_high_water                            cmdline.o
cmd_lfc_set_low_water                             cmdline.o
cmd_lfc_set_mac_ctrl_frame_fwd                    cmdline.o
cmd_lfc_set_mac_ctrl_frame_fwd_mode               cmdline.o
cmd_lfc_set_pause_time                            cmdline.o
cmd_lfc_set_portid                                cmdline.o
cmd_lfc_set_rx                                    cmdline.o
cmd_lfc_set_rx_mode                               cmdline.o
cmd_lfc_set_send_xon                              cmdline.o
cmd_lfc_set_set                                   cmdline.o
cmd_lfc_set_tx                                    cmdline.o
cmd_lfc_set_tx_mode                               cmdline.o
cmd_link_flow_control_set                         cmdline.o
cmd_mac_addr                                      cmdline.o
cmd_mac_addr_addr                                 cmdline.o
cmd_mac_addr_cmd                                  cmdline.o
cmd_mac_addr_portnum                              cmdline.o
cmd_mac_addr_what                                 cmdline.o
cmd_mirror_link_dstpool                           cmdline.o
cmd_mirror_link_mirror                            cmdline.o
cmd_mirror_link_on                                cmdline.o
cmd_mirror_link_poolid                            cmdline.o
cmd_mirror_link_port                              cmdline.o
cmd_mirror_link_portid                            cmdline.o
cmd_mirror_link_ruleid                            cmdline.o
cmd_mirror_link_set                               cmdline.o
cmd_mirror_link_what                              cmdline.o
cmd_mirror_mask_dstpool                           cmdline.o
cmd_mirror_mask_mirror                            cmdline.o
cmd_mirror_mask_on                                cmdline.o
cmd_mirror_mask_poolid                            cmdline.o
cmd_mirror_mask_port                              cmdline.o
cmd_mirror_mask_portid                            cmdline.o
cmd_mirror_mask_ruleid                            cmdline.o
cmd_mirror_mask_set                               cmdline.o
cmd_mirror_mask_value                             cmdline.o
cmd_mirror_mask_what                              cmdline.o
cmd_operate_port                                  cmdline.o
cmd_operate_port_all_all                          cmdline.o
cmd_operate_port_all_cmd                          cmdline.o
cmd_operate_port_all_port                         cmdline.o
cmd_operate_specific_port                         cmdline.o
cmd_operate_specific_port_cmd                     cmdline.o
cmd_operate_specific_port_id                      cmdline.o
cmd_operate_specific_port_port                    cmdline.o
cmd_pfc_set_flow_ctrl                             cmdline.o
cmd_pfc_set_high_water                            cmdline.o
cmd_pfc_set_low_water                             cmdline.o
cmd_pfc_set_pause_time                            cmdline.o
cmd_pfc_set_portid                                cmdline.o
cmd_pfc_set_priority                              cmdline.o
cmd_pfc_set_rx                                    cmdline.o
cmd_pfc_set_rx_mode                               cmdline.o
cmd_pfc_set_set                                   cmdline.o
cmd_pfc_set_tx                                    cmdline.o
cmd_pfc_set_tx_mode                               cmdline.o
cmd_pkt_filter_add_perfect_filter                 cmdline.o
cmd_pkt_filter_add_signature_filter               cmdline.o
cmd_pkt_filter_dst                                cmdline.o
cmd_pkt_filter_flexbytes                          cmdline.o
cmd_pkt_filter_flexbytes_value                    cmdline.o
cmd_pkt_filter_ip_dst                             cmdline.o
cmd_pkt_filter_ip_src                             cmdline.o
cmd_pkt_filter_masks_comp_ipv6_dst                cmdline.o
cmd_pkt_filter_masks_comp_ipv6_dst_value          cmdline.o
cmd_pkt_filter_masks_dst_mask                     cmdline.o
cmd_pkt_filter_masks_dst_mask_ipv6_value          cmdline.o
cmd_pkt_filter_masks_filter_mask                  cmdline.o
cmd_pkt_filter_masks_filter_mask_ipv6             cmdline.o
cmd_pkt_filter_masks_flexbytes                    cmdline.o
cmd_pkt_filter_masks_flexbytes_value              cmdline.o
cmd_pkt_filter_masks_ip_dst_mask                  cmdline.o
cmd_pkt_filter_masks_ip_src_mask                  cmdline.o
cmd_pkt_filter_masks_only_ip_flow                 cmdline.o
cmd_pkt_filter_masks_only_ip_flow_value           cmdline.o
cmd_pkt_filter_masks_port_dst_mask                cmdline.o
cmd_pkt_filter_masks_port_id                      cmdline.o
cmd_pkt_filter_masks_port_src_mask                cmdline.o
cmd_pkt_filter_masks_src_mask                     cmdline.o
cmd_pkt_filter_masks_src_mask_ipv6_value          cmdline.o
cmd_pkt_filter_masks_vlan_id                      cmdline.o
cmd_pkt_filter_masks_vlan_id_value                cmdline.o
cmd_pkt_filter_masks_vlan_prio                    cmdline.o
cmd_pkt_filter_masks_vlan_prio_value              cmdline.o
cmd_pkt_filter_port_dst                           cmdline.o
cmd_pkt_filter_port_id                            cmdline.o
cmd_pkt_filter_port_src                           cmdline.o
cmd_pkt_filter_protocol                           cmdline.o
cmd_pkt_filter_queue                              cmdline.o
cmd_pkt_filter_queue_id                           cmdline.o
cmd_pkt_filter_rm_perfect_filter                  cmdline.o
cmd_pkt_filter_rm_signature_filter                cmdline.o
cmd_pkt_filter_soft                               cmdline.o
cmd_pkt_filter_soft_id                            cmdline.o
cmd_pkt_filter_src                                cmdline.o
cmd_pkt_filter_upd_perfect_filter                 cmdline.o
cmd_pkt_filter_upd_signature_filter               cmdline.o
cmd_pkt_filter_vlan                               cmdline.o
cmd_pkt_filter_vlan_id                            cmdline.o
cmd_priority_flow_control_set                     cmdline.o
cmd_quit                                          cmdline.o
cmd_quit_quit                                     cmdline.o
cmd_read_reg                                      cmdline.o
cmd_read_reg_bit                                  cmdline.o
cmd_read_reg_bit_bit_pos                          cmdline.o
cmd_read_reg_bit_field                            cmdline.o
cmd_read_reg_bit_field_bit1_pos                   cmdline.o
cmd_read_reg_bit_field_bit2_pos                   cmdline.o
cmd_read_reg_bit_field_port_id                    cmdline.o
cmd_read_reg_bit_field_read                       cmdline.o
cmd_read_reg_bit_field_reg_off                    cmdline.o
cmd_read_reg_bit_field_regfield                   cmdline.o
cmd_read_reg_bit_port_id                          cmdline.o
cmd_read_reg_bit_read                             cmdline.o
cmd_read_reg_bit_reg_off                          cmdline.o
cmd_read_reg_bit_regbit                           cmdline.o
cmd_read_reg_port_id                              cmdline.o
cmd_read_reg_read                                 cmdline.o
cmd_read_reg_reg                                  cmdline.o
cmd_read_reg_reg_off                              cmdline.o
cmd_read_rxd_txd                                  cmdline.o
cmd_read_rxd_txd_desc_id                          cmdline.o
cmd_read_rxd_txd_port_id                          cmdline.o
cmd_read_rxd_txd_queue_id                         cmdline.o
cmd_read_rxd_txd_read                             cmdline.o
cmd_read_rxd_txd_rxd_txd                          cmdline.o
cmd_reset                                         cmdline.o
cmd_reset_def                                     cmdline.o
cmd_reset_mirror_rule                             cmdline.o
cmd_reset_set                                     cmdline.o
cmd_rm_mirror_rule_mirror                         cmdline.o
cmd_rm_mirror_rule_port                           cmdline.o
cmd_rm_mirror_rule_portid                         cmdline.o
cmd_rm_mirror_rule_reset                          cmdline.o
cmd_rm_mirror_rule_ruleid                         cmdline.o
cmd_rm_perfect_filter                             cmdline.o
cmd_rm_signature_filter                           cmdline.o
cmd_rx_vlan_filter                                cmdline.o
cmd_rx_vlan_filter_all                            cmdline.o
cmd_rx_vlan_filter_all_all                        cmdline.o
cmd_rx_vlan_filter_all_portid                     cmdline.o
cmd_rx_vlan_filter_all_rx_vlan                    cmdline.o
cmd_rx_vlan_filter_all_what                       cmdline.o
cmd_rx_vlan_filter_portid                         cmdline.o
cmd_rx_vlan_filter_rx_vlan                        cmdline.o
cmd_rx_vlan_filter_vlanid                         cmdline.o
cmd_rx_vlan_filter_what                           cmdline.o
cmd_set_allmulti_mode_all                         cmdline.o
cmd_set_allmulti_mode_one                         cmdline.o
cmd_set_burst_tx_retry                            cmdline.o
cmd_set_burst_tx_retry_burst                      cmdline.o
cmd_set_burst_tx_retry_delay                      cmdline.o
cmd_set_burst_tx_retry_retry                      cmdline.o
cmd_set_burst_tx_retry_retry_num                  cmdline.o
cmd_set_burst_tx_retry_set                        cmdline.o
cmd_set_burst_tx_retry_time                       cmdline.o
cmd_set_burst_tx_retry_tx                         cmdline.o
cmd_set_flush_rx                                  cmdline.o
cmd_set_fwd_list                                  cmdline.o
cmd_set_fwd_mask                                  cmdline.o
cmd_set_fwd_mode                                  cmdline.o
cmd_set_ipv6_masks_filter                         cmdline.o
cmd_set_list_keyword                              cmdline.o
cmd_set_list_name                                 cmdline.o
cmd_set_list_of_items                             cmdline.o
cmd_set_masks_filter                              cmdline.o
cmd_set_mirror_link                               cmdline.o
cmd_set_mirror_mask                               cmdline.o
cmd_set_numbers                                   cmdline.o
cmd_set_promisc_mode_all                          cmdline.o
cmd_set_promisc_mode_one                          cmdline.o
cmd_set_qmap                                      cmdline.o
cmd_set_set                                       cmdline.o
cmd_set_txpkts                                    cmdline.o
cmd_set_txpkts_keyword                            cmdline.o
cmd_set_txpkts_lengths                            cmdline.o
cmd_set_txpkts_name                               cmdline.o
cmd_set_uc_all_hash_filter                        cmdline.o
cmd_set_uc_all_hash_mode                          cmdline.o
cmd_set_uc_all_hash_port                          cmdline.o
cmd_set_uc_all_hash_portid                        cmdline.o
cmd_set_uc_all_hash_set                           cmdline.o
cmd_set_uc_all_hash_value                         cmdline.o
cmd_set_uc_all_hash_what                          cmdline.o
cmd_set_uc_hash_filter                            cmdline.o
cmd_set_uc_hash_mac                               cmdline.o
cmd_set_uc_hash_mode                              cmdline.o
cmd_set_uc_hash_port                              cmdline.o
cmd_set_uc_hash_portid                            cmdline.o
cmd_set_uc_hash_set                               cmdline.o
cmd_set_uc_hash_what                              cmdline.o
cmd_set_value                                     cmdline.o
cmd_set_vf_rxmode                                 cmdline.o
cmd_set_vf_rxmode_mode                            cmdline.o
cmd_set_vf_rxmode_on                              cmdline.o
cmd_set_vf_rxmode_port                            cmdline.o
cmd_set_vf_rxmode_portid                          cmdline.o
cmd_set_vf_rxmode_set                             cmdline.o
cmd_set_vf_rxmode_vf                              cmdline.o
cmd_set_vf_rxmode_vfid                            cmdline.o
cmd_set_vf_rxmode_what                            cmdline.o
cmd_set_vf_traffic                                cmdline.o
cmd_set_what                                      cmdline.o
cmd_setallmulti_allmulti                          cmdline.o
cmd_setallmulti_mode                              cmdline.o
cmd_setallmulti_portall                           cmdline.o
cmd_setallmulti_portnum                           cmdline.o
cmd_setallmulti_set                               cmdline.o
cmd_setflushrx_flush_rx                           cmdline.o
cmd_setflushrx_mode                               cmdline.o
cmd_setflushrx_set                                cmdline.o
cmd_setfwd_fwd                                    cmdline.o
cmd_setfwd_mode                                   cmdline.o
cmd_setfwd_set                                    cmdline.o
cmd_setmask_mask                                  cmdline.o
cmd_setmask_set                                   cmdline.o
cmd_setmask_value                                 cmdline.o
cmd_setpromisc_mode                               cmdline.o
cmd_setpromisc_portall                            cmdline.o
cmd_setpromisc_portnum                            cmdline.o
cmd_setpromisc_promisc                            cmdline.o
cmd_setpromisc_set                                cmdline.o
cmd_setqmap_mapvalue                              cmdline.o
cmd_setqmap_portid                                cmdline.o
cmd_setqmap_qmap                                  cmdline.o
cmd_setqmap_queueid                               cmdline.o
cmd_setqmap_set                                   cmdline.o
cmd_setqmap_what                                  cmdline.o
cmd_setvf_traffic_mode                            cmdline.o
cmd_setvf_traffic_port                            cmdline.o
cmd_setvf_traffic_portid                          cmdline.o
cmd_setvf_traffic_set                             cmdline.o
cmd_setvf_traffic_vf                              cmdline.o
cmd_setvf_traffic_vfid                            cmdline.o
cmd_setvf_traffic_what                            cmdline.o
cmd_showcfg                                       cmdline.o
cmd_showcfg_port                                  cmdline.o
cmd_showcfg_show                                  cmdline.o
cmd_showcfg_what                                  cmdline.o
cmd_showport                                      cmdline.o
cmd_showport_port                                 cmdline.o
cmd_showport_portnum                              cmdline.o
cmd_showport_reta                                 cmdline.o
cmd_showport_reta_mask_hi                         cmdline.o
cmd_showport_reta_mask_lo                         cmdline.o
cmd_showport_reta_port                            cmdline.o
cmd_showport_reta_port_id                         cmdline.o
cmd_showport_reta_reta                            cmdline.o
cmd_showport_reta_rss                             cmdline.o
cmd_showport_reta_show                            cmdline.o
cmd_showport_show                                 cmdline.o
cmd_showport_what                                 cmdline.o
cmd_showportall                                   cmdline.o
cmd_showportall_all                               cmdline.o
cmd_showportall_port                              cmdline.o
cmd_showportall_show                              cmdline.o
cmd_showportall_what                              cmdline.o
cmd_start                                         cmdline.o
cmd_start_start                                   cmdline.o
cmd_start_tx_first                                cmdline.o
cmd_start_tx_first_start                          cmdline.o
cmd_start_tx_first_tx_first                       cmdline.o
cmd_stop                                          cmdline.o
cmd_stop_stop                                     cmdline.o
cmd_tx_cksum_set                                  cmdline.o
cmd_tx_cksum_set_cksum_mask                       cmdline.o
cmd_tx_cksum_set_portid                           cmdline.o
cmd_tx_cksum_set_set                              cmdline.o
cmd_tx_cksum_set_tx_cksum                         cmdline.o
cmd_tx_vlan_reset                                 cmdline.o
cmd_tx_vlan_reset_portid                          cmdline.o
cmd_tx_vlan_reset_reset                           cmdline.o
cmd_tx_vlan_reset_tx_vlan                         cmdline.o
cmd_tx_vlan_set                                   cmdline.o
cmd_tx_vlan_set_portid                            cmdline.o
cmd_tx_vlan_set_set                               cmdline.o
cmd_tx_vlan_set_tx_vlan                           cmdline.o
cmd_tx_vlan_set_vlanid                            cmdline.o
cmd_upd_perfect_filter                            cmdline.o
cmd_upd_signature_filter                          cmdline.o
cmd_vf_mac_addr_addr                              cmdline.o
cmd_vf_mac_addr_cmd                               cmdline.o
cmd_vf_mac_addr_filter                            cmdline.o
cmd_vf_mac_addr_port                              cmdline.o
cmd_vf_mac_addr_portnum                           cmdline.o
cmd_vf_mac_addr_vf                                cmdline.o
cmd_vf_mac_addr_vfnum                             cmdline.o
cmd_vf_mac_addr_what                              cmdline.o
cmd_vf_rx_vlan_filter_port                        cmdline.o
cmd_vf_rx_vlan_filter_portid                      cmdline.o
cmd_vf_rx_vlan_filter_rx_vlan                     cmdline.o
cmd_vf_rx_vlan_filter_vf                          cmdline.o
cmd_vf_rx_vlan_filter_vf_mask                     cmdline.o
cmd_vf_rx_vlan_filter_vlanid                      cmdline.o
cmd_vf_rx_vlan_filter_what                        cmdline.o
cmd_vf_rxvlan_filter                              cmdline.o
cmd_vlan_offload                                  cmdline.o
cmd_vlan_offload_on                               cmdline.o
cmd_vlan_offload_portid                           cmdline.o
cmd_vlan_offload_set                              cmdline.o
cmd_vlan_offload_vlan                             cmdline.o
cmd_vlan_offload_what                             cmdline.o
cmd_vlan_tpid                                     cmdline.o
cmd_vlan_tpid_portid                              cmdline.o
cmd_vlan_tpid_set                                 cmdline.o
cmd_vlan_tpid_tpid                                cmdline.o
cmd_vlan_tpid_vlan                                cmdline.o
cmd_vlan_tpid_what                                cmdline.o
cmd_write_reg                                     cmdline.o
cmd_write_reg_bit                                 cmdline.o
cmd_write_reg_bit_bit_pos                         cmdline.o
cmd_write_reg_bit_field                           cmdline.o
cmd_write_reg_bit_field_bit1_pos                  cmdline.o
cmd_write_reg_bit_field_bit2_pos                  cmdline.o
cmd_write_reg_bit_field_port_id                   cmdline.o
cmd_write_reg_bit_field_reg_off                   cmdline.o
cmd_write_reg_bit_field_regfield                  cmdline.o
cmd_write_reg_bit_field_value                     cmdline.o
cmd_write_reg_bit_field_write                     cmdline.o
cmd_write_reg_bit_port_id                         cmdline.o
cmd_write_reg_bit_reg_off                         cmdline.o
cmd_write_reg_bit_regbit                          cmdline.o
cmd_write_reg_bit_value                           cmdline.o
cmd_write_reg_bit_write                           cmdline.o
cmd_write_reg_port_id                             cmdline.o
cmd_write_reg_reg                                 cmdline.o
cmd_write_reg_reg_off                             cmdline.o
cmd_write_reg_value                               cmdline.o
cmd_write_reg_write                               cmdline.o
cmdline_complete                                  /home/born/DPDK-OVS/DPDK-1.6.0/build/lib/librte_cmdline.a(cmdline_parse.o)
                                                  /home/born/DPDK-OVS/DPDK-1.6.0/build/lib/librte_cmdline.a(cmdline.o)
cmdline_complete_get_elt_string                   /home/born/DPDK-OVS/DPDK-1.6.0/build/lib/librte_cmdline.a(cmdline_parse_string.o)
cmdline_complete_get_nb_string                    /home/born/DPDK-OVS/DPDK-1.6.0/build/lib/librte_cmdline.a(cmdline_parse_string.o)
cmdline_file_new                                  /home/born/DPDK-OVS/DPDK-1.6.0/build/lib/librte_cmdline.a(cmdline_socket.o)
cmdline_free                                      /home/born/DPDK-OVS/DPDK-1.6.0/build/lib/librte_cmdline.a(cmdline.o)
cmdline_get_help_etheraddr                        /home/born/DPDK-OVS/DPDK-1.6.0/build/lib/librte_cmdline.a(cmdline_parse_etheraddr.o)
cmdline_get_help_ipaddr                           /home/born/DPDK-OVS/DPDK-1.6.0/build/lib/librte_cmdline.a(cmdline_parse_ipaddr.o)
cmdline_get_help_num                              /home/born/DPDK-OVS/DPDK-1.6.0/build/lib/librte_cmdline.a(cmdline_parse_num.o)
cmdline_get_help_string                           /home/born/DPDK-OVS/DPDK-1.6.0/build/lib/librte_cmdline.a(cmdline_parse_string.o)
cmdline_in                                        /home/born/DPDK-OVS/DPDK-1.6.0/build/lib/librte_cmdline.a(cmdline.o)
cmdline_interact                                  /home/born/DPDK-OVS/DPDK-1.6.0/build/lib/librte_cmdline.a(cmdline.o)
                                                  cmdline.o
cmdline_isendoftoken                              /home/born/DPDK-OVS/DPDK-1.6.0/build/lib/librte_cmdline.a(cmdline_parse.o)
                                                  /home/born/DPDK-OVS/DPDK-1.6.0/build/lib/librte_cmdline.a(cmdline_parse_string.o)
                                                  /home/born/DPDK-OVS/DPDK-1.6.0/build/lib/librte_cmdline.a(cmdline_parse_num.o)
                                                  /home/born/DPDK-OVS/DPDK-1.6.0/build/lib/librte_cmdline.a(cmdline_parse_ipaddr.o)
                                                  /home/born/DPDK-OVS/DPDK-1.6.0/build/lib/librte_cmdline.a(cmdline_parse_etheraddr.o)
cmdline_new                                       /home/born/DPDK-OVS/DPDK-1.6.0/build/lib/librte_cmdline.a(cmdline.o)
                                                  /home/born/DPDK-OVS/DPDK-1.6.0/build/lib/librte_cmdline.a(cmdline_socket.o)
cmdline_parse                                     /home/born/DPDK-OVS/DPDK-1.6.0/build/lib/librte_cmdline.a(cmdline_parse.o)
                                                  /home/born/DPDK-OVS/DPDK-1.6.0/build/lib/librte_cmdline.a(cmdline.o)
cmdline_parse_etheraddr                           /home/born/DPDK-OVS/DPDK-1.6.0/build/lib/librte_cmdline.a(cmdline_parse_etheraddr.o)
                                                  parameters.o
cmdline_parse_ipaddr                              /home/born/DPDK-OVS/DPDK-1.6.0/build/lib/librte_cmdline.a(cmdline_parse_ipaddr.o)
cmdline_parse_num                                 /home/born/DPDK-OVS/DPDK-1.6.0/build/lib/librte_cmdline.a(cmdline_parse_num.o)
cmdline_parse_string                              /home/born/DPDK-OVS/DPDK-1.6.0/build/lib/librte_cmdline.a(cmdline_parse_string.o)
cmdline_printf                                    /home/born/DPDK-OVS/DPDK-1.6.0/build/lib/librte_cmdline.a(cmdline.o)
                                                  cmdline.o
cmdline_quit                                      /home/born/DPDK-OVS/DPDK-1.6.0/build/lib/librte_cmdline.a(cmdline.o)
                                                  cmdline.o
cmdline_set_prompt                                /home/born/DPDK-OVS/DPDK-1.6.0/build/lib/librte_cmdline.a(cmdline.o)
cmdline_stdin_exit                                /home/born/DPDK-OVS/DPDK-1.6.0/build/lib/librte_cmdline.a(cmdline_socket.o)
                                                  cmdline.o
cmdline_stdin_new                                 /home/born/DPDK-OVS/DPDK-1.6.0/build/lib/librte_cmdline.a(cmdline_socket.o)
                                                  cmdline.o
cmdline_token_etheraddr_ops                       /home/born/DPDK-OVS/DPDK-1.6.0/build/lib/librte_cmdline.a(cmdline_parse_etheraddr.o)
                                                  cmdline.o
cmdline_token_ipaddr_ops                          /home/born/DPDK-OVS/DPDK-1.6.0/build/lib/librte_cmdline.a(cmdline_parse_ipaddr.o)
                                                  cmdline.o
cmdline_token_num_ops                             /home/born/DPDK-OVS/DPDK-1.6.0/build/lib/librte_cmdline.a(cmdline_parse_num.o)
                                                  cmdline.o
cmdline_token_string_ops                          /home/born/DPDK-OVS/DPDK-1.6.0/build/lib/librte_cmdline.a(cmdline_parse_string.o)
                                                  cmdline.o
cmdline_vt100_commands                            /home/born/DPDK-OVS/DPDK-1.6.0/build/lib/librte_cmdline.a(cmdline_vt100.o)
cmdline_write_char                                /home/born/DPDK-OVS/DPDK-1.6.0/build/lib/librte_cmdline.a(cmdline.o)
connect                                           /lib/x86_64-linux-gnu/libpthread.so.0
connect@@GLIBC_2.2.5                              /lib/x86_64-linux-gnu/libpthread.so.0
                                                  /lib/x86_64-linux-gnu/libc.so.6
connect@GLIBC_2.2.5                               /lib/x86_64-linux-gnu/libpthread.so.0
copysign                                          /lib/x86_64-linux-gnu/libc.so.6
copysign@@GLIBC_2.2.5                             /lib/x86_64-linux-gnu/libc.so.6
copysign@GLIBC_2.2.5                              /lib/x86_64-linux-gnu/libc.so.6
copysignf                                         /lib/x86_64-linux-gnu/libc.so.6
copysignf@@GLIBC_2.2.5                            /lib/x86_64-linux-gnu/libc.so.6
copysignf@GLIBC_2.2.5                             /lib/x86_64-linux-gnu/libc.so.6
copysignl                                         /lib/x86_64-linux-gnu/libc.so.6
copysignl@@GLIBC_2.2.5                            /lib/x86_64-linux-gnu/libc.so.6
copysignl@GLIBC_2.2.5                             /lib/x86_64-linux-gnu/libc.so.6
creat                                             /lib/x86_64-linux-gnu/libc.so.6
creat64                                           /lib/x86_64-linux-gnu/libc.so.6
creat64@@GLIBC_2.2.5                              /lib/x86_64-linux-gnu/libc.so.6
creat64@GLIBC_2.2.5                               /lib/x86_64-linux-gnu/libc.so.6
creat@@GLIBC_2.2.5                                /lib/x86_64-linux-gnu/libc.so.6
creat@GLIBC_2.2.5                                 /lib/x86_64-linux-gnu/libc.so.6
csum_fwd_engine                                   csumonly.o
                                                  testpmd.o
cur_fwd_config                                    config.o
                                                  testpmd.o
cur_fwd_eng                                       testpmd.o
                                                  config.o
data_start                                        /usr/lib/gcc/x86_64-linux-gnu/4.6/../../../x86_64-linux-gnu/crt1.o
daylight                                          /lib/x86_64-linux-gnu/libc.so.6
daylight@@GLIBC_2.2.5                             /lib/x86_64-linux-gnu/libc.so.6
daylight@GLIBC_2.2.5                              /lib/x86_64-linux-gnu/libc.so.6
dcb_config                                        testpmd.o
                                                  config.o
dcb_q_mapping                                     testpmd.o
                                                  config.o
dcb_test                                          testpmd.o
dcgettext                                         /lib/x86_64-linux-gnu/libc.so.6
dcgettext@@GLIBC_2.2.5                            /lib/x86_64-linux-gnu/libc.so.6
dcgettext@GLIBC_2.2.5                             /lib/x86_64-linux-gnu/libc.so.6
dcngettext                                        /lib/x86_64-linux-gnu/libc.so.6
dcngettext@@GLIBC_2.2.5                           /lib/x86_64-linux-gnu/libc.so.6
dcngettext@GLIBC_2.2.5                            /lib/x86_64-linux-gnu/libc.so.6
dev_types                                         /home/born/DPDK-OVS/DPDK-1.6.0/build/lib/librte_eal.a(eal_common_nonpci_devs.o)
device_list                                       /home/born/DPDK-OVS/DPDK-1.6.0/build/lib/librte_eal.a(eal_common_pci.o)
                                                  /home/born/DPDK-OVS/DPDK-1.6.0/build/lib/librte_eal.a(eal_ivshmem.o)
                                                  /home/born/DPDK-OVS/DPDK-1.6.0/build/lib/librte_eal.a(eal_pci.o)
dgettext                                          /lib/x86_64-linux-gnu/libc.so.6
dgettext@@GLIBC_2.2.5                             /lib/x86_64-linux-gnu/libc.so.6
dgettext@GLIBC_2.2.5                              /lib/x86_64-linux-gnu/libc.so.6
dirfd                                             /lib/x86_64-linux-gnu/libc.so.6
                                                  /home/born/DPDK-OVS/DPDK-1.6.0/build/lib/librte_eal.a(eal_hugepage_info.o)
dirfd@@GLIBC_2.2.5                                /lib/x86_64-linux-gnu/libc.so.6
dirfd@GLIBC_2.2.5                                 /lib/x86_64-linux-gnu/libc.so.6
dl_iterate_phdr                                   /lib/x86_64-linux-gnu/libc.so.6
dl_iterate_phdr@@GLIBC_2.2.5                      /lib/x86_64-linux-gnu/libc.so.6
dl_iterate_phdr@GLIBC_2.2.5                       /lib/x86_64-linux-gnu/libc.so.6
dngettext                                         /lib/x86_64-linux-gnu/libc.so.6
dngettext@@GLIBC_2.2.5                            /lib/x86_64-linux-gnu/libc.so.6
dngettext@GLIBC_2.2.5                             /lib/x86_64-linux-gnu/libc.so.6
driver_list                                       /home/born/DPDK-OVS/DPDK-1.6.0/build/lib/librte_eal.a(eal_common_pci.o)
                                                  /home/born/DPDK-OVS/DPDK-1.6.0/build/lib/librte_eal.a(eal_pci.o)
dup                                               /lib/x86_64-linux-gnu/libc.so.6
dup2                                              /lib/x86_64-linux-gnu/libc.so.6
dup2@@GLIBC_2.2.5                                 /lib/x86_64-linux-gnu/libc.so.6
dup2@GLIBC_2.2.5                                  /lib/x86_64-linux-gnu/libc.so.6
dup@@GLIBC_2.2.5                                  /lib/x86_64-linux-gnu/libc.so.6
dup@GLIBC_2.2.5                                   /lib/x86_64-linux-gnu/libc.so.6
duplocale                                         /lib/x86_64-linux-gnu/libc.so.6
duplocale@@GLIBC_2.3                              /lib/x86_64-linux-gnu/libc.so.6
duplocale@GLIBC_2.3                               /lib/x86_64-linux-gnu/libc.so.6
e1000_acquire_nvm_generic                         /home/born/DPDK-OVS/DPDK-1.6.0/build/lib/librte_pmd_e1000.a(e1000_nvm.o)
                                                  /home/born/DPDK-OVS/DPDK-1.6.0/build/lib/librte_pmd_e1000.a(e1000_82540.o)
                                                  /home/born/DPDK-OVS/DPDK-1.6.0/build/lib/librte_pmd_e1000.a(e1000_80003es2lan.o)
                                                  /home/born/DPDK-OVS/DPDK-1.6.0/build/lib/librte_pmd_e1000.a(e1000_82575.o)
                                                  /home/born/DPDK-OVS/DPDK-1.6.0/build/lib/librte_pmd_e1000.a(e1000_82571.o)
                                                  /home/born/DPDK-OVS/DPDK-1.6.0/build/lib/librte_pmd_e1000.a(e1000_82541.o)
e1000_acquire_phy                                 /home/born/DPDK-OVS/DPDK-1.6.0/build/lib/librte_pmd_e1000.a(e1000_api.o)
e1000_acquire_swfw_sync_i210                      /home/born/DPDK-OVS/DPDK-1.6.0/build/lib/librte_pmd_e1000.a(e1000_i210.o)
                                                  /home/born/DPDK-OVS/DPDK-1.6.0/build/lib/librte_pmd_e1000.a(e1000_82575.o)
e1000_blink_led                                   /home/born/DPDK-OVS/DPDK-1.6.0/build/lib/librte_pmd_e1000.a(e1000_api.o)
e1000_blink_led_generic                           /home/born/DPDK-OVS/DPDK-1.6.0/build/lib/librte_pmd_e1000.a(e1000_mac.o)
                                                  /home/born/DPDK-OVS/DPDK-1.6.0/build/lib/librte_pmd_e1000.a(e1000_80003es2lan.o)
                                                  /home/born/DPDK-OVS/DPDK-1.6.0/build/lib/librte_pmd_e1000.a(e1000_ich8lan.o)
                                                  /home/born/DPDK-OVS/DPDK-1.6.0/build/lib/librte_pmd_e1000.a(e1000_82575.o)
                                                  /home/born/DPDK-OVS/DPDK-1.6.0/build/lib/librte_pmd_e1000.a(e1000_82571.o)
e1000_calculate_checksum                          /home/born/DPDK-OVS/DPDK-1.6.0/build/lib/librte_pmd_e1000.a(e1000_manage.o)
e1000_cfg_on_link_up                              /home/born/DPDK-OVS/DPDK-1.6.0/build/lib/librte_pmd_e1000.a(e1000_api.o)
e1000_check_alt_mac_addr_generic                  /home/born/DPDK-OVS/DPDK-1.6.0/build/lib/librte_pmd_e1000.a(e1000_mac.o)
                                                  /home/born/DPDK-OVS/DPDK-1.6.0/build/lib/librte_pmd_e1000.a(e1000_80003es2lan.o)
                                                  /home/born/DPDK-OVS/DPDK-1.6.0/build/lib/librte_pmd_e1000.a(e1000_82575.o)
                                                  /home/born/DPDK-OVS/DPDK-1.6.0/build/lib/librte_pmd_e1000.a(e1000_82571.o)
e1000_check_downshift_generic                     /home/born/DPDK-OVS/DPDK-1.6.0/build/lib/librte_pmd_e1000.a(e1000_phy.o)
                                                  /home/born/DPDK-OVS/DPDK-1.6.0/build/lib/librte_pmd_e1000.a(e1000_mac.o)
                                                  /home/born/DPDK-OVS/DPDK-1.6.0/build/lib/librte_pmd_e1000.a(e1000_ich8lan.o)
                                                  /home/born/DPDK-OVS/DPDK-1.6.0/build/lib/librte_pmd_e1000.a(e1000_82543.o)
                                                  /home/born/DPDK-OVS/DPDK-1.6.0/build/lib/librte_pmd_e1000.a(e1000_82541.o)
e1000_check_for_ack                               /home/born/DPDK-OVS/DPDK-1.6.0/build/lib/librte_pmd_e1000.a(e1000_mbx.o)
                                                  /home/born/DPDK-OVS/DPDK-1.6.0/build/lib/librte_pmd_e1000.a(igb_pf.o)
e1000_check_for_copper_link_generic               /home/born/DPDK-OVS/DPDK-1.6.0/build/lib/librte_pmd_e1000.a(e1000_mac.o)
                                                  /home/born/DPDK-OVS/DPDK-1.6.0/build/lib/librte_pmd_e1000.a(e1000_82540.o)
                                                  /home/born/DPDK-OVS/DPDK-1.6.0/build/lib/librte_pmd_e1000.a(e1000_80003es2lan.o)
                                                  /home/born/DPDK-OVS/DPDK-1.6.0/build/lib/librte_pmd_e1000.a(e1000_82575.o)
                                                  /home/born/DPDK-OVS/DPDK-1.6.0/build/lib/librte_pmd_e1000.a(e1000_82571.o)
e1000_check_for_fiber_link_generic                /home/born/DPDK-OVS/DPDK-1.6.0/build/lib/librte_pmd_e1000.a(e1000_mac.o)
                                                  /home/born/DPDK-OVS/DPDK-1.6.0/build/lib/librte_pmd_e1000.a(e1000_82542.o)
                                                  /home/born/DPDK-OVS/DPDK-1.6.0/build/lib/librte_pmd_e1000.a(e1000_82540.o)
                                                  /home/born/DPDK-OVS/DPDK-1.6.0/build/lib/librte_pmd_e1000.a(e1000_82571.o)
e1000_check_for_link                              /home/born/DPDK-OVS/DPDK-1.6.0/build/lib/librte_pmd_e1000.a(e1000_api.o)
                                                  /home/born/DPDK-OVS/DPDK-1.6.0/build/lib/librte_pmd_e1000.a(em_ethdev.o)
                                                  /home/born/DPDK-OVS/DPDK-1.6.0/build/lib/librte_pmd_e1000.a(igb_ethdev.o)
e1000_check_for_msg                               /home/born/DPDK-OVS/DPDK-1.6.0/build/lib/librte_pmd_e1000.a(e1000_mbx.o)
                                                  /home/born/DPDK-OVS/DPDK-1.6.0/build/lib/librte_pmd_e1000.a(igb_pf.o)
e1000_check_for_rst                               /home/born/DPDK-OVS/DPDK-1.6.0/build/lib/librte_pmd_e1000.a(e1000_mbx.o)
                                                  /home/born/DPDK-OVS/DPDK-1.6.0/build/lib/librte_pmd_e1000.a(igb_pf.o)
                                                  /home/born/DPDK-OVS/DPDK-1.6.0/build/lib/librte_pmd_e1000.a(igb_ethdev.o)
e1000_check_for_serdes_link_generic               /home/born/DPDK-OVS/DPDK-1.6.0/build/lib/librte_pmd_e1000.a(e1000_mac.o)
                                                  /home/born/DPDK-OVS/DPDK-1.6.0/build/lib/librte_pmd_e1000.a(e1000_82540.o)
                                                  /home/born/DPDK-OVS/DPDK-1.6.0/build/lib/librte_pmd_e1000.a(e1000_80003es2lan.o)
e1000_check_mng_mode                              /home/born/DPDK-OVS/DPDK-1.6.0/build/lib/librte_pmd_e1000.a(e1000_api.o)
e1000_check_mng_mode_generic                      /home/born/DPDK-OVS/DPDK-1.6.0/build/lib/librte_pmd_e1000.a(e1000_manage.o)
                                                  /home/born/DPDK-OVS/DPDK-1.6.0/build/lib/librte_pmd_e1000.a(e1000_80003es2lan.o)
                                                  /home/born/DPDK-OVS/DPDK-1.6.0/build/lib/librte_pmd_e1000.a(e1000_82571.o)
e1000_check_phy_82574                             /home/born/DPDK-OVS/DPDK-1.6.0/build/lib/librte_pmd_e1000.a(e1000_82571.o)
e1000_check_polarity_82577                        /home/born/DPDK-OVS/DPDK-1.6.0/build/lib/librte_pmd_e1000.a(e1000_phy.o)
                                                  /home/born/DPDK-OVS/DPDK-1.6.0/build/lib/librte_pmd_e1000.a(e1000_ich8lan.o)
                                                  /home/born/DPDK-OVS/DPDK-1.6.0/build/lib/librte_pmd_e1000.a(e1000_82575.o)
e1000_check_polarity_ife                          /home/born/DPDK-OVS/DPDK-1.6.0/build/lib/librte_pmd_e1000.a(e1000_phy.o)
                                                  /home/born/DPDK-OVS/DPDK-1.6.0/build/lib/librte_pmd_e1000.a(e1000_ich8lan.o)
e1000_check_polarity_igp                          /home/born/DPDK-OVS/DPDK-1.6.0/build/lib/librte_pmd_e1000.a(e1000_phy.o)
                                                  /home/born/DPDK-OVS/DPDK-1.6.0/build/lib/librte_pmd_e1000.a(e1000_ich8lan.o)
                                                  /home/born/DPDK-OVS/DPDK-1.6.0/build/lib/librte_pmd_e1000.a(e1000_82575.o)
                                                  /home/born/DPDK-OVS/DPDK-1.6.0/build/lib/librte_pmd_e1000.a(e1000_82571.o)
                                                  /home/born/DPDK-OVS/DPDK-1.6.0/build/lib/librte_pmd_e1000.a(e1000_82541.o)
e1000_check_polarity_m88                          /home/born/DPDK-OVS/DPDK-1.6.0/build/lib/librte_pmd_e1000.a(e1000_phy.o)
                                                  /home/born/DPDK-OVS/DPDK-1.6.0/build/lib/librte_pmd_e1000.a(e1000_82540.o)
                                                  /home/born/DPDK-OVS/DPDK-1.6.0/build/lib/librte_pmd_e1000.a(e1000_80003es2lan.o)
                                                  /home/born/DPDK-OVS/DPDK-1.6.0/build/lib/librte_pmd_e1000.a(e1000_ich8lan.o)
                                                  /home/born/DPDK-OVS/DPDK-1.6.0/build/lib/librte_pmd_e1000.a(e1000_82575.o)
                                                  /home/born/DPDK-OVS/DPDK-1.6.0/build/lib/librte_pmd_e1000.a(e1000_82571.o)
                                                  /home/born/DPDK-OVS/DPDK-1.6.0/build/lib/librte_pmd_e1000.a(e1000_82543.o)
e1000_check_reset_block                           /home/born/DPDK-OVS/DPDK-1.6.0/build/lib/librte_pmd_e1000.a(e1000_api.o)
                                                  /home/born/DPDK-OVS/DPDK-1.6.0/build/lib/librte_pmd_e1000.a(em_ethdev.o)
                                                  /home/born/DPDK-OVS/DPDK-1.6.0/build/lib/librte_pmd_e1000.a(igb_ethdev.o)
e1000_check_reset_block_generic                   /home/born/DPDK-OVS/DPDK-1.6.0/build/lib/librte_pmd_e1000.a(e1000_phy.o)
                                                  /home/born/DPDK-OVS/DPDK-1.6.0/build/lib/librte_pmd_e1000.a(e1000_80003es2lan.o)
                                                  /home/born/DPDK-OVS/DPDK-1.6.0/build/lib/librte_pmd_e1000.a(e1000_82575.o)
                                                  /home/born/DPDK-OVS/DPDK-1.6.0/build/lib/librte_pmd_e1000.a(e1000_82571.o)
e1000_cleanup_led                                 /home/born/DPDK-OVS/DPDK-1.6.0/build/lib/librte_pmd_e1000.a(e1000_api.o)
e1000_cleanup_led_generic                         /home/born/DPDK-OVS/DPDK-1.6.0/build/lib/librte_pmd_e1000.a(e1000_mac.o)
                                                  /home/born/DPDK-OVS/DPDK-1.6.0/build/lib/librte_pmd_e1000.a(e1000_82540.o)
                                                  /home/born/DPDK-OVS/DPDK-1.6.0/build/lib/librte_pmd_e1000.a(e1000_80003es2lan.o)
                                                  /home/born/DPDK-OVS/DPDK-1.6.0/build/lib/librte_pmd_e1000.a(e1000_82575.o)
                                                  /home/born/DPDK-OVS/DPDK-1.6.0/build/lib/librte_pmd_e1000.a(e1000_82571.o)
e1000_clear_hw_cntrs_base_generic                 /home/born/DPDK-OVS/DPDK-1.6.0/build/lib/librte_pmd_e1000.a(e1000_mac.o)
                                                  /home/born/DPDK-OVS/DPDK-1.6.0/build/lib/librte_pmd_e1000.a(e1000_82542.o)
                                                  /home/born/DPDK-OVS/DPDK-1.6.0/build/lib/librte_pmd_e1000.a(e1000_82540.o)
                                                  /home/born/DPDK-OVS/DPDK-1.6.0/build/lib/librte_pmd_e1000.a(e1000_80003es2lan.o)
                                                  /home/born/DPDK-OVS/DPDK-1.6.0/build/lib/librte_pmd_e1000.a(e1000_ich8lan.o)
                                                  /home/born/DPDK-OVS/DPDK-1.6.0/build/lib/librte_pmd_e1000.a(e1000_82575.o)
                                                  /home/born/DPDK-OVS/DPDK-1.6.0/build/lib/librte_pmd_e1000.a(e1000_82571.o)
                                                  /home/born/DPDK-OVS/DPDK-1.6.0/build/lib/librte_pmd_e1000.a(e1000_82543.o)
                                                  /home/born/DPDK-OVS/DPDK-1.6.0/build/lib/librte_pmd_e1000.a(e1000_82541.o)
                                                  /home/born/DPDK-OVS/DPDK-1.6.0/build/lib/librte_pmd_e1000.a(em_ethdev.o)
                                                  /home/born/DPDK-OVS/DPDK-1.6.0/build/lib/librte_pmd_e1000.a(igb_ethdev.o)
e1000_clear_vfta                                  /home/born/DPDK-OVS/DPDK-1.6.0/build/lib/librte_pmd_e1000.a(e1000_api.o)
e1000_clear_vfta_generic                          /home/born/DPDK-OVS/DPDK-1.6.0/build/lib/librte_pmd_e1000.a(e1000_mac.o)
                                                  /home/born/DPDK-OVS/DPDK-1.6.0/build/lib/librte_pmd_e1000.a(e1000_82542.o)
                                                  /home/born/DPDK-OVS/DPDK-1.6.0/build/lib/librte_pmd_e1000.a(e1000_82540.o)
                                                  /home/born/DPDK-OVS/DPDK-1.6.0/build/lib/librte_pmd_e1000.a(e1000_80003es2lan.o)
                                                  /home/born/DPDK-OVS/DPDK-1.6.0/build/lib/librte_pmd_e1000.a(e1000_82575.o)
                                                  /home/born/DPDK-OVS/DPDK-1.6.0/build/lib/librte_pmd_e1000.a(e1000_82543.o)
                                                  /home/born/DPDK-OVS/DPDK-1.6.0/build/lib/librte_pmd_e1000.a(e1000_82541.o)
e1000_commit_fc_settings_generic                  /home/born/DPDK-OVS/DPDK-1.6.0/build/lib/librte_pmd_e1000.a(e1000_mac.o)
                                                  /home/born/DPDK-OVS/DPDK-1.6.0/build/lib/librte_pmd_e1000.a(e1000_82543.o)
e1000_config_collision_dist                       /home/born/DPDK-OVS/DPDK-1.6.0/build/lib/librte_pmd_e1000.a(e1000_api.o)
                                                  /home/born/DPDK-OVS/DPDK-1.6.0/build/lib/librte_pmd_e1000.a(igb_rxtx.o)
e1000_config_fc_after_link_up_generic             /home/born/DPDK-OVS/DPDK-1.6.0/build/lib/librte_pmd_e1000.a(e1000_mac.o)
                                                  /home/born/DPDK-OVS/DPDK-1.6.0/build/lib/librte_pmd_e1000.a(e1000_phy.o)
                                                  /home/born/DPDK-OVS/DPDK-1.6.0/build/lib/librte_pmd_e1000.a(e1000_ich8lan.o)
                                                  /home/born/DPDK-OVS/DPDK-1.6.0/build/lib/librte_pmd_e1000.a(e1000_82575.o)
                                                  /home/born/DPDK-OVS/DPDK-1.6.0/build/lib/librte_pmd_e1000.a(e1000_82571.o)
                                                  /home/born/DPDK-OVS/DPDK-1.6.0/build/lib/librte_pmd_e1000.a(e1000_82543.o)
                                                  /home/born/DPDK-OVS/DPDK-1.6.0/build/lib/librte_pmd_e1000.a(e1000_82541.o)
e1000_configure_k1_ich8lan                        /home/born/DPDK-OVS/DPDK-1.6.0/build/lib/librte_pmd_e1000.a(e1000_ich8lan.o)
e1000_copper_link_autoneg                         /home/born/DPDK-OVS/DPDK-1.6.0/build/lib/librte_pmd_e1000.a(e1000_phy.o)
                                                  /home/born/DPDK-OVS/DPDK-1.6.0/build/lib/librte_pmd_e1000.a(e1000_82543.o)
e1000_copper_link_setup_82577                     /home/born/DPDK-OVS/DPDK-1.6.0/build/lib/librte_pmd_e1000.a(e1000_phy.o)
                                                  /home/born/DPDK-OVS/DPDK-1.6.0/build/lib/librte_pmd_e1000.a(e1000_ich8lan.o)
                                                  /home/born/DPDK-OVS/DPDK-1.6.0/build/lib/librte_pmd_e1000.a(e1000_82575.o)
e1000_copper_link_setup_igp                       /home/born/DPDK-OVS/DPDK-1.6.0/build/lib/librte_pmd_e1000.a(e1000_phy.o)
                                                  /home/born/DPDK-OVS/DPDK-1.6.0/build/lib/librte_pmd_e1000.a(e1000_ich8lan.o)
                                                  /home/born/DPDK-OVS/DPDK-1.6.0/build/lib/librte_pmd_e1000.a(e1000_82575.o)
                                                  /home/born/DPDK-OVS/DPDK-1.6.0/build/lib/librte_pmd_e1000.a(e1000_82571.o)
                                                  /home/born/DPDK-OVS/DPDK-1.6.0/build/lib/librte_pmd_e1000.a(e1000_82541.o)
e1000_copper_link_setup_m88                       /home/born/DPDK-OVS/DPDK-1.6.0/build/lib/librte_pmd_e1000.a(e1000_phy.o)
                                                  /home/born/DPDK-OVS/DPDK-1.6.0/build/lib/librte_pmd_e1000.a(e1000_82540.o)
                                                  /home/born/DPDK-OVS/DPDK-1.6.0/build/lib/librte_pmd_e1000.a(e1000_ich8lan.o)
                                                  /home/born/DPDK-OVS/DPDK-1.6.0/build/lib/librte_pmd_e1000.a(e1000_82575.o)
                                                  /home/born/DPDK-OVS/DPDK-1.6.0/build/lib/librte_pmd_e1000.a(e1000_82571.o)
                                                  /home/born/DPDK-OVS/DPDK-1.6.0/build/lib/librte_pmd_e1000.a(e1000_82543.o)
e1000_copper_link_setup_m88_gen2                  /home/born/DPDK-OVS/DPDK-1.6.0/build/lib/librte_pmd_e1000.a(e1000_phy.o)
                                                  /home/born/DPDK-OVS/DPDK-1.6.0/build/lib/librte_pmd_e1000.a(e1000_82575.o)
e1000_copy_rx_addrs_to_phy_ich8lan                /home/born/DPDK-OVS/DPDK-1.6.0/build/lib/librte_pmd_e1000.a(e1000_ich8lan.o)
e1000_determine_phy_address                       /home/born/DPDK-OVS/DPDK-1.6.0/build/lib/librte_pmd_e1000.a(e1000_phy.o)
                                                  /home/born/DPDK-OVS/DPDK-1.6.0/build/lib/librte_pmd_e1000.a(e1000_ich8lan.o)
e1000_disable_pcie_master                         /home/born/DPDK-OVS/DPDK-1.6.0/build/lib/librte_pmd_e1000.a(e1000_api.o)
e1000_disable_pcie_master_generic                 /home/born/DPDK-OVS/DPDK-1.6.0/build/lib/librte_pmd_e1000.a(e1000_mac.o)
                                                  /home/born/DPDK-OVS/DPDK-1.6.0/build/lib/librte_pmd_e1000.a(e1000_80003es2lan.o)
                                                  /home/born/DPDK-OVS/DPDK-1.6.0/build/lib/librte_pmd_e1000.a(e1000_ich8lan.o)
                                                  /home/born/DPDK-OVS/DPDK-1.6.0/build/lib/librte_pmd_e1000.a(e1000_api.o)
                                                  /home/born/DPDK-OVS/DPDK-1.6.0/build/lib/librte_pmd_e1000.a(e1000_82575.o)
                                                  /home/born/DPDK-OVS/DPDK-1.6.0/build/lib/librte_pmd_e1000.a(e1000_82571.o)
e1000_disable_phy_wakeup_reg_access_bm            /home/born/DPDK-OVS/DPDK-1.6.0/build/lib/librte_pmd_e1000.a(e1000_phy.o)
                                                  /home/born/DPDK-OVS/DPDK-1.6.0/build/lib/librte_pmd_e1000.a(e1000_ich8lan.o)
e1000_disable_ulp_lpt_lp                          /home/born/DPDK-OVS/DPDK-1.6.0/build/lib/librte_pmd_e1000.a(e1000_ich8lan.o)
e1000_enable_mng_pass_thru                        /home/born/DPDK-OVS/DPDK-1.6.0/build/lib/librte_pmd_e1000.a(e1000_manage.o)
                                                  /home/born/DPDK-OVS/DPDK-1.6.0/build/lib/librte_pmd_e1000.a(e1000_82575.o)
                                                  /home/born/DPDK-OVS/DPDK-1.6.0/build/lib/librte_pmd_e1000.a(em_ethdev.o)
                                                  /home/born/DPDK-OVS/DPDK-1.6.0/build/lib/librte_pmd_e1000.a(igb_ethdev.o)
e1000_enable_phy_wakeup_reg_access_bm             /home/born/DPDK-OVS/DPDK-1.6.0/build/lib/librte_pmd_e1000.a(e1000_phy.o)
                                                  /home/born/DPDK-OVS/DPDK-1.6.0/build/lib/librte_pmd_e1000.a(e1000_ich8lan.o)
e1000_enable_tx_pkt_filtering                     /home/born/DPDK-OVS/DPDK-1.6.0/build/lib/librte_pmd_e1000.a(e1000_api.o)
e1000_enable_tx_pkt_filtering_generic             /home/born/DPDK-OVS/DPDK-1.6.0/build/lib/librte_pmd_e1000.a(e1000_manage.o)
                                                  /home/born/DPDK-OVS/DPDK-1.6.0/build/lib/librte_pmd_e1000.a(e1000_api.o)
                                                  /home/born/DPDK-OVS/DPDK-1.6.0/build/lib/librte_pmd_e1000.a(e1000_82571.o)
e1000_enable_ulp_lpt_lp                           /home/born/DPDK-OVS/DPDK-1.6.0/build/lib/librte_pmd_e1000.a(e1000_ich8lan.o)
e1000_force_mac_fc                                /home/born/DPDK-OVS/DPDK-1.6.0/build/lib/librte_pmd_e1000.a(e1000_api.o)
e1000_force_mac_fc_generic                        /home/born/DPDK-OVS/DPDK-1.6.0/build/lib/librte_pmd_e1000.a(e1000_mac.o)
                                                  /home/born/DPDK-OVS/DPDK-1.6.0/build/lib/librte_pmd_e1000.a(e1000_api.o)
                                                  /home/born/DPDK-OVS/DPDK-1.6.0/build/lib/librte_pmd_e1000.a(e1000_82575.o)
e1000_get_auto_rd_done_generic                    /home/born/DPDK-OVS/DPDK-1.6.0/build/lib/librte_pmd_e1000.a(e1000_mac.o)
                                                  /home/born/DPDK-OVS/DPDK-1.6.0/build/lib/librte_pmd_e1000.a(e1000_80003es2lan.o)
                                                  /home/born/DPDK-OVS/DPDK-1.6.0/build/lib/librte_pmd_e1000.a(e1000_ich8lan.o)
                                                  /home/born/DPDK-OVS/DPDK-1.6.0/build/lib/librte_pmd_e1000.a(e1000_82575.o)
                                                  /home/born/DPDK-OVS/DPDK-1.6.0/build/lib/librte_pmd_e1000.a(e1000_82571.o)
e1000_get_bus_info                                /home/born/DPDK-OVS/DPDK-1.6.0/build/lib/librte_pmd_e1000.a(e1000_api.o)
                                                  /home/born/DPDK-OVS/DPDK-1.6.0/build/lib/librte_pmd_e1000.a(em_ethdev.o)
                                                  /home/born/DPDK-OVS/DPDK-1.6.0/build/lib/librte_pmd_e1000.a(igb_ethdev.o)
e1000_get_bus_info_pci_generic                    /home/born/DPDK-OVS/DPDK-1.6.0/build/lib/librte_pmd_e1000.a(e1000_mac.o)
                                                  /home/born/DPDK-OVS/DPDK-1.6.0/build/lib/librte_pmd_e1000.a(e1000_82540.o)
                                                  /home/born/DPDK-OVS/DPDK-1.6.0/build/lib/librte_pmd_e1000.a(e1000_82543.o)
                                                  /home/born/DPDK-OVS/DPDK-1.6.0/build/lib/librte_pmd_e1000.a(e1000_82541.o)
e1000_get_bus_info_pcie_generic                   /home/born/DPDK-OVS/DPDK-1.6.0/build/lib/librte_pmd_e1000.a(e1000_mac.o)
                                                  /home/born/DPDK-OVS/DPDK-1.6.0/build/lib/librte_pmd_e1000.a(e1000_80003es2lan.o)
                                                  /home/born/DPDK-OVS/DPDK-1.6.0/build/lib/librte_pmd_e1000.a(e1000_ich8lan.o)
                                                  /home/born/DPDK-OVS/DPDK-1.6.0/build/lib/librte_pmd_e1000.a(e1000_82575.o)
                                                  /home/born/DPDK-OVS/DPDK-1.6.0/build/lib/librte_pmd_e1000.a(e1000_82571.o)
e1000_get_cable_length                            /home/born/DPDK-OVS/DPDK-1.6.0/build/lib/librte_pmd_e1000.a(e1000_api.o)
e1000_get_cable_length_82577                      /home/born/DPDK-OVS/DPDK-1.6.0/build/lib/librte_pmd_e1000.a(e1000_phy.o)
                                                  /home/born/DPDK-OVS/DPDK-1.6.0/build/lib/librte_pmd_e1000.a(e1000_ich8lan.o)
                                                  /home/born/DPDK-OVS/DPDK-1.6.0/build/lib/librte_pmd_e1000.a(e1000_82575.o)
e1000_get_cable_length_igp_2                      /home/born/DPDK-OVS/DPDK-1.6.0/build/lib/librte_pmd_e1000.a(e1000_phy.o)
                                                  /home/born/DPDK-OVS/DPDK-1.6.0/build/lib/librte_pmd_e1000.a(e1000_ich8lan.o)
                                                  /home/born/DPDK-OVS/DPDK-1.6.0/build/lib/librte_pmd_e1000.a(e1000_82575.o)
                                                  /home/born/DPDK-OVS/DPDK-1.6.0/build/lib/librte_pmd_e1000.a(e1000_82571.o)
e1000_get_cable_length_m88                        /home/born/DPDK-OVS/DPDK-1.6.0/build/lib/librte_pmd_e1000.a(e1000_phy.o)
                                                  /home/born/DPDK-OVS/DPDK-1.6.0/build/lib/librte_pmd_e1000.a(e1000_82540.o)
                                                  /home/born/DPDK-OVS/DPDK-1.6.0/build/lib/librte_pmd_e1000.a(e1000_ich8lan.o)
                                                  /home/born/DPDK-OVS/DPDK-1.6.0/build/lib/librte_pmd_e1000.a(e1000_82575.o)
                                                  /home/born/DPDK-OVS/DPDK-1.6.0/build/lib/librte_pmd_e1000.a(e1000_82571.o)
                                                  /home/born/DPDK-OVS/DPDK-1.6.0/build/lib/librte_pmd_e1000.a(e1000_82543.o)
e1000_get_cable_length_m88_gen2                   /home/born/DPDK-OVS/DPDK-1.6.0/build/lib/librte_pmd_e1000.a(e1000_phy.o)
                                                  /home/born/DPDK-OVS/DPDK-1.6.0/build/lib/librte_pmd_e1000.a(e1000_82575.o)
e1000_get_cfg_done_generic                        /home/born/DPDK-OVS/DPDK-1.6.0/build/lib/librte_pmd_e1000.a(e1000_phy.o)
                                                  /home/born/DPDK-OVS/DPDK-1.6.0/build/lib/librte_pmd_e1000.a(e1000_82540.o)
                                                  /home/born/DPDK-OVS/DPDK-1.6.0/build/lib/librte_pmd_e1000.a(e1000_ich8lan.o)
                                                  /home/born/DPDK-OVS/DPDK-1.6.0/build/lib/librte_pmd_e1000.a(e1000_82571.o)
                                                  /home/born/DPDK-OVS/DPDK-1.6.0/build/lib/librte_pmd_e1000.a(e1000_82543.o)
                                                  /home/born/DPDK-OVS/DPDK-1.6.0/build/lib/librte_pmd_e1000.a(e1000_82541.o)
e1000_get_eee_status_i354                         /home/born/DPDK-OVS/DPDK-1.6.0/build/lib/librte_pmd_e1000.a(e1000_82575.o)
e1000_get_flash_presence_i210                     /home/born/DPDK-OVS/DPDK-1.6.0/build/lib/librte_pmd_e1000.a(e1000_i210.o)
                                                  /home/born/DPDK-OVS/DPDK-1.6.0/build/lib/librte_pmd_e1000.a(e1000_nvm.o)
e1000_get_fw_version                              /home/born/DPDK-OVS/DPDK-1.6.0/build/lib/librte_pmd_e1000.a(e1000_nvm.o)
e1000_get_hw_semaphore_generic                    /home/born/DPDK-OVS/DPDK-1.6.0/build/lib/librte_pmd_e1000.a(e1000_mac.o)
                                                  /home/born/DPDK-OVS/DPDK-1.6.0/build/lib/librte_pmd_e1000.a(e1000_80003es2lan.o)
                                                  /home/born/DPDK-OVS/DPDK-1.6.0/build/lib/librte_pmd_e1000.a(e1000_82575.o)
e1000_get_laa_state_82571                         /home/born/DPDK-OVS/DPDK-1.6.0/build/lib/librte_pmd_e1000.a(e1000_82571.o)
e1000_get_pba_block_size                          /home/born/DPDK-OVS/DPDK-1.6.0/build/lib/librte_pmd_e1000.a(e1000_nvm.o)
e1000_get_phy_id                                  /home/born/DPDK-OVS/DPDK-1.6.0/build/lib/librte_pmd_e1000.a(e1000_phy.o)
                                                  /home/born/DPDK-OVS/DPDK-1.6.0/build/lib/librte_pmd_e1000.a(e1000_82540.o)
                                                  /home/born/DPDK-OVS/DPDK-1.6.0/build/lib/librte_pmd_e1000.a(e1000_80003es2lan.o)
                                                  /home/born/DPDK-OVS/DPDK-1.6.0/build/lib/librte_pmd_e1000.a(e1000_ich8lan.o)
                                                  /home/born/DPDK-OVS/DPDK-1.6.0/build/lib/librte_pmd_e1000.a(e1000_82575.o)
                                                  /home/born/DPDK-OVS/DPDK-1.6.0/build/lib/librte_pmd_e1000.a(e1000_82571.o)
                                                  /home/born/DPDK-OVS/DPDK-1.6.0/build/lib/librte_pmd_e1000.a(e1000_82543.o)
                                                  /home/born/DPDK-OVS/DPDK-1.6.0/build/lib/librte_pmd_e1000.a(e1000_82541.o)
e1000_get_phy_info                                /home/born/DPDK-OVS/DPDK-1.6.0/build/lib/librte_pmd_e1000.a(e1000_api.o)
                                                  /home/born/DPDK-OVS/DPDK-1.6.0/build/lib/librte_pmd_e1000.a(igb_ethdev.o)
e1000_get_phy_info_82577                          /home/born/DPDK-OVS/DPDK-1.6.0/build/lib/librte_pmd_e1000.a(e1000_phy.o)
                                                  /home/born/DPDK-OVS/DPDK-1.6.0/build/lib/librte_pmd_e1000.a(e1000_ich8lan.o)
                                                  /home/born/DPDK-OVS/DPDK-1.6.0/build/lib/librte_pmd_e1000.a(e1000_82575.o)
e1000_get_phy_info_ife                            /home/born/DPDK-OVS/DPDK-1.6.0/build/lib/librte_pmd_e1000.a(e1000_phy.o)
                                                  /home/born/DPDK-OVS/DPDK-1.6.0/build/lib/librte_pmd_e1000.a(e1000_ich8lan.o)
e1000_get_phy_info_igp                            /home/born/DPDK-OVS/DPDK-1.6.0/build/lib/librte_pmd_e1000.a(e1000_phy.o)
                                                  /home/born/DPDK-OVS/DPDK-1.6.0/build/lib/librte_pmd_e1000.a(e1000_ich8lan.o)
                                                  /home/born/DPDK-OVS/DPDK-1.6.0/build/lib/librte_pmd_e1000.a(e1000_82575.o)
                                                  /home/born/DPDK-OVS/DPDK-1.6.0/build/lib/librte_pmd_e1000.a(e1000_82571.o)
                                                  /home/born/DPDK-OVS/DPDK-1.6.0/build/lib/librte_pmd_e1000.a(e1000_82541.o)
e1000_get_phy_info_m88                            /home/born/DPDK-OVS/DPDK-1.6.0/build/lib/librte_pmd_e1000.a(e1000_phy.o)
                                                  /home/born/DPDK-OVS/DPDK-1.6.0/build/lib/librte_pmd_e1000.a(e1000_82540.o)
                                                  /home/born/DPDK-OVS/DPDK-1.6.0/build/lib/librte_pmd_e1000.a(e1000_80003es2lan.o)
                                                  /home/born/DPDK-OVS/DPDK-1.6.0/build/lib/librte_pmd_e1000.a(e1000_ich8lan.o)
                                                  /home/born/DPDK-OVS/DPDK-1.6.0/build/lib/librte_pmd_e1000.a(e1000_82575.o)
                                                  /home/born/DPDK-OVS/DPDK-1.6.0/build/lib/librte_pmd_e1000.a(e1000_82571.o)
                                                  /home/born/DPDK-OVS/DPDK-1.6.0/build/lib/librte_pmd_e1000.a(e1000_82543.o)
e1000_get_phy_type_from_id                        /home/born/DPDK-OVS/DPDK-1.6.0/build/lib/librte_pmd_e1000.a(e1000_phy.o)
                                                  /home/born/DPDK-OVS/DPDK-1.6.0/build/lib/librte_pmd_e1000.a(e1000_ich8lan.o)
e1000_get_speed_and_duplex                        /home/born/DPDK-OVS/DPDK-1.6.0/build/lib/librte_pmd_e1000.a(e1000_api.o)
e1000_get_speed_and_duplex_copper_generic         /home/born/DPDK-OVS/DPDK-1.6.0/build/lib/librte_pmd_e1000.a(e1000_mac.o)
                                                  /home/born/DPDK-OVS/DPDK-1.6.0/build/lib/librte_pmd_e1000.a(e1000_82540.o)
                                                  /home/born/DPDK-OVS/DPDK-1.6.0/build/lib/librte_pmd_e1000.a(e1000_80003es2lan.o)
                                                  /home/born/DPDK-OVS/DPDK-1.6.0/build/lib/librte_pmd_e1000.a(e1000_ich8lan.o)
                                                  /home/born/DPDK-OVS/DPDK-1.6.0/build/lib/librte_pmd_e1000.a(e1000_82575.o)
                                                  /home/born/DPDK-OVS/DPDK-1.6.0/build/lib/librte_pmd_e1000.a(e1000_82571.o)
                                                  /home/born/DPDK-OVS/DPDK-1.6.0/build/lib/librte_pmd_e1000.a(e1000_82543.o)
                                                  /home/born/DPDK-OVS/DPDK-1.6.0/build/lib/librte_pmd_e1000.a(e1000_82541.o)
e1000_get_speed_and_duplex_fiber_serdes_generic   /home/born/DPDK-OVS/DPDK-1.6.0/build/lib/librte_pmd_e1000.a(e1000_mac.o)
                                                  /home/born/DPDK-OVS/DPDK-1.6.0/build/lib/librte_pmd_e1000.a(e1000_82542.o)
                                                  /home/born/DPDK-OVS/DPDK-1.6.0/build/lib/librte_pmd_e1000.a(e1000_82540.o)
                                                  /home/born/DPDK-OVS/DPDK-1.6.0/build/lib/librte_pmd_e1000.a(e1000_80003es2lan.o)
                                                  /home/born/DPDK-OVS/DPDK-1.6.0/build/lib/librte_pmd_e1000.a(e1000_82571.o)
                                                  /home/born/DPDK-OVS/DPDK-1.6.0/build/lib/librte_pmd_e1000.a(e1000_82543.o)
e1000_gig_downshift_workaround_ich8lan            /home/born/DPDK-OVS/DPDK-1.6.0/build/lib/librte_pmd_e1000.a(e1000_ich8lan.o)
e1000_hash_mc_addr                                /home/born/DPDK-OVS/DPDK-1.6.0/build/lib/librte_pmd_e1000.a(e1000_api.o)
e1000_hash_mc_addr_generic                        /home/born/DPDK-OVS/DPDK-1.6.0/build/lib/librte_pmd_e1000.a(e1000_mac.o)
                                                  /home/born/DPDK-OVS/DPDK-1.6.0/build/lib/librte_pmd_e1000.a(e1000_api.o)
e1000_host_interface_command                      /home/born/DPDK-OVS/DPDK-1.6.0/build/lib/librte_pmd_e1000.a(e1000_manage.o)
e1000_i2c_bus_clear                               /home/born/DPDK-OVS/DPDK-1.6.0/build/lib/librte_pmd_e1000.a(e1000_82575.o)
e1000_id_led_init                                 /home/born/DPDK-OVS/DPDK-1.6.0/build/lib/librte_pmd_e1000.a(e1000_api.o)
e1000_id_led_init_generic                         /home/born/DPDK-OVS/DPDK-1.6.0/build/lib/librte_pmd_e1000.a(e1000_mac.o)
                                                  /home/born/DPDK-OVS/DPDK-1.6.0/build/lib/librte_pmd_e1000.a(e1000_82540.o)
                                                  /home/born/DPDK-OVS/DPDK-1.6.0/build/lib/librte_pmd_e1000.a(e1000_80003es2lan.o)
                                                  /home/born/DPDK-OVS/DPDK-1.6.0/build/lib/librte_pmd_e1000.a(e1000_ich8lan.o)
                                                  /home/born/DPDK-OVS/DPDK-1.6.0/build/lib/librte_pmd_e1000.a(e1000_82575.o)
                                                  /home/born/DPDK-OVS/DPDK-1.6.0/build/lib/librte_pmd_e1000.a(e1000_82571.o)
                                                  /home/born/DPDK-OVS/DPDK-1.6.0/build/lib/librte_pmd_e1000.a(e1000_82541.o)
e1000_igp3_phy_powerdown_workaround_ich8lan       /home/born/DPDK-OVS/DPDK-1.6.0/build/lib/librte_pmd_e1000.a(e1000_ich8lan.o)
e1000_init_function_pointers_80003es2lan          /home/born/DPDK-OVS/DPDK-1.6.0/build/lib/librte_pmd_e1000.a(e1000_80003es2lan.o)
                                                  /home/born/DPDK-OVS/DPDK-1.6.0/build/lib/librte_pmd_e1000.a(e1000_api.o)
e1000_init_function_pointers_82540                /home/born/DPDK-OVS/DPDK-1.6.0/build/lib/librte_pmd_e1000.a(e1000_82540.o)
                                                  /home/born/DPDK-OVS/DPDK-1.6.0/build/lib/librte_pmd_e1000.a(e1000_api.o)
e1000_init_function_pointers_82541                /home/born/DPDK-OVS/DPDK-1.6.0/build/lib/librte_pmd_e1000.a(e1000_82541.o)
                                                  /home/born/DPDK-OVS/DPDK-1.6.0/build/lib/librte_pmd_e1000.a(e1000_api.o)
e1000_init_function_pointers_82542                /home/born/DPDK-OVS/DPDK-1.6.0/build/lib/librte_pmd_e1000.a(e1000_82542.o)
                                                  /home/born/DPDK-OVS/DPDK-1.6.0/build/lib/librte_pmd_e1000.a(e1000_api.o)
e1000_init_function_pointers_82543                /home/born/DPDK-OVS/DPDK-1.6.0/build/lib/librte_pmd_e1000.a(e1000_82543.o)
                                                  /home/born/DPDK-OVS/DPDK-1.6.0/build/lib/librte_pmd_e1000.a(e1000_api.o)
e1000_init_function_pointers_82571                /home/born/DPDK-OVS/DPDK-1.6.0/build/lib/librte_pmd_e1000.a(e1000_82571.o)
                                                  /home/born/DPDK-OVS/DPDK-1.6.0/build/lib/librte_pmd_e1000.a(e1000_api.o)
e1000_init_function_pointers_82575                /home/born/DPDK-OVS/DPDK-1.6.0/build/lib/librte_pmd_e1000.a(e1000_82575.o)
                                                  /home/born/DPDK-OVS/DPDK-1.6.0/build/lib/librte_pmd_e1000.a(e1000_api.o)
                                                  /home/born/DPDK-OVS/DPDK-1.6.0/build/lib/librte_pmd_e1000.a(e1000_i210.o)
e1000_init_function_pointers_i210                 /home/born/DPDK-OVS/DPDK-1.6.0/build/lib/librte_pmd_e1000.a(e1000_i210.o)
                                                  /home/born/DPDK-OVS/DPDK-1.6.0/build/lib/librte_pmd_e1000.a(e1000_api.o)
e1000_init_function_pointers_ich8lan              /home/born/DPDK-OVS/DPDK-1.6.0/build/lib/librte_pmd_e1000.a(e1000_ich8lan.o)
                                                  /home/born/DPDK-OVS/DPDK-1.6.0/build/lib/librte_pmd_e1000.a(e1000_api.o)
e1000_init_function_pointers_vf                   /home/born/DPDK-OVS/DPDK-1.6.0/build/lib/librte_pmd_e1000.a(e1000_vf.o)
                                                  /home/born/DPDK-OVS/DPDK-1.6.0/build/lib/librte_pmd_e1000.a(e1000_api.o)
e1000_init_hw                                     /home/born/DPDK-OVS/DPDK-1.6.0/build/lib/librte_pmd_e1000.a(e1000_api.o)
                                                  /home/born/DPDK-OVS/DPDK-1.6.0/build/lib/librte_pmd_e1000.a(em_ethdev.o)
                                                  /home/born/DPDK-OVS/DPDK-1.6.0/build/lib/librte_pmd_e1000.a(igb_ethdev.o)
e1000_init_mac_ops_generic                        /home/born/DPDK-OVS/DPDK-1.6.0/build/lib/librte_pmd_e1000.a(e1000_mac.o)
                                                  /home/born/DPDK-OVS/DPDK-1.6.0/build/lib/librte_pmd_e1000.a(e1000_api.o)
e1000_init_mac_params                             /home/born/DPDK-OVS/DPDK-1.6.0/build/lib/librte_pmd_e1000.a(e1000_api.o)
e1000_init_mbx_ops_generic                        /home/born/DPDK-OVS/DPDK-1.6.0/build/lib/librte_pmd_e1000.a(e1000_mbx.o)
                                                  /home/born/DPDK-OVS/DPDK-1.6.0/build/lib/librte_pmd_e1000.a(e1000_api.o)
e1000_init_mbx_params                             /home/born/DPDK-OVS/DPDK-1.6.0/build/lib/librte_pmd_e1000.a(e1000_api.o)
e1000_init_mbx_params_pf                          /home/born/DPDK-OVS/DPDK-1.6.0/build/lib/librte_pmd_e1000.a(e1000_mbx.o)
                                                  /home/born/DPDK-OVS/DPDK-1.6.0/build/lib/librte_pmd_e1000.a(e1000_82575.o)
e1000_init_mbx_params_vf                          /home/born/DPDK-OVS/DPDK-1.6.0/build/lib/librte_pmd_e1000.a(e1000_mbx.o)
                                                  /home/born/DPDK-OVS/DPDK-1.6.0/build/lib/librte_pmd_e1000.a(e1000_vf.o)
e1000_init_nvm_ops_generic                        /home/born/DPDK-OVS/DPDK-1.6.0/build/lib/librte_pmd_e1000.a(e1000_nvm.o)
                                                  /home/born/DPDK-OVS/DPDK-1.6.0/build/lib/librte_pmd_e1000.a(e1000_api.o)
e1000_init_nvm_params                             /home/born/DPDK-OVS/DPDK-1.6.0/build/lib/librte_pmd_e1000.a(e1000_api.o)
e1000_init_nvm_params_82575                       /home/born/DPDK-OVS/DPDK-1.6.0/build/lib/librte_pmd_e1000.a(e1000_82575.o)
                                                  /home/born/DPDK-OVS/DPDK-1.6.0/build/lib/librte_pmd_e1000.a(e1000_i210.o)
e1000_init_phy_ops_generic                        /home/born/DPDK-OVS/DPDK-1.6.0/build/lib/librte_pmd_e1000.a(e1000_phy.o)
                                                  /home/born/DPDK-OVS/DPDK-1.6.0/build/lib/librte_pmd_e1000.a(e1000_api.o)
e1000_init_phy_params                             /home/born/DPDK-OVS/DPDK-1.6.0/build/lib/librte_pmd_e1000.a(e1000_api.o)
e1000_init_rx_addrs_generic                       /home/born/DPDK-OVS/DPDK-1.6.0/build/lib/librte_pmd_e1000.a(e1000_mac.o)
                                                  /home/born/DPDK-OVS/DPDK-1.6.0/build/lib/librte_pmd_e1000.a(e1000_82542.o)
                                                  /home/born/DPDK-OVS/DPDK-1.6.0/build/lib/librte_pmd_e1000.a(e1000_82540.o)
                                                  /home/born/DPDK-OVS/DPDK-1.6.0/build/lib/librte_pmd_e1000.a(e1000_80003es2lan.o)
                                                  /home/born/DPDK-OVS/DPDK-1.6.0/build/lib/librte_pmd_e1000.a(e1000_ich8lan.o)
                                                  /home/born/DPDK-OVS/DPDK-1.6.0/build/lib/librte_pmd_e1000.a(e1000_82575.o)
                                                  /home/born/DPDK-OVS/DPDK-1.6.0/build/lib/librte_pmd_e1000.a(e1000_82571.o)
                                                  /home/born/DPDK-OVS/DPDK-1.6.0/build/lib/librte_pmd_e1000.a(e1000_82543.o)
                                                  /home/born/DPDK-OVS/DPDK-1.6.0/build/lib/librte_pmd_e1000.a(e1000_82541.o)
e1000_init_script_state_82541                     /home/born/DPDK-OVS/DPDK-1.6.0/build/lib/librte_pmd_e1000.a(e1000_82541.o)
                                                  /home/born/DPDK-OVS/DPDK-1.6.0/build/lib/librte_pmd_e1000.a(em_ethdev.o)
e1000_is_mphy_ready                               /home/born/DPDK-OVS/DPDK-1.6.0/build/lib/librte_pmd_e1000.a(e1000_phy.o)
e1000_led_off                                     /home/born/DPDK-OVS/DPDK-1.6.0/build/lib/librte_pmd_e1000.a(e1000_api.o)
                                                  /home/born/DPDK-OVS/DPDK-1.6.0/build/lib/librte_pmd_e1000.a(em_ethdev.o)
                                                  /home/born/DPDK-OVS/DPDK-1.6.0/build/lib/librte_pmd_e1000.a(igb_ethdev.o)
e1000_led_off_generic                             /home/born/DPDK-OVS/DPDK-1.6.0/build/lib/librte_pmd_e1000.a(e1000_mac.o)
                                                  /home/born/DPDK-OVS/DPDK-1.6.0/build/lib/librte_pmd_e1000.a(e1000_82540.o)
                                                  /home/born/DPDK-OVS/DPDK-1.6.0/build/lib/librte_pmd_e1000.a(e1000_80003es2lan.o)
                                                  /home/born/DPDK-OVS/DPDK-1.6.0/build/lib/librte_pmd_e1000.a(e1000_82575.o)
                                                  /home/born/DPDK-OVS/DPDK-1.6.0/build/lib/librte_pmd_e1000.a(e1000_82571.o)
                                                  /home/born/DPDK-OVS/DPDK-1.6.0/build/lib/librte_pmd_e1000.a(e1000_82541.o)
e1000_led_on                                      /home/born/DPDK-OVS/DPDK-1.6.0/build/lib/librte_pmd_e1000.a(e1000_api.o)
                                                  /home/born/DPDK-OVS/DPDK-1.6.0/build/lib/librte_pmd_e1000.a(em_ethdev.o)
                                                  /home/born/DPDK-OVS/DPDK-1.6.0/build/lib/librte_pmd_e1000.a(igb_ethdev.o)
e1000_led_on_generic                              /home/born/DPDK-OVS/DPDK-1.6.0/build/lib/librte_pmd_e1000.a(e1000_mac.o)
                                                  /home/born/DPDK-OVS/DPDK-1.6.0/build/lib/librte_pmd_e1000.a(e1000_82540.o)
                                                  /home/born/DPDK-OVS/DPDK-1.6.0/build/lib/librte_pmd_e1000.a(e1000_80003es2lan.o)
                                                  /home/born/DPDK-OVS/DPDK-1.6.0/build/lib/librte_pmd_e1000.a(e1000_82575.o)
                                                  /home/born/DPDK-OVS/DPDK-1.6.0/build/lib/librte_pmd_e1000.a(e1000_82571.o)
                                                  /home/born/DPDK-OVS/DPDK-1.6.0/build/lib/librte_pmd_e1000.a(e1000_82541.o)
e1000_link_stall_workaround_hv                    /home/born/DPDK-OVS/DPDK-1.6.0/build/lib/librte_pmd_e1000.a(e1000_phy.o)
                                                  /home/born/DPDK-OVS/DPDK-1.6.0/build/lib/librte_pmd_e1000.a(e1000_ich8lan.o)
e1000_load_firmware                               /home/born/DPDK-OVS/DPDK-1.6.0/build/lib/librte_pmd_e1000.a(e1000_manage.o)
e1000_lv_jumbo_workaround_ich8lan                 /home/born/DPDK-OVS/DPDK-1.6.0/build/lib/librte_pmd_e1000.a(e1000_ich8lan.o)
                                                  /home/born/DPDK-OVS/DPDK-1.6.0/build/lib/librte_pmd_e1000.a(em_rxtx.o)
e1000_mng_enable_host_if                          /home/born/DPDK-OVS/DPDK-1.6.0/build/lib/librte_pmd_e1000.a(e1000_api.o)
e1000_mng_enable_host_if_generic                  /home/born/DPDK-OVS/DPDK-1.6.0/build/lib/librte_pmd_e1000.a(e1000_manage.o)
                                                  /home/born/DPDK-OVS/DPDK-1.6.0/build/lib/librte_pmd_e1000.a(e1000_api.o)
e1000_mng_host_if_write                           /home/born/DPDK-OVS/DPDK-1.6.0/build/lib/librte_pmd_e1000.a(e1000_api.o)
e1000_mng_host_if_write_generic                   /home/born/DPDK-OVS/DPDK-1.6.0/build/lib/librte_pmd_e1000.a(e1000_manage.o)
                                                  /home/born/DPDK-OVS/DPDK-1.6.0/build/lib/librte_pmd_e1000.a(e1000_api.o)
e1000_mng_write_cmd_header                        /home/born/DPDK-OVS/DPDK-1.6.0/build/lib/librte_pmd_e1000.a(e1000_api.o)
e1000_mng_write_cmd_header_generic                /home/born/DPDK-OVS/DPDK-1.6.0/build/lib/librte_pmd_e1000.a(e1000_manage.o)
                                                  /home/born/DPDK-OVS/DPDK-1.6.0/build/lib/librte_pmd_e1000.a(e1000_api.o)
e1000_mng_write_dhcp_info                         /home/born/DPDK-OVS/DPDK-1.6.0/build/lib/librte_pmd_e1000.a(e1000_api.o)
e1000_mng_write_dhcp_info_generic                 /home/born/DPDK-OVS/DPDK-1.6.0/build/lib/librte_pmd_e1000.a(e1000_manage.o)
                                                  /home/born/DPDK-OVS/DPDK-1.6.0/build/lib/librte_pmd_e1000.a(e1000_api.o)
e1000_null_led_default                            /home/born/DPDK-OVS/DPDK-1.6.0/build/lib/librte_pmd_e1000.a(e1000_nvm.o)
e1000_null_link_info                              /home/born/DPDK-OVS/DPDK-1.6.0/build/lib/librte_pmd_e1000.a(e1000_mac.o)
e1000_null_lplu_state                             /home/born/DPDK-OVS/DPDK-1.6.0/build/lib/librte_pmd_e1000.a(e1000_phy.o)
e1000_null_mac_generic                            /home/born/DPDK-OVS/DPDK-1.6.0/build/lib/librte_pmd_e1000.a(e1000_mac.o)
e1000_null_mng_mode                               /home/born/DPDK-OVS/DPDK-1.6.0/build/lib/librte_pmd_e1000.a(e1000_mac.o)
e1000_null_nvm_generic                            /home/born/DPDK-OVS/DPDK-1.6.0/build/lib/librte_pmd_e1000.a(e1000_nvm.o)
e1000_null_ops_generic                            /home/born/DPDK-OVS/DPDK-1.6.0/build/lib/librte_pmd_e1000.a(e1000_mac.o)
                                                  /home/born/DPDK-OVS/DPDK-1.6.0/build/lib/librte_pmd_e1000.a(e1000_phy.o)
                                                  /home/born/DPDK-OVS/DPDK-1.6.0/build/lib/librte_pmd_e1000.a(e1000_nvm.o)
                                                  /home/born/DPDK-OVS/DPDK-1.6.0/build/lib/librte_pmd_e1000.a(e1000_mbx.o)
                                                  /home/born/DPDK-OVS/DPDK-1.6.0/build/lib/librte_pmd_e1000.a(e1000_i210.o)
e1000_null_phy_generic                            /home/born/DPDK-OVS/DPDK-1.6.0/build/lib/librte_pmd_e1000.a(e1000_phy.o)
e1000_null_rar_set                                /home/born/DPDK-OVS/DPDK-1.6.0/build/lib/librte_pmd_e1000.a(e1000_mac.o)
e1000_null_read_nvm                               /home/born/DPDK-OVS/DPDK-1.6.0/build/lib/librte_pmd_e1000.a(e1000_nvm.o)
e1000_null_read_reg                               /home/born/DPDK-OVS/DPDK-1.6.0/build/lib/librte_pmd_e1000.a(e1000_phy.o)
e1000_null_set_page                               /home/born/DPDK-OVS/DPDK-1.6.0/build/lib/librte_pmd_e1000.a(e1000_phy.o)
e1000_null_update_mc                              /home/born/DPDK-OVS/DPDK-1.6.0/build/lib/librte_pmd_e1000.a(e1000_mac.o)
e1000_null_write_nvm                              /home/born/DPDK-OVS/DPDK-1.6.0/build/lib/librte_pmd_e1000.a(e1000_nvm.o)
                                                  /home/born/DPDK-OVS/DPDK-1.6.0/build/lib/librte_pmd_e1000.a(e1000_i210.o)
e1000_null_write_reg                              /home/born/DPDK-OVS/DPDK-1.6.0/build/lib/librte_pmd_e1000.a(e1000_phy.o)
e1000_null_write_vfta                             /home/born/DPDK-OVS/DPDK-1.6.0/build/lib/librte_pmd_e1000.a(e1000_mac.o)
e1000_pci_clear_mwi                               /home/born/DPDK-OVS/DPDK-1.6.0/build/lib/librte_pmd_e1000.a(e1000_osdep.o)
                                                  /home/born/DPDK-OVS/DPDK-1.6.0/build/lib/librte_pmd_e1000.a(e1000_82542.o)
e1000_pci_set_mwi                                 /home/born/DPDK-OVS/DPDK-1.6.0/build/lib/librte_pmd_e1000.a(e1000_osdep.o)
                                                  /home/born/DPDK-OVS/DPDK-1.6.0/build/lib/librte_pmd_e1000.a(e1000_82542.o)
e1000_pcix_mmrbc_workaround_generic               /home/born/DPDK-OVS/DPDK-1.6.0/build/lib/librte_pmd_e1000.a(e1000_mac.o)
                                                  /home/born/DPDK-OVS/DPDK-1.6.0/build/lib/librte_pmd_e1000.a(e1000_82540.o)
                                                  /home/born/DPDK-OVS/DPDK-1.6.0/build/lib/librte_pmd_e1000.a(e1000_82543.o)
e1000_phy_commit                                  /home/born/DPDK-OVS/DPDK-1.6.0/build/lib/librte_pmd_e1000.a(e1000_api.o)
e1000_phy_force_speed_duplex_82577                /home/born/DPDK-OVS/DPDK-1.6.0/build/lib/librte_pmd_e1000.a(e1000_phy.o)
                                                  /home/born/DPDK-OVS/DPDK-1.6.0/build/lib/librte_pmd_e1000.a(e1000_ich8lan.o)
                                                  /home/born/DPDK-OVS/DPDK-1.6.0/build/lib/librte_pmd_e1000.a(e1000_82575.o)
e1000_phy_force_speed_duplex_ife                  /home/born/DPDK-OVS/DPDK-1.6.0/build/lib/librte_pmd_e1000.a(e1000_phy.o)
                                                  /home/born/DPDK-OVS/DPDK-1.6.0/build/lib/librte_pmd_e1000.a(e1000_ich8lan.o)
e1000_phy_force_speed_duplex_igp                  /home/born/DPDK-OVS/DPDK-1.6.0/build/lib/librte_pmd_e1000.a(e1000_phy.o)
                                                  /home/born/DPDK-OVS/DPDK-1.6.0/build/lib/librte_pmd_e1000.a(e1000_ich8lan.o)
                                                  /home/born/DPDK-OVS/DPDK-1.6.0/build/lib/librte_pmd_e1000.a(e1000_82575.o)
                                                  /home/born/DPDK-OVS/DPDK-1.6.0/build/lib/librte_pmd_e1000.a(e1000_82571.o)
                                                  /home/born/DPDK-OVS/DPDK-1.6.0/build/lib/librte_pmd_e1000.a(e1000_82541.o)
e1000_phy_force_speed_duplex_m88                  /home/born/DPDK-OVS/DPDK-1.6.0/build/lib/librte_pmd_e1000.a(e1000_phy.o)
                                                  /home/born/DPDK-OVS/DPDK-1.6.0/build/lib/librte_pmd_e1000.a(e1000_82540.o)
                                                  /home/born/DPDK-OVS/DPDK-1.6.0/build/lib/librte_pmd_e1000.a(e1000_ich8lan.o)
                                                  /home/born/DPDK-OVS/DPDK-1.6.0/build/lib/librte_pmd_e1000.a(e1000_82575.o)
                                                  /home/born/DPDK-OVS/DPDK-1.6.0/build/lib/librte_pmd_e1000.a(e1000_82571.o)
                                                  /home/born/DPDK-OVS/DPDK-1.6.0/build/lib/librte_pmd_e1000.a(e1000_82543.o)
e1000_phy_force_speed_duplex_setup                /home/born/DPDK-OVS/DPDK-1.6.0/build/lib/librte_pmd_e1000.a(e1000_phy.o)
                                                  /home/born/DPDK-OVS/DPDK-1.6.0/build/lib/librte_pmd_e1000.a(e1000_80003es2lan.o)
e1000_phy_has_link_generic                        /home/born/DPDK-OVS/DPDK-1.6.0/build/lib/librte_pmd_e1000.a(e1000_phy.o)
                                                  /home/born/DPDK-OVS/DPDK-1.6.0/build/lib/librte_pmd_e1000.a(e1000_80003es2lan.o)
                                                  /home/born/DPDK-OVS/DPDK-1.6.0/build/lib/librte_pmd_e1000.a(e1000_mac.o)
                                                  /home/born/DPDK-OVS/DPDK-1.6.0/build/lib/librte_pmd_e1000.a(e1000_ich8lan.o)
                                                  /home/born/DPDK-OVS/DPDK-1.6.0/build/lib/librte_pmd_e1000.a(e1000_82543.o)
                                                  /home/born/DPDK-OVS/DPDK-1.6.0/build/lib/librte_pmd_e1000.a(e1000_82541.o)
e1000_phy_hw_reset                                /home/born/DPDK-OVS/DPDK-1.6.0/build/lib/librte_pmd_e1000.a(e1000_api.o)
                                                  /home/born/DPDK-OVS/DPDK-1.6.0/build/lib/librte_pmd_e1000.a(em_ethdev.o)
                                                  /home/born/DPDK-OVS/DPDK-1.6.0/build/lib/librte_pmd_e1000.a(igb_ethdev.o)
e1000_phy_hw_reset_generic                        /home/born/DPDK-OVS/DPDK-1.6.0/build/lib/librte_pmd_e1000.a(e1000_phy.o)
                                                  /home/born/DPDK-OVS/DPDK-1.6.0/build/lib/librte_pmd_e1000.a(e1000_82540.o)
                                                  /home/born/DPDK-OVS/DPDK-1.6.0/build/lib/librte_pmd_e1000.a(e1000_80003es2lan.o)
                                                  /home/born/DPDK-OVS/DPDK-1.6.0/build/lib/librte_pmd_e1000.a(e1000_ich8lan.o)
                                                  /home/born/DPDK-OVS/DPDK-1.6.0/build/lib/librte_pmd_e1000.a(e1000_82575.o)
                                                  /home/born/DPDK-OVS/DPDK-1.6.0/build/lib/librte_pmd_e1000.a(e1000_82571.o)
                                                  /home/born/DPDK-OVS/DPDK-1.6.0/build/lib/librte_pmd_e1000.a(e1000_82543.o)
                                                  /home/born/DPDK-OVS/DPDK-1.6.0/build/lib/librte_pmd_e1000.a(e1000_82541.o)
e1000_phy_init_script_igp3                        /home/born/DPDK-OVS/DPDK-1.6.0/build/lib/librte_pmd_e1000.a(e1000_phy.o)
                                                  /home/born/DPDK-OVS/DPDK-1.6.0/build/lib/librte_pmd_e1000.a(e1000_ich8lan.o)
                                                  /home/born/DPDK-OVS/DPDK-1.6.0/build/lib/librte_pmd_e1000.a(e1000_82575.o)
e1000_phy_reset_dsp_generic                       /home/born/DPDK-OVS/DPDK-1.6.0/build/lib/librte_pmd_e1000.a(e1000_phy.o)
                                                  /home/born/DPDK-OVS/DPDK-1.6.0/build/lib/librte_pmd_e1000.a(e1000_80003es2lan.o)
e1000_phy_setup_autoneg                           /home/born/DPDK-OVS/DPDK-1.6.0/build/lib/librte_pmd_e1000.a(e1000_phy.o)
e1000_phy_sw_reset_generic                        /home/born/DPDK-OVS/DPDK-1.6.0/build/lib/librte_pmd_e1000.a(e1000_phy.o)
                                                  /home/born/DPDK-OVS/DPDK-1.6.0/build/lib/librte_pmd_e1000.a(e1000_82540.o)
                                                  /home/born/DPDK-OVS/DPDK-1.6.0/build/lib/librte_pmd_e1000.a(e1000_80003es2lan.o)
                                                  /home/born/DPDK-OVS/DPDK-1.6.0/build/lib/librte_pmd_e1000.a(e1000_ich8lan.o)
                                                  /home/born/DPDK-OVS/DPDK-1.6.0/build/lib/librte_pmd_e1000.a(e1000_82575.o)
                                                  /home/born/DPDK-OVS/DPDK-1.6.0/build/lib/librte_pmd_e1000.a(e1000_82571.o)
                                                  /home/born/DPDK-OVS/DPDK-1.6.0/build/lib/librte_pmd_e1000.a(e1000_82543.o)
e1000_poll_eerd_eewr_done                         /home/born/DPDK-OVS/DPDK-1.6.0/build/lib/librte_pmd_e1000.a(e1000_nvm.o)
                                                  /home/born/DPDK-OVS/DPDK-1.6.0/build/lib/librte_pmd_e1000.a(e1000_82571.o)
e1000_poll_fiber_serdes_link_generic              /home/born/DPDK-OVS/DPDK-1.6.0/build/lib/librte_pmd_e1000.a(e1000_mac.o)
                                                  /home/born/DPDK-OVS/DPDK-1.6.0/build/lib/librte_pmd_e1000.a(e1000_82543.o)
e1000_power_down_phy                              /home/born/DPDK-OVS/DPDK-1.6.0/build/lib/librte_pmd_e1000.a(e1000_api.o)
                                                  /home/born/DPDK-OVS/DPDK-1.6.0/build/lib/librte_pmd_e1000.a(em_ethdev.o)
                                                  /home/born/DPDK-OVS/DPDK-1.6.0/build/lib/librte_pmd_e1000.a(igb_ethdev.o)
e1000_power_down_phy_copper                       /home/born/DPDK-OVS/DPDK-1.6.0/build/lib/librte_pmd_e1000.a(e1000_phy.o)
                                                  /home/born/DPDK-OVS/DPDK-1.6.0/build/lib/librte_pmd_e1000.a(e1000_82540.o)
                                                  /home/born/DPDK-OVS/DPDK-1.6.0/build/lib/librte_pmd_e1000.a(e1000_80003es2lan.o)
                                                  /home/born/DPDK-OVS/DPDK-1.6.0/build/lib/librte_pmd_e1000.a(e1000_ich8lan.o)
                                                  /home/born/DPDK-OVS/DPDK-1.6.0/build/lib/librte_pmd_e1000.a(e1000_82575.o)
                                                  /home/born/DPDK-OVS/DPDK-1.6.0/build/lib/librte_pmd_e1000.a(e1000_82571.o)
                                                  /home/born/DPDK-OVS/DPDK-1.6.0/build/lib/librte_pmd_e1000.a(e1000_82543.o)
                                                  /home/born/DPDK-OVS/DPDK-1.6.0/build/lib/librte_pmd_e1000.a(e1000_82541.o)
e1000_power_up_fiber_serdes_link                  /home/born/DPDK-OVS/DPDK-1.6.0/build/lib/librte_pmd_e1000.a(e1000_api.o)
e1000_power_up_phy                                /home/born/DPDK-OVS/DPDK-1.6.0/build/lib/librte_pmd_e1000.a(e1000_api.o)
                                                  /home/born/DPDK-OVS/DPDK-1.6.0/build/lib/librte_pmd_e1000.a(em_ethdev.o)
                                                  /home/born/DPDK-OVS/DPDK-1.6.0/build/lib/librte_pmd_e1000.a(igb_ethdev.o)
e1000_power_up_phy_copper                         /home/born/DPDK-OVS/DPDK-1.6.0/build/lib/librte_pmd_e1000.a(e1000_phy.o)
                                                  /home/born/DPDK-OVS/DPDK-1.6.0/build/lib/librte_pmd_e1000.a(e1000_82540.o)
                                                  /home/born/DPDK-OVS/DPDK-1.6.0/build/lib/librte_pmd_e1000.a(e1000_80003es2lan.o)
                                                  /home/born/DPDK-OVS/DPDK-1.6.0/build/lib/librte_pmd_e1000.a(e1000_ich8lan.o)
                                                  /home/born/DPDK-OVS/DPDK-1.6.0/build/lib/librte_pmd_e1000.a(e1000_82575.o)
                                                  /home/born/DPDK-OVS/DPDK-1.6.0/build/lib/librte_pmd_e1000.a(e1000_82571.o)
                                                  /home/born/DPDK-OVS/DPDK-1.6.0/build/lib/librte_pmd_e1000.a(e1000_82543.o)
                                                  /home/born/DPDK-OVS/DPDK-1.6.0/build/lib/librte_pmd_e1000.a(e1000_82541.o)
e1000_promisc_set_vf                              /home/born/DPDK-OVS/DPDK-1.6.0/build/lib/librte_pmd_e1000.a(e1000_vf.o)
e1000_put_hw_semaphore_generic                    /home/born/DPDK-OVS/DPDK-1.6.0/build/lib/librte_pmd_e1000.a(e1000_mac.o)
                                                  /home/born/DPDK-OVS/DPDK-1.6.0/build/lib/librte_pmd_e1000.a(e1000_80003es2lan.o)
                                                  /home/born/DPDK-OVS/DPDK-1.6.0/build/lib/librte_pmd_e1000.a(e1000_i210.o)
                                                  /home/born/DPDK-OVS/DPDK-1.6.0/build/lib/librte_pmd_e1000.a(e1000_82575.o)
e1000_rar_set                                     /home/born/DPDK-OVS/DPDK-1.6.0/build/lib/librte_pmd_e1000.a(e1000_api.o)
                                                  /home/born/DPDK-OVS/DPDK-1.6.0/build/lib/librte_pmd_e1000.a(em_ethdev.o)
                                                  /home/born/DPDK-OVS/DPDK-1.6.0/build/lib/librte_pmd_e1000.a(igb_ethdev.o)
e1000_read_emi_reg                                /home/born/DPDK-OVS/DPDK-1.6.0/build/lib/librte_pmd_e1000.a(e1000_82575.o)
e1000_read_emi_reg_locked                         /home/born/DPDK-OVS/DPDK-1.6.0/build/lib/librte_pmd_e1000.a(e1000_ich8lan.o)
e1000_read_i2c_byte_generic                       /home/born/DPDK-OVS/DPDK-1.6.0/build/lib/librte_pmd_e1000.a(e1000_82575.o)
e1000_read_i2c_byte_null                          /home/born/DPDK-OVS/DPDK-1.6.0/build/lib/librte_pmd_e1000.a(e1000_phy.o)
e1000_read_invm_version                           /home/born/DPDK-OVS/DPDK-1.6.0/build/lib/librte_pmd_e1000.a(e1000_i210.o)
                                                  /home/born/DPDK-OVS/DPDK-1.6.0/build/lib/librte_pmd_e1000.a(e1000_nvm.o)
e1000_read_kmrn_reg                               /home/born/DPDK-OVS/DPDK-1.6.0/build/lib/librte_pmd_e1000.a(e1000_api.o)
e1000_read_kmrn_reg_generic                       /home/born/DPDK-OVS/DPDK-1.6.0/build/lib/librte_pmd_e1000.a(e1000_phy.o)
                                                  /home/born/DPDK-OVS/DPDK-1.6.0/build/lib/librte_pmd_e1000.a(e1000_ich8lan.o)
                                                  /home/born/DPDK-OVS/DPDK-1.6.0/build/lib/librte_pmd_e1000.a(e1000_api.o)
e1000_read_kmrn_reg_locked                        /home/born/DPDK-OVS/DPDK-1.6.0/build/lib/librte_pmd_e1000.a(e1000_phy.o)
                                                  /home/born/DPDK-OVS/DPDK-1.6.0/build/lib/librte_pmd_e1000.a(e1000_ich8lan.o)
e1000_read_mac_addr                               /home/born/DPDK-OVS/DPDK-1.6.0/build/lib/librte_pmd_e1000.a(e1000_api.o)
                                                  /home/born/DPDK-OVS/DPDK-1.6.0/build/lib/librte_pmd_e1000.a(em_ethdev.o)
                                                  /home/born/DPDK-OVS/DPDK-1.6.0/build/lib/librte_pmd_e1000.a(igb_ethdev.o)
e1000_read_mac_addr_generic                       /home/born/DPDK-OVS/DPDK-1.6.0/build/lib/librte_pmd_e1000.a(e1000_nvm.o)
                                                  /home/born/DPDK-OVS/DPDK-1.6.0/build/lib/librte_pmd_e1000.a(e1000_80003es2lan.o)
                                                  /home/born/DPDK-OVS/DPDK-1.6.0/build/lib/librte_pmd_e1000.a(e1000_mac.o)
                                                  /home/born/DPDK-OVS/DPDK-1.6.0/build/lib/librte_pmd_e1000.a(e1000_api.o)
                                                  /home/born/DPDK-OVS/DPDK-1.6.0/build/lib/librte_pmd_e1000.a(e1000_82575.o)
                                                  /home/born/DPDK-OVS/DPDK-1.6.0/build/lib/librte_pmd_e1000.a(e1000_82571.o)
e1000_read_mbx                                    /home/born/DPDK-OVS/DPDK-1.6.0/build/lib/librte_pmd_e1000.a(e1000_mbx.o)
                                                  /home/born/DPDK-OVS/DPDK-1.6.0/build/lib/librte_pmd_e1000.a(igb_pf.o)
e1000_read_nvm                                    /home/born/DPDK-OVS/DPDK-1.6.0/build/lib/librte_pmd_e1000.a(e1000_api.o)
                                                  /home/born/DPDK-OVS/DPDK-1.6.0/build/lib/librte_pmd_e1000.a(e1000_nvm.o)
                                                  /home/born/DPDK-OVS/DPDK-1.6.0/build/lib/librte_pmd_e1000.a(e1000_manage.o)
                                                  /home/born/DPDK-OVS/DPDK-1.6.0/build/lib/librte_pmd_e1000.a(e1000_ich8lan.o)
e1000_read_nvm_eerd                               /home/born/DPDK-OVS/DPDK-1.6.0/build/lib/librte_pmd_e1000.a(e1000_nvm.o)
                                                  /home/born/DPDK-OVS/DPDK-1.6.0/build/lib/librte_pmd_e1000.a(e1000_80003es2lan.o)
                                                  /home/born/DPDK-OVS/DPDK-1.6.0/build/lib/librte_pmd_e1000.a(e1000_i210.o)
                                                  /home/born/DPDK-OVS/DPDK-1.6.0/build/lib/librte_pmd_e1000.a(e1000_82575.o)
                                                  /home/born/DPDK-OVS/DPDK-1.6.0/build/lib/librte_pmd_e1000.a(e1000_82571.o)
e1000_read_nvm_microwire                          /home/born/DPDK-OVS/DPDK-1.6.0/build/lib/librte_pmd_e1000.a(e1000_nvm.o)
                                                  /home/born/DPDK-OVS/DPDK-1.6.0/build/lib/librte_pmd_e1000.a(e1000_82542.o)
                                                  /home/born/DPDK-OVS/DPDK-1.6.0/build/lib/librte_pmd_e1000.a(e1000_82540.o)
                                                  /home/born/DPDK-OVS/DPDK-1.6.0/build/lib/librte_pmd_e1000.a(e1000_82543.o)
                                                  /home/born/DPDK-OVS/DPDK-1.6.0/build/lib/librte_pmd_e1000.a(e1000_82541.o)
e1000_read_nvm_spi                                /home/born/DPDK-OVS/DPDK-1.6.0/build/lib/librte_pmd_e1000.a(e1000_nvm.o)
                                                  /home/born/DPDK-OVS/DPDK-1.6.0/build/lib/librte_pmd_e1000.a(e1000_82575.o)
                                                  /home/born/DPDK-OVS/DPDK-1.6.0/build/lib/librte_pmd_e1000.a(e1000_82541.o)
e1000_read_nvm_srrd_i210                          /home/born/DPDK-OVS/DPDK-1.6.0/build/lib/librte_pmd_e1000.a(e1000_i210.o)
e1000_read_pba_length                             /home/born/DPDK-OVS/DPDK-1.6.0/build/lib/librte_pmd_e1000.a(e1000_api.o)
e1000_read_pba_length_generic                     /home/born/DPDK-OVS/DPDK-1.6.0/build/lib/librte_pmd_e1000.a(e1000_nvm.o)
                                                  /home/born/DPDK-OVS/DPDK-1.6.0/build/lib/librte_pmd_e1000.a(e1000_api.o)
e1000_read_pba_num                                /home/born/DPDK-OVS/DPDK-1.6.0/build/lib/librte_pmd_e1000.a(e1000_api.o)
e1000_read_pba_num_generic                        /home/born/DPDK-OVS/DPDK-1.6.0/build/lib/librte_pmd_e1000.a(e1000_nvm.o)
                                                  /home/born/DPDK-OVS/DPDK-1.6.0/build/lib/librte_pmd_e1000.a(e1000_api.o)
e1000_read_pba_raw                                /home/born/DPDK-OVS/DPDK-1.6.0/build/lib/librte_pmd_e1000.a(e1000_nvm.o)
e1000_read_pba_string                             /home/born/DPDK-OVS/DPDK-1.6.0/build/lib/librte_pmd_e1000.a(e1000_api.o)
e1000_read_pba_string_generic                     /home/born/DPDK-OVS/DPDK-1.6.0/build/lib/librte_pmd_e1000.a(e1000_nvm.o)
                                                  /home/born/DPDK-OVS/DPDK-1.6.0/build/lib/librte_pmd_e1000.a(e1000_api.o)
e1000_read_pci_cfg                                /home/born/DPDK-OVS/DPDK-1.6.0/build/lib/librte_pmd_e1000.a(e1000_osdep.o)
                                                  /home/born/DPDK-OVS/DPDK-1.6.0/build/lib/librte_pmd_e1000.a(e1000_mac.o)
                                                  /home/born/DPDK-OVS/DPDK-1.6.0/build/lib/librte_pmd_e1000.a(e1000_ich8lan.o)
e1000_read_pcie_cap_reg                           /home/born/DPDK-OVS/DPDK-1.6.0/build/lib/librte_pmd_e1000.a(e1000_osdep.o)
                                                  /home/born/DPDK-OVS/DPDK-1.6.0/build/lib/librte_pmd_e1000.a(e1000_mac.o)
                                                  /home/born/DPDK-OVS/DPDK-1.6.0/build/lib/librte_pmd_e1000.a(e1000_82575.o)
e1000_read_phy_reg                                /home/born/DPDK-OVS/DPDK-1.6.0/build/lib/librte_pmd_e1000.a(e1000_api.o)
e1000_read_phy_reg_bm                             /home/born/DPDK-OVS/DPDK-1.6.0/build/lib/librte_pmd_e1000.a(e1000_phy.o)
                                                  /home/born/DPDK-OVS/DPDK-1.6.0/build/lib/librte_pmd_e1000.a(e1000_ich8lan.o)
e1000_read_phy_reg_bm2                            /home/born/DPDK-OVS/DPDK-1.6.0/build/lib/librte_pmd_e1000.a(e1000_phy.o)
                                                  /home/born/DPDK-OVS/DPDK-1.6.0/build/lib/librte_pmd_e1000.a(e1000_82571.o)
e1000_read_phy_reg_gs40g                          /home/born/DPDK-OVS/DPDK-1.6.0/build/lib/librte_pmd_e1000.a(e1000_phy.o)
                                                  /home/born/DPDK-OVS/DPDK-1.6.0/build/lib/librte_pmd_e1000.a(e1000_82575.o)
e1000_read_phy_reg_hv                             /home/born/DPDK-OVS/DPDK-1.6.0/build/lib/librte_pmd_e1000.a(e1000_phy.o)
                                                  /home/born/DPDK-OVS/DPDK-1.6.0/build/lib/librte_pmd_e1000.a(e1000_ich8lan.o)
e1000_read_phy_reg_hv_locked                      /home/born/DPDK-OVS/DPDK-1.6.0/build/lib/librte_pmd_e1000.a(e1000_phy.o)
                                                  /home/born/DPDK-OVS/DPDK-1.6.0/build/lib/librte_pmd_e1000.a(e1000_ich8lan.o)
e1000_read_phy_reg_i2c                            /home/born/DPDK-OVS/DPDK-1.6.0/build/lib/librte_pmd_e1000.a(e1000_phy.o)
                                                  /home/born/DPDK-OVS/DPDK-1.6.0/build/lib/librte_pmd_e1000.a(e1000_82575.o)
e1000_read_phy_reg_igp                            /home/born/DPDK-OVS/DPDK-1.6.0/build/lib/librte_pmd_e1000.a(e1000_phy.o)
                                                  /home/born/DPDK-OVS/DPDK-1.6.0/build/lib/librte_pmd_e1000.a(e1000_ich8lan.o)
                                                  /home/born/DPDK-OVS/DPDK-1.6.0/build/lib/librte_pmd_e1000.a(e1000_82575.o)
                                                  /home/born/DPDK-OVS/DPDK-1.6.0/build/lib/librte_pmd_e1000.a(e1000_82571.o)
                                                  /home/born/DPDK-OVS/DPDK-1.6.0/build/lib/librte_pmd_e1000.a(e1000_82541.o)
e1000_read_phy_reg_igp_locked                     /home/born/DPDK-OVS/DPDK-1.6.0/build/lib/librte_pmd_e1000.a(e1000_phy.o)
                                                  /home/born/DPDK-OVS/DPDK-1.6.0/build/lib/librte_pmd_e1000.a(e1000_ich8lan.o)
e1000_read_phy_reg_m88                            /home/born/DPDK-OVS/DPDK-1.6.0/build/lib/librte_pmd_e1000.a(e1000_phy.o)
                                                  /home/born/DPDK-OVS/DPDK-1.6.0/build/lib/librte_pmd_e1000.a(e1000_82540.o)
                                                  /home/born/DPDK-OVS/DPDK-1.6.0/build/lib/librte_pmd_e1000.a(e1000_82571.o)
                                                  /home/born/DPDK-OVS/DPDK-1.6.0/build/lib/librte_pmd_e1000.a(e1000_82543.o)
e1000_read_phy_reg_mdic                           /home/born/DPDK-OVS/DPDK-1.6.0/build/lib/librte_pmd_e1000.a(e1000_phy.o)
                                                  /home/born/DPDK-OVS/DPDK-1.6.0/build/lib/librte_pmd_e1000.a(e1000_80003es2lan.o)
                                                  /home/born/DPDK-OVS/DPDK-1.6.0/build/lib/librte_pmd_e1000.a(e1000_82575.o)
e1000_read_phy_reg_mphy                           /home/born/DPDK-OVS/DPDK-1.6.0/build/lib/librte_pmd_e1000.a(e1000_phy.o)
e1000_read_phy_reg_page_hv                        /home/born/DPDK-OVS/DPDK-1.6.0/build/lib/librte_pmd_e1000.a(e1000_phy.o)
                                                  /home/born/DPDK-OVS/DPDK-1.6.0/build/lib/librte_pmd_e1000.a(e1000_ich8lan.o)
e1000_read_posted_mbx                             /home/born/DPDK-OVS/DPDK-1.6.0/build/lib/librte_pmd_e1000.a(e1000_mbx.o)
e1000_read_sfp_data_byte                          /home/born/DPDK-OVS/DPDK-1.6.0/build/lib/librte_pmd_e1000.a(e1000_phy.o)
                                                  /home/born/DPDK-OVS/DPDK-1.6.0/build/lib/librte_pmd_e1000.a(e1000_82575.o)
e1000_read_xmdio_reg                              /home/born/DPDK-OVS/DPDK-1.6.0/build/lib/librte_pmd_e1000.a(e1000_i210.o)
                                                  /home/born/DPDK-OVS/DPDK-1.6.0/build/lib/librte_pmd_e1000.a(e1000_82575.o)
e1000_release_nvm_generic                         /home/born/DPDK-OVS/DPDK-1.6.0/build/lib/librte_pmd_e1000.a(e1000_nvm.o)
                                                  /home/born/DPDK-OVS/DPDK-1.6.0/build/lib/librte_pmd_e1000.a(e1000_82540.o)
                                                  /home/born/DPDK-OVS/DPDK-1.6.0/build/lib/librte_pmd_e1000.a(e1000_80003es2lan.o)
                                                  /home/born/DPDK-OVS/DPDK-1.6.0/build/lib/librte_pmd_e1000.a(e1000_82575.o)
                                                  /home/born/DPDK-OVS/DPDK-1.6.0/build/lib/librte_pmd_e1000.a(e1000_82571.o)
                                                  /home/born/DPDK-OVS/DPDK-1.6.0/build/lib/librte_pmd_e1000.a(e1000_82541.o)
e1000_release_phy                                 /home/born/DPDK-OVS/DPDK-1.6.0/build/lib/librte_pmd_e1000.a(e1000_api.o)
e1000_release_swfw_sync_i210                      /home/born/DPDK-OVS/DPDK-1.6.0/build/lib/librte_pmd_e1000.a(e1000_i210.o)
                                                  /home/born/DPDK-OVS/DPDK-1.6.0/build/lib/librte_pmd_e1000.a(e1000_82575.o)
e1000_reload_nvm                                  /home/born/DPDK-OVS/DPDK-1.6.0/build/lib/librte_pmd_e1000.a(e1000_api.o)
e1000_reset_adaptive                              /home/born/DPDK-OVS/DPDK-1.6.0/build/lib/librte_pmd_e1000.a(e1000_api.o)
e1000_reset_adaptive_generic                      /home/born/DPDK-OVS/DPDK-1.6.0/build/lib/librte_pmd_e1000.a(e1000_mac.o)
                                                  /home/born/DPDK-OVS/DPDK-1.6.0/build/lib/librte_pmd_e1000.a(e1000_api.o)
e1000_reset_hw                                    /home/born/DPDK-OVS/DPDK-1.6.0/build/lib/librte_pmd_e1000.a(e1000_api.o)
                                                  /home/born/DPDK-OVS/DPDK-1.6.0/build/lib/librte_pmd_e1000.a(em_ethdev.o)
                                                  /home/born/DPDK-OVS/DPDK-1.6.0/build/lib/librte_pmd_e1000.a(igb_ethdev.o)
e1000_resume_workarounds_pchlan                   /home/born/DPDK-OVS/DPDK-1.6.0/build/lib/librte_pmd_e1000.a(e1000_ich8lan.o)
e1000_rlpml_set_vf                                /home/born/DPDK-OVS/DPDK-1.6.0/build/lib/librte_pmd_e1000.a(e1000_vf.o)
e1000_rx_fifo_flush_82575                         /home/born/DPDK-OVS/DPDK-1.6.0/build/lib/librte_pmd_e1000.a(e1000_82575.o)
e1000_rxpbs_adjust_82580                          /home/born/DPDK-OVS/DPDK-1.6.0/build/lib/librte_pmd_e1000.a(e1000_82575.o)
                                                  /home/born/DPDK-OVS/DPDK-1.6.0/build/lib/librte_pmd_e1000.a(igb_ethdev.o)
e1000_set_d0_lplu_state                           /home/born/DPDK-OVS/DPDK-1.6.0/build/lib/librte_pmd_e1000.a(e1000_api.o)
e1000_set_d3_lplu_state                           /home/born/DPDK-OVS/DPDK-1.6.0/build/lib/librte_pmd_e1000.a(e1000_api.o)
e1000_set_d3_lplu_state_generic                   /home/born/DPDK-OVS/DPDK-1.6.0/build/lib/librte_pmd_e1000.a(e1000_phy.o)
                                                  /home/born/DPDK-OVS/DPDK-1.6.0/build/lib/librte_pmd_e1000.a(e1000_80003es2lan.o)
                                                  /home/born/DPDK-OVS/DPDK-1.6.0/build/lib/librte_pmd_e1000.a(e1000_82575.o)
                                                  /home/born/DPDK-OVS/DPDK-1.6.0/build/lib/librte_pmd_e1000.a(e1000_82571.o)
                                                  /home/born/DPDK-OVS/DPDK-1.6.0/build/lib/librte_pmd_e1000.a(e1000_82541.o)
e1000_set_default_fc_generic                      /home/born/DPDK-OVS/DPDK-1.6.0/build/lib/librte_pmd_e1000.a(e1000_mac.o)
                                                  /home/born/DPDK-OVS/DPDK-1.6.0/build/lib/librte_pmd_e1000.a(e1000_82542.o)
e1000_set_eee_i350                                /home/born/DPDK-OVS/DPDK-1.6.0/build/lib/librte_pmd_e1000.a(e1000_82575.o)
e1000_set_eee_i354                                /home/born/DPDK-OVS/DPDK-1.6.0/build/lib/librte_pmd_e1000.a(e1000_82575.o)
e1000_set_eee_pchlan                              /home/born/DPDK-OVS/DPDK-1.6.0/build/lib/librte_pmd_e1000.a(e1000_ich8lan.o)
e1000_set_fc_watermarks_generic                   /home/born/DPDK-OVS/DPDK-1.6.0/build/lib/librte_pmd_e1000.a(e1000_mac.o)
                                                  /home/born/DPDK-OVS/DPDK-1.6.0/build/lib/librte_pmd_e1000.a(e1000_82542.o)
                                                  /home/born/DPDK-OVS/DPDK-1.6.0/build/lib/librte_pmd_e1000.a(e1000_ich8lan.o)
e1000_set_i2c_bb                                  /home/born/DPDK-OVS/DPDK-1.6.0/build/lib/librte_pmd_e1000.a(e1000_82575.o)
e1000_set_kmrn_lock_loss_workaround_ich8lan       /home/born/DPDK-OVS/DPDK-1.6.0/build/lib/librte_pmd_e1000.a(e1000_ich8lan.o)
e1000_set_laa_state_82571                         /home/born/DPDK-OVS/DPDK-1.6.0/build/lib/librte_pmd_e1000.a(e1000_82571.o)
                                                  /home/born/DPDK-OVS/DPDK-1.6.0/build/lib/librte_pmd_e1000.a(em_ethdev.o)
e1000_set_lan_id_multi_port_pci                   /home/born/DPDK-OVS/DPDK-1.6.0/build/lib/librte_pmd_e1000.a(e1000_mac.o)
                                                  /home/born/DPDK-OVS/DPDK-1.6.0/build/lib/librte_pmd_e1000.a(e1000_82542.o)
                                                  /home/born/DPDK-OVS/DPDK-1.6.0/build/lib/librte_pmd_e1000.a(e1000_82540.o)
                                                  /home/born/DPDK-OVS/DPDK-1.6.0/build/lib/librte_pmd_e1000.a(e1000_82543.o)
e1000_set_lan_id_single_port                      /home/born/DPDK-OVS/DPDK-1.6.0/build/lib/librte_pmd_e1000.a(e1000_mac.o)
                                                  /home/born/DPDK-OVS/DPDK-1.6.0/build/lib/librte_pmd_e1000.a(e1000_ich8lan.o)
                                                  /home/born/DPDK-OVS/DPDK-1.6.0/build/lib/librte_pmd_e1000.a(e1000_82571.o)
                                                  /home/born/DPDK-OVS/DPDK-1.6.0/build/lib/librte_pmd_e1000.a(e1000_82541.o)
e1000_set_mac_type                                /home/born/DPDK-OVS/DPDK-1.6.0/build/lib/librte_pmd_e1000.a(e1000_api.o)
                                                  /home/born/DPDK-OVS/DPDK-1.6.0/build/lib/librte_pmd_e1000.a(igb_ethdev.o)
e1000_set_page_igp                                /home/born/DPDK-OVS/DPDK-1.6.0/build/lib/librte_pmd_e1000.a(e1000_phy.o)
                                                  /home/born/DPDK-OVS/DPDK-1.6.0/build/lib/librte_pmd_e1000.a(e1000_ich8lan.o)
e1000_set_pcie_no_snoop_generic                   /home/born/DPDK-OVS/DPDK-1.6.0/build/lib/librte_pmd_e1000.a(e1000_mac.o)
                                                  /home/born/DPDK-OVS/DPDK-1.6.0/build/lib/librte_pmd_e1000.a(e1000_ich8lan.o)
e1000_set_tbi_compatibility_82543                 /home/born/DPDK-OVS/DPDK-1.6.0/build/lib/librte_pmd_e1000.a(e1000_82543.o)
                                                  /home/born/DPDK-OVS/DPDK-1.6.0/build/lib/librte_pmd_e1000.a(em_ethdev.o)
e1000_setup_copper_link_generic                   /home/born/DPDK-OVS/DPDK-1.6.0/build/lib/librte_pmd_e1000.a(e1000_phy.o)
                                                  /home/born/DPDK-OVS/DPDK-1.6.0/build/lib/librte_pmd_e1000.a(e1000_82540.o)
                                                  /home/born/DPDK-OVS/DPDK-1.6.0/build/lib/librte_pmd_e1000.a(e1000_80003es2lan.o)
                                                  /home/born/DPDK-OVS/DPDK-1.6.0/build/lib/librte_pmd_e1000.a(e1000_ich8lan.o)
                                                  /home/born/DPDK-OVS/DPDK-1.6.0/build/lib/librte_pmd_e1000.a(e1000_82575.o)
                                                  /home/born/DPDK-OVS/DPDK-1.6.0/build/lib/librte_pmd_e1000.a(e1000_82571.o)
                                                  /home/born/DPDK-OVS/DPDK-1.6.0/build/lib/librte_pmd_e1000.a(e1000_82541.o)
e1000_setup_fiber_serdes_link_generic             /home/born/DPDK-OVS/DPDK-1.6.0/build/lib/librte_pmd_e1000.a(e1000_mac.o)
                                                  /home/born/DPDK-OVS/DPDK-1.6.0/build/lib/librte_pmd_e1000.a(e1000_82542.o)
                                                  /home/born/DPDK-OVS/DPDK-1.6.0/build/lib/librte_pmd_e1000.a(e1000_82540.o)
                                                  /home/born/DPDK-OVS/DPDK-1.6.0/build/lib/librte_pmd_e1000.a(e1000_80003es2lan.o)
                                                  /home/born/DPDK-OVS/DPDK-1.6.0/build/lib/librte_pmd_e1000.a(e1000_82571.o)
e1000_setup_init_funcs                            /home/born/DPDK-OVS/DPDK-1.6.0/build/lib/librte_pmd_e1000.a(e1000_api.o)
                                                  /home/born/DPDK-OVS/DPDK-1.6.0/build/lib/librte_pmd_e1000.a(em_ethdev.o)
                                                  /home/born/DPDK-OVS/DPDK-1.6.0/build/lib/librte_pmd_e1000.a(igb_ethdev.o)
e1000_setup_led                                   /home/born/DPDK-OVS/DPDK-1.6.0/build/lib/librte_pmd_e1000.a(e1000_api.o)
e1000_setup_led_generic                           /home/born/DPDK-OVS/DPDK-1.6.0/build/lib/librte_pmd_e1000.a(e1000_mac.o)
                                                  /home/born/DPDK-OVS/DPDK-1.6.0/build/lib/librte_pmd_e1000.a(e1000_82540.o)
                                                  /home/born/DPDK-OVS/DPDK-1.6.0/build/lib/librte_pmd_e1000.a(e1000_80003es2lan.o)
                                                  /home/born/DPDK-OVS/DPDK-1.6.0/build/lib/librte_pmd_e1000.a(e1000_ich8lan.o)
                                                  /home/born/DPDK-OVS/DPDK-1.6.0/build/lib/librte_pmd_e1000.a(e1000_82575.o)
                                                  /home/born/DPDK-OVS/DPDK-1.6.0/build/lib/librte_pmd_e1000.a(e1000_82571.o)
e1000_setup_link                                  /home/born/DPDK-OVS/DPDK-1.6.0/build/lib/librte_pmd_e1000.a(e1000_api.o)
                                                  /home/born/DPDK-OVS/DPDK-1.6.0/build/lib/librte_pmd_e1000.a(em_ethdev.o)
                                                  /home/born/DPDK-OVS/DPDK-1.6.0/build/lib/librte_pmd_e1000.a(igb_ethdev.o)
e1000_setup_link_generic                          /home/born/DPDK-OVS/DPDK-1.6.0/build/lib/librte_pmd_e1000.a(e1000_mac.o)
                                                  /home/born/DPDK-OVS/DPDK-1.6.0/build/lib/librte_pmd_e1000.a(e1000_82540.o)
                                                  /home/born/DPDK-OVS/DPDK-1.6.0/build/lib/librte_pmd_e1000.a(e1000_80003es2lan.o)
                                                  /home/born/DPDK-OVS/DPDK-1.6.0/build/lib/librte_pmd_e1000.a(e1000_82575.o)
                                                  /home/born/DPDK-OVS/DPDK-1.6.0/build/lib/librte_pmd_e1000.a(e1000_82571.o)
                                                  /home/born/DPDK-OVS/DPDK-1.6.0/build/lib/librte_pmd_e1000.a(e1000_82543.o)
                                                  /home/born/DPDK-OVS/DPDK-1.6.0/build/lib/librte_pmd_e1000.a(e1000_82541.o)
                                                  /home/born/DPDK-OVS/DPDK-1.6.0/build/lib/librte_pmd_e1000.a(em_ethdev.o)
                                                  /home/born/DPDK-OVS/DPDK-1.6.0/build/lib/librte_pmd_e1000.a(igb_ethdev.o)
e1000_shutdown_fiber_serdes_link                  /home/born/DPDK-OVS/DPDK-1.6.0/build/lib/librte_pmd_e1000.a(e1000_api.o)
e1000_stop_nvm                                    /home/born/DPDK-OVS/DPDK-1.6.0/build/lib/librte_pmd_e1000.a(e1000_nvm.o)
                                                  /home/born/DPDK-OVS/DPDK-1.6.0/build/lib/librte_pmd_e1000.a(e1000_82542.o)
e1000_suspend_workarounds_ich8lan                 /home/born/DPDK-OVS/DPDK-1.6.0/build/lib/librte_pmd_e1000.a(e1000_ich8lan.o)
e1000_tbi_adjust_stats_82543                      /home/born/DPDK-OVS/DPDK-1.6.0/build/lib/librte_pmd_e1000.a(e1000_82543.o)
e1000_tbi_sbp_enabled_82543                       /home/born/DPDK-OVS/DPDK-1.6.0/build/lib/librte_pmd_e1000.a(e1000_82543.o)
e1000_toggle_lanphypc_pch_lpt                     /home/born/DPDK-OVS/DPDK-1.6.0/build/lib/librte_pmd_e1000.a(e1000_ich8lan.o)
e1000_translate_register_82542                    /home/born/DPDK-OVS/DPDK-1.6.0/build/lib/librte_pmd_e1000.a(e1000_82542.o)
e1000_update_adaptive                             /home/born/DPDK-OVS/DPDK-1.6.0/build/lib/librte_pmd_e1000.a(e1000_api.o)
e1000_update_adaptive_generic                     /home/born/DPDK-OVS/DPDK-1.6.0/build/lib/librte_pmd_e1000.a(e1000_mac.o)
                                                  /home/born/DPDK-OVS/DPDK-1.6.0/build/lib/librte_pmd_e1000.a(e1000_api.o)
e1000_update_flash_i210                           /home/born/DPDK-OVS/DPDK-1.6.0/build/lib/librte_pmd_e1000.a(e1000_i210.o)
e1000_update_mc_addr_list                         /home/born/DPDK-OVS/DPDK-1.6.0/build/lib/librte_pmd_e1000.a(e1000_api.o)
e1000_update_mc_addr_list_generic                 /home/born/DPDK-OVS/DPDK-1.6.0/build/lib/librte_pmd_e1000.a(e1000_mac.o)
                                                  /home/born/DPDK-OVS/DPDK-1.6.0/build/lib/librte_pmd_e1000.a(e1000_82542.o)
                                                  /home/born/DPDK-OVS/DPDK-1.6.0/build/lib/librte_pmd_e1000.a(e1000_82540.o)
                                                  /home/born/DPDK-OVS/DPDK-1.6.0/build/lib/librte_pmd_e1000.a(e1000_80003es2lan.o)
                                                  /home/born/DPDK-OVS/DPDK-1.6.0/build/lib/librte_pmd_e1000.a(e1000_ich8lan.o)
                                                  /home/born/DPDK-OVS/DPDK-1.6.0/build/lib/librte_pmd_e1000.a(e1000_82575.o)
                                                  /home/born/DPDK-OVS/DPDK-1.6.0/build/lib/librte_pmd_e1000.a(e1000_82571.o)
                                                  /home/born/DPDK-OVS/DPDK-1.6.0/build/lib/librte_pmd_e1000.a(e1000_82543.o)
                                                  /home/born/DPDK-OVS/DPDK-1.6.0/build/lib/librte_pmd_e1000.a(e1000_82541.o)
e1000_update_nvm_checksum                         /home/born/DPDK-OVS/DPDK-1.6.0/build/lib/librte_pmd_e1000.a(e1000_api.o)
e1000_update_nvm_checksum_generic                 /home/born/DPDK-OVS/DPDK-1.6.0/build/lib/librte_pmd_e1000.a(e1000_nvm.o)
                                                  /home/born/DPDK-OVS/DPDK-1.6.0/build/lib/librte_pmd_e1000.a(e1000_82542.o)
                                                  /home/born/DPDK-OVS/DPDK-1.6.0/build/lib/librte_pmd_e1000.a(e1000_82540.o)
                                                  /home/born/DPDK-OVS/DPDK-1.6.0/build/lib/librte_pmd_e1000.a(e1000_80003es2lan.o)
                                                  /home/born/DPDK-OVS/DPDK-1.6.0/build/lib/librte_pmd_e1000.a(e1000_82575.o)
                                                  /home/born/DPDK-OVS/DPDK-1.6.0/build/lib/librte_pmd_e1000.a(e1000_82571.o)
                                                  /home/born/DPDK-OVS/DPDK-1.6.0/build/lib/librte_pmd_e1000.a(e1000_82543.o)
                                                  /home/born/DPDK-OVS/DPDK-1.6.0/build/lib/librte_pmd_e1000.a(e1000_82541.o)
e1000_update_nvm_checksum_i210                    /home/born/DPDK-OVS/DPDK-1.6.0/build/lib/librte_pmd_e1000.a(e1000_i210.o)
e1000_valid_led_default_generic                   /home/born/DPDK-OVS/DPDK-1.6.0/build/lib/librte_pmd_e1000.a(e1000_mac.o)
                                                  /home/born/DPDK-OVS/DPDK-1.6.0/build/lib/librte_pmd_e1000.a(e1000_82540.o)
                                                  /home/born/DPDK-OVS/DPDK-1.6.0/build/lib/librte_pmd_e1000.a(e1000_80003es2lan.o)
                                                  /home/born/DPDK-OVS/DPDK-1.6.0/build/lib/librte_pmd_e1000.a(e1000_82543.o)
                                                  /home/born/DPDK-OVS/DPDK-1.6.0/build/lib/librte_pmd_e1000.a(e1000_82541.o)
e1000_validate_mdi_setting                        /home/born/DPDK-OVS/DPDK-1.6.0/build/lib/librte_pmd_e1000.a(e1000_api.o)
e1000_validate_mdi_setting_crossover_generic      /home/born/DPDK-OVS/DPDK-1.6.0/build/lib/librte_pmd_e1000.a(e1000_mac.o)
                                                  /home/born/DPDK-OVS/DPDK-1.6.0/build/lib/librte_pmd_e1000.a(e1000_82575.o)
e1000_validate_nvm_checksum                       /home/born/DPDK-OVS/DPDK-1.6.0/build/lib/librte_pmd_e1000.a(e1000_api.o)
                                                  /home/born/DPDK-OVS/DPDK-1.6.0/build/lib/librte_pmd_e1000.a(em_ethdev.o)
                                                  /home/born/DPDK-OVS/DPDK-1.6.0/build/lib/librte_pmd_e1000.a(igb_ethdev.o)
e1000_validate_nvm_checksum_generic               /home/born/DPDK-OVS/DPDK-1.6.0/build/lib/librte_pmd_e1000.a(e1000_nvm.o)
                                                  /home/born/DPDK-OVS/DPDK-1.6.0/build/lib/librte_pmd_e1000.a(e1000_82542.o)
                                                  /home/born/DPDK-OVS/DPDK-1.6.0/build/lib/librte_pmd_e1000.a(e1000_82540.o)
                                                  /home/born/DPDK-OVS/DPDK-1.6.0/build/lib/librte_pmd_e1000.a(e1000_80003es2lan.o)
                                                  /home/born/DPDK-OVS/DPDK-1.6.0/build/lib/librte_pmd_e1000.a(e1000_i210.o)
                                                  /home/born/DPDK-OVS/DPDK-1.6.0/build/lib/librte_pmd_e1000.a(e1000_82575.o)
                                                  /home/born/DPDK-OVS/DPDK-1.6.0/build/lib/librte_pmd_e1000.a(e1000_82571.o)
                                                  /home/born/DPDK-OVS/DPDK-1.6.0/build/lib/librte_pmd_e1000.a(e1000_82543.o)
                                                  /home/born/DPDK-OVS/DPDK-1.6.0/build/lib/librte_pmd_e1000.a(e1000_82541.o)
e1000_validate_nvm_checksum_i210                  /home/born/DPDK-OVS/DPDK-1.6.0/build/lib/librte_pmd_e1000.a(e1000_i210.o)
e1000_vfta_set_vf                                 /home/born/DPDK-OVS/DPDK-1.6.0/build/lib/librte_pmd_e1000.a(e1000_vf.o)
e1000_vmdq_set_anti_spoofing_pf                   /home/born/DPDK-OVS/DPDK-1.6.0/build/lib/librte_pmd_e1000.a(e1000_82575.o)
                                                  /home/born/DPDK-OVS/DPDK-1.6.0/build/lib/librte_pmd_e1000.a(igb_pf.o)
e1000_vmdq_set_loopback_pf                        /home/born/DPDK-OVS/DPDK-1.6.0/build/lib/librte_pmd_e1000.a(e1000_82575.o)
e1000_vmdq_set_replication_pf                     /home/born/DPDK-OVS/DPDK-1.6.0/build/lib/librte_pmd_e1000.a(e1000_82575.o)
e1000_write_8bit_ctrl_reg                         /home/born/DPDK-OVS/DPDK-1.6.0/build/lib/librte_pmd_e1000.a(e1000_api.o)
e1000_write_8bit_ctrl_reg_generic                 /home/born/DPDK-OVS/DPDK-1.6.0/build/lib/librte_pmd_e1000.a(e1000_mac.o)
                                                  /home/born/DPDK-OVS/DPDK-1.6.0/build/lib/librte_pmd_e1000.a(e1000_api.o)
                                                  /home/born/DPDK-OVS/DPDK-1.6.0/build/lib/librte_pmd_e1000.a(e1000_82575.o)
e1000_write_emi_reg_locked                        /home/born/DPDK-OVS/DPDK-1.6.0/build/lib/librte_pmd_e1000.a(e1000_ich8lan.o)
e1000_write_i2c_byte_generic                      /home/born/DPDK-OVS/DPDK-1.6.0/build/lib/librte_pmd_e1000.a(e1000_82575.o)
e1000_write_i2c_byte_null                         /home/born/DPDK-OVS/DPDK-1.6.0/build/lib/librte_pmd_e1000.a(e1000_phy.o)
e1000_write_kmrn_reg                              /home/born/DPDK-OVS/DPDK-1.6.0/build/lib/librte_pmd_e1000.a(e1000_api.o)
e1000_write_kmrn_reg_generic                      /home/born/DPDK-OVS/DPDK-1.6.0/build/lib/librte_pmd_e1000.a(e1000_phy.o)
                                                  /home/born/DPDK-OVS/DPDK-1.6.0/build/lib/librte_pmd_e1000.a(e1000_ich8lan.o)
                                                  /home/born/DPDK-OVS/DPDK-1.6.0/build/lib/librte_pmd_e1000.a(e1000_api.o)
e1000_write_kmrn_reg_locked                       /home/born/DPDK-OVS/DPDK-1.6.0/build/lib/librte_pmd_e1000.a(e1000_phy.o)
                                                  /home/born/DPDK-OVS/DPDK-1.6.0/build/lib/librte_pmd_e1000.a(e1000_ich8lan.o)
e1000_write_mbx                                   /home/born/DPDK-OVS/DPDK-1.6.0/build/lib/librte_pmd_e1000.a(e1000_mbx.o)
                                                  /home/born/DPDK-OVS/DPDK-1.6.0/build/lib/librte_pmd_e1000.a(igb_pf.o)
e1000_write_nvm                                   /home/born/DPDK-OVS/DPDK-1.6.0/build/lib/librte_pmd_e1000.a(e1000_api.o)
                                                  /home/born/DPDK-OVS/DPDK-1.6.0/build/lib/librte_pmd_e1000.a(e1000_nvm.o)
e1000_write_nvm_microwire                         /home/born/DPDK-OVS/DPDK-1.6.0/build/lib/librte_pmd_e1000.a(e1000_nvm.o)
                                                  /home/born/DPDK-OVS/DPDK-1.6.0/build/lib/librte_pmd_e1000.a(e1000_82542.o)
                                                  /home/born/DPDK-OVS/DPDK-1.6.0/build/lib/librte_pmd_e1000.a(e1000_82540.o)
                                                  /home/born/DPDK-OVS/DPDK-1.6.0/build/lib/librte_pmd_e1000.a(e1000_82543.o)
                                                  /home/born/DPDK-OVS/DPDK-1.6.0/build/lib/librte_pmd_e1000.a(e1000_82541.o)
e1000_write_nvm_spi                               /home/born/DPDK-OVS/DPDK-1.6.0/build/lib/librte_pmd_e1000.a(e1000_nvm.o)
                                                  /home/born/DPDK-OVS/DPDK-1.6.0/build/lib/librte_pmd_e1000.a(e1000_80003es2lan.o)
                                                  /home/born/DPDK-OVS/DPDK-1.6.0/build/lib/librte_pmd_e1000.a(e1000_82575.o)
                                                  /home/born/DPDK-OVS/DPDK-1.6.0/build/lib/librte_pmd_e1000.a(e1000_82571.o)
                                                  /home/born/DPDK-OVS/DPDK-1.6.0/build/lib/librte_pmd_e1000.a(e1000_82541.o)
e1000_write_nvm_srwr_i210                         /home/born/DPDK-OVS/DPDK-1.6.0/build/lib/librte_pmd_e1000.a(e1000_i210.o)
e1000_write_pba_raw                               /home/born/DPDK-OVS/DPDK-1.6.0/build/lib/librte_pmd_e1000.a(e1000_nvm.o)
e1000_write_pci_cfg                               /home/born/DPDK-OVS/DPDK-1.6.0/build/lib/librte_pmd_e1000.a(e1000_osdep.o)
                                                  /home/born/DPDK-OVS/DPDK-1.6.0/build/lib/librte_pmd_e1000.a(e1000_mac.o)
e1000_write_pcie_cap_reg                          /home/born/DPDK-OVS/DPDK-1.6.0/build/lib/librte_pmd_e1000.a(e1000_osdep.o)
                                                  /home/born/DPDK-OVS/DPDK-1.6.0/build/lib/librte_pmd_e1000.a(e1000_82575.o)
e1000_write_phy_reg                               /home/born/DPDK-OVS/DPDK-1.6.0/build/lib/librte_pmd_e1000.a(e1000_api.o)
e1000_write_phy_reg_bm                            /home/born/DPDK-OVS/DPDK-1.6.0/build/lib/librte_pmd_e1000.a(e1000_phy.o)
                                                  /home/born/DPDK-OVS/DPDK-1.6.0/build/lib/librte_pmd_e1000.a(e1000_ich8lan.o)
e1000_write_phy_reg_bm2                           /home/born/DPDK-OVS/DPDK-1.6.0/build/lib/librte_pmd_e1000.a(e1000_phy.o)
                                                  /home/born/DPDK-OVS/DPDK-1.6.0/build/lib/librte_pmd_e1000.a(e1000_82571.o)
e1000_write_phy_reg_gs40g                         /home/born/DPDK-OVS/DPDK-1.6.0/build/lib/librte_pmd_e1000.a(e1000_phy.o)
                                                  /home/born/DPDK-OVS/DPDK-1.6.0/build/lib/librte_pmd_e1000.a(e1000_82575.o)
e1000_write_phy_reg_hv                            /home/born/DPDK-OVS/DPDK-1.6.0/build/lib/librte_pmd_e1000.a(e1000_phy.o)
                                                  /home/born/DPDK-OVS/DPDK-1.6.0/build/lib/librte_pmd_e1000.a(e1000_ich8lan.o)
e1000_write_phy_reg_hv_locked                     /home/born/DPDK-OVS/DPDK-1.6.0/build/lib/librte_pmd_e1000.a(e1000_phy.o)
                                                  /home/born/DPDK-OVS/DPDK-1.6.0/build/lib/librte_pmd_e1000.a(e1000_ich8lan.o)
e1000_write_phy_reg_i2c                           /home/born/DPDK-OVS/DPDK-1.6.0/build/lib/librte_pmd_e1000.a(e1000_phy.o)
                                                  /home/born/DPDK-OVS/DPDK-1.6.0/build/lib/librte_pmd_e1000.a(e1000_82575.o)
e1000_write_phy_reg_igp                           /home/born/DPDK-OVS/DPDK-1.6.0/build/lib/librte_pmd_e1000.a(e1000_phy.o)
                                                  /home/born/DPDK-OVS/DPDK-1.6.0/build/lib/librte_pmd_e1000.a(e1000_ich8lan.o)
                                                  /home/born/DPDK-OVS/DPDK-1.6.0/build/lib/librte_pmd_e1000.a(e1000_82575.o)
                                                  /home/born/DPDK-OVS/DPDK-1.6.0/build/lib/librte_pmd_e1000.a(e1000_82571.o)
                                                  /home/born/DPDK-OVS/DPDK-1.6.0/build/lib/librte_pmd_e1000.a(e1000_82541.o)
e1000_write_phy_reg_igp_locked                    /home/born/DPDK-OVS/DPDK-1.6.0/build/lib/librte_pmd_e1000.a(e1000_phy.o)
                                                  /home/born/DPDK-OVS/DPDK-1.6.0/build/lib/librte_pmd_e1000.a(e1000_ich8lan.o)
e1000_write_phy_reg_m88                           /home/born/DPDK-OVS/DPDK-1.6.0/build/lib/librte_pmd_e1000.a(e1000_phy.o)
                                                  /home/born/DPDK-OVS/DPDK-1.6.0/build/lib/librte_pmd_e1000.a(e1000_82540.o)
                                                  /home/born/DPDK-OVS/DPDK-1.6.0/build/lib/librte_pmd_e1000.a(e1000_82571.o)
                                                  /home/born/DPDK-OVS/DPDK-1.6.0/build/lib/librte_pmd_e1000.a(e1000_82543.o)
e1000_write_phy_reg_mdic                          /home/born/DPDK-OVS/DPDK-1.6.0/build/lib/librte_pmd_e1000.a(e1000_phy.o)
                                                  /home/born/DPDK-OVS/DPDK-1.6.0/build/lib/librte_pmd_e1000.a(e1000_80003es2lan.o)
                                                  /home/born/DPDK-OVS/DPDK-1.6.0/build/lib/librte_pmd_e1000.a(e1000_ich8lan.o)
                                                  /home/born/DPDK-OVS/DPDK-1.6.0/build/lib/librte_pmd_e1000.a(e1000_82575.o)
e1000_write_phy_reg_mphy                          /home/born/DPDK-OVS/DPDK-1.6.0/build/lib/librte_pmd_e1000.a(e1000_phy.o)
e1000_write_phy_reg_page_hv                       /home/born/DPDK-OVS/DPDK-1.6.0/build/lib/librte_pmd_e1000.a(e1000_phy.o)
                                                  /home/born/DPDK-OVS/DPDK-1.6.0/build/lib/librte_pmd_e1000.a(e1000_ich8lan.o)
e1000_write_posted_mbx                            /home/born/DPDK-OVS/DPDK-1.6.0/build/lib/librte_pmd_e1000.a(e1000_mbx.o)
e1000_write_sfp_data_byte                         /home/born/DPDK-OVS/DPDK-1.6.0/build/lib/librte_pmd_e1000.a(e1000_phy.o)
e1000_write_vfta                                  /home/born/DPDK-OVS/DPDK-1.6.0/build/lib/librte_pmd_e1000.a(e1000_api.o)
e1000_write_vfta_generic                          /home/born/DPDK-OVS/DPDK-1.6.0/build/lib/librte_pmd_e1000.a(e1000_mac.o)
                                                  /home/born/DPDK-OVS/DPDK-1.6.0/build/lib/librte_pmd_e1000.a(e1000_82542.o)
                                                  /home/born/DPDK-OVS/DPDK-1.6.0/build/lib/librte_pmd_e1000.a(e1000_82540.o)
                                                  /home/born/DPDK-OVS/DPDK-1.6.0/build/lib/librte_pmd_e1000.a(e1000_80003es2lan.o)
                                                  /home/born/DPDK-OVS/DPDK-1.6.0/build/lib/librte_pmd_e1000.a(e1000_82575.o)
                                                  /home/born/DPDK-OVS/DPDK-1.6.0/build/lib/librte_pmd_e1000.a(e1000_82571.o)
                                                  /home/born/DPDK-OVS/DPDK-1.6.0/build/lib/librte_pmd_e1000.a(e1000_82543.o)
                                                  /home/born/DPDK-OVS/DPDK-1.6.0/build/lib/librte_pmd_e1000.a(e1000_82541.o)
e1000_write_xmdio_reg                             /home/born/DPDK-OVS/DPDK-1.6.0/build/lib/librte_pmd_e1000.a(e1000_i210.o)
                                                  /home/born/DPDK-OVS/DPDK-1.6.0/build/lib/librte_pmd_e1000.a(e1000_82575.o)
eaccess                                           /lib/x86_64-linux-gnu/libc.so.6
eaccess@@GLIBC_2.4                                /lib/x86_64-linux-gnu/libc.so.6
eaccess@GLIBC_2.4                                 /lib/x86_64-linux-gnu/libc.so.6
eal_dev_is_whitelisted                            /home/born/DPDK-OVS/DPDK-1.6.0/build/lib/librte_eal.a(eal_common_whitelist.o)
                                                  /home/born/DPDK-OVS/DPDK-1.6.0/build/lib/librte_eal.a(eal_common_nonpci_devs.o)
                                                  /home/born/DPDK-OVS/DPDK-1.6.0/build/lib/librte_eal.a(eal_common_pci.o)
eal_dev_whitelist_add_entry                       /home/born/DPDK-OVS/DPDK-1.6.0/build/lib/librte_eal.a(eal_common_whitelist.o)
                                                  /home/born/DPDK-OVS/DPDK-1.6.0/build/lib/librte_eal.a(eal.o)
eal_dev_whitelist_clear                           /home/born/DPDK-OVS/DPDK-1.6.0/build/lib/librte_eal.a(eal_common_whitelist.o)
eal_dev_whitelist_exists                          /home/born/DPDK-OVS/DPDK-1.6.0/build/lib/librte_eal.a(eal_common_whitelist.o)
                                                  /home/born/DPDK-OVS/DPDK-1.6.0/build/lib/librte_eal.a(eal_common_pci.o)
                                                  /home/born/DPDK-OVS/DPDK-1.6.0/build/lib/librte_eal.a(eal.o)
eal_dev_whitelist_parse                           /home/born/DPDK-OVS/DPDK-1.6.0/build/lib/librte_eal.a(eal_common_whitelist.o)
                                                  /home/born/DPDK-OVS/DPDK-1.6.0/build/lib/librte_eal.a(eal.o)
eal_hugepage_info_init                            /home/born/DPDK-OVS/DPDK-1.6.0/build/lib/librte_eal.a(eal_hugepage_info.o)
                                                  /home/born/DPDK-OVS/DPDK-1.6.0/build/lib/librte_eal.a(eal.o)
eal_parse_sysfs_value                             /home/born/DPDK-OVS/DPDK-1.6.0/build/lib/librte_eal.a(eal.o)
                                                  /home/born/DPDK-OVS/DPDK-1.6.0/build/lib/librte_eal.a(eal_lcore.o)
                                                  /home/born/DPDK-OVS/DPDK-1.6.0/build/lib/librte_eal.a(eal_pci.o)
                                                  /home/born/DPDK-OVS/DPDK-1.6.0/build/lib/librte_eal.a(eal_hugepage_info.o)
eal_thread_init_master                            /home/born/DPDK-OVS/DPDK-1.6.0/build/lib/librte_eal.a(eal_thread.o)
                                                  /home/born/DPDK-OVS/DPDK-1.6.0/build/lib/librte_eal.a(eal.o)
eal_thread_loop                                   /home/born/DPDK-OVS/DPDK-1.6.0/build/lib/librte_eal.a(eal_thread.o)
                                                  /home/born/DPDK-OVS/DPDK-1.6.0/build/lib/librte_eal.a(eal.o)
eal_timer_source                                  /home/born/DPDK-OVS/DPDK-1.6.0/build/lib/librte_eal.a(eal_timer.o)
em_dev_clear_queues                               /home/born/DPDK-OVS/DPDK-1.6.0/build/lib/librte_pmd_e1000.a(em_rxtx.o)
                                                  /home/born/DPDK-OVS/DPDK-1.6.0/build/lib/librte_pmd_e1000.a(em_ethdev.o)
endmntent                                         /lib/x86_64-linux-gnu/libc.so.6
endmntent@@GLIBC_2.2.5                            /lib/x86_64-linux-gnu/libc.so.6
endmntent@GLIBC_2.2.5                             /lib/x86_64-linux-gnu/libc.so.6
endutent                                          /lib/x86_64-linux-gnu/libc.so.6
endutent@@GLIBC_2.2.5                             /lib/x86_64-linux-gnu/libc.so.6
endutent@GLIBC_2.2.5                              /lib/x86_64-linux-gnu/libc.so.6
environ                                           /lib/x86_64-linux-gnu/libc.so.6
environ@@GLIBC_2.2.5                              /lib/x86_64-linux-gnu/libc.so.6
environ@GLIBC_2.2.5                               /lib/x86_64-linux-gnu/libc.so.6
epoll_create                                      /lib/x86_64-linux-gnu/libc.so.6
                                                  /home/born/DPDK-OVS/DPDK-1.6.0/build/lib/librte_eal.a(eal_interrupts.o)
epoll_create@@GLIBC_2.3.2                         /lib/x86_64-linux-gnu/libc.so.6
epoll_create@GLIBC_2.3.2                          /lib/x86_64-linux-gnu/libc.so.6
epoll_ctl                                         /lib/x86_64-linux-gnu/libc.so.6
                                                  /home/born/DPDK-OVS/DPDK-1.6.0/build/lib/librte_eal.a(eal_interrupts.o)
epoll_ctl@@GLIBC_2.3.2                            /lib/x86_64-linux-gnu/libc.so.6
epoll_ctl@GLIBC_2.3.2                             /lib/x86_64-linux-gnu/libc.so.6
epoll_wait                                        /lib/x86_64-linux-gnu/libc.so.6
                                                  /home/born/DPDK-OVS/DPDK-1.6.0/build/lib/librte_eal.a(eal_interrupts.o)
epoll_wait@@GLIBC_2.3.2                           /lib/x86_64-linux-gnu/libc.so.6
epoll_wait@GLIBC_2.3.2                            /lib/x86_64-linux-gnu/libc.so.6
erand48_r                                         /lib/x86_64-linux-gnu/libc.so.6
erand48_r@@GLIBC_2.2.5                            /lib/x86_64-linux-gnu/libc.so.6
erand48_r@GLIBC_2.2.5                             /lib/x86_64-linux-gnu/libc.so.6
error                                             /lib/x86_64-linux-gnu/libc.so.6
error@@GLIBC_2.2.5                                /lib/x86_64-linux-gnu/libc.so.6
error@GLIBC_2.2.5                                 /lib/x86_64-linux-gnu/libc.so.6
error_at_line                                     /lib/x86_64-linux-gnu/libc.so.6
error_at_line@@GLIBC_2.2.5                        /lib/x86_64-linux-gnu/libc.so.6
error_at_line@GLIBC_2.2.5                         /lib/x86_64-linux-gnu/libc.so.6
eth_em_recv_pkts                                  /home/born/DPDK-OVS/DPDK-1.6.0/build/lib/librte_pmd_e1000.a(em_rxtx.o)
                                                  /home/born/DPDK-OVS/DPDK-1.6.0/build/lib/librte_pmd_e1000.a(em_ethdev.o)
eth_em_recv_scattered_pkts                        /home/born/DPDK-OVS/DPDK-1.6.0/build/lib/librte_pmd_e1000.a(em_rxtx.o)
                                                  /home/born/DPDK-OVS/DPDK-1.6.0/build/lib/librte_pmd_e1000.a(em_ethdev.o)
eth_em_rx_descriptor_done                         /home/born/DPDK-OVS/DPDK-1.6.0/build/lib/librte_pmd_e1000.a(em_rxtx.o)
                                                  /home/born/DPDK-OVS/DPDK-1.6.0/build/lib/librte_pmd_e1000.a(em_ethdev.o)
eth_em_rx_init                                    /home/born/DPDK-OVS/DPDK-1.6.0/build/lib/librte_pmd_e1000.a(em_rxtx.o)
                                                  /home/born/DPDK-OVS/DPDK-1.6.0/build/lib/librte_pmd_e1000.a(em_ethdev.o)
eth_em_rx_queue_count                             /home/born/DPDK-OVS/DPDK-1.6.0/build/lib/librte_pmd_e1000.a(em_rxtx.o)
                                                  /home/born/DPDK-OVS/DPDK-1.6.0/build/lib/librte_pmd_e1000.a(em_ethdev.o)
eth_em_rx_queue_release                           /home/born/DPDK-OVS/DPDK-1.6.0/build/lib/librte_pmd_e1000.a(em_rxtx.o)
                                                  /home/born/DPDK-OVS/DPDK-1.6.0/build/lib/librte_pmd_e1000.a(em_ethdev.o)
eth_em_rx_queue_setup                             /home/born/DPDK-OVS/DPDK-1.6.0/build/lib/librte_pmd_e1000.a(em_rxtx.o)
                                                  /home/born/DPDK-OVS/DPDK-1.6.0/build/lib/librte_pmd_e1000.a(em_ethdev.o)
eth_em_tx_init                                    /home/born/DPDK-OVS/DPDK-1.6.0/build/lib/librte_pmd_e1000.a(em_rxtx.o)
                                                  /home/born/DPDK-OVS/DPDK-1.6.0/build/lib/librte_pmd_e1000.a(em_ethdev.o)
eth_em_tx_queue_release                           /home/born/DPDK-OVS/DPDK-1.6.0/build/lib/librte_pmd_e1000.a(em_rxtx.o)
                                                  /home/born/DPDK-OVS/DPDK-1.6.0/build/lib/librte_pmd_e1000.a(em_ethdev.o)
eth_em_tx_queue_setup                             /home/born/DPDK-OVS/DPDK-1.6.0/build/lib/librte_pmd_e1000.a(em_rxtx.o)
                                                  /home/born/DPDK-OVS/DPDK-1.6.0/build/lib/librte_pmd_e1000.a(em_ethdev.o)
eth_em_xmit_pkts                                  /home/born/DPDK-OVS/DPDK-1.6.0/build/lib/librte_pmd_e1000.a(em_rxtx.o)
                                                  /home/born/DPDK-OVS/DPDK-1.6.0/build/lib/librte_pmd_e1000.a(em_ethdev.o)
eth_igb_recv_pkts                                 /home/born/DPDK-OVS/DPDK-1.6.0/build/lib/librte_pmd_e1000.a(igb_rxtx.o)
                                                  /home/born/DPDK-OVS/DPDK-1.6.0/build/lib/librte_pmd_e1000.a(igb_ethdev.o)
eth_igb_recv_scattered_pkts                       /home/born/DPDK-OVS/DPDK-1.6.0/build/lib/librte_pmd_e1000.a(igb_rxtx.o)
                                                  /home/born/DPDK-OVS/DPDK-1.6.0/build/lib/librte_pmd_e1000.a(igb_ethdev.o)
eth_igb_rx_descriptor_done                        /home/born/DPDK-OVS/DPDK-1.6.0/build/lib/librte_pmd_e1000.a(igb_rxtx.o)
                                                  /home/born/DPDK-OVS/DPDK-1.6.0/build/lib/librte_pmd_e1000.a(igb_ethdev.o)
eth_igb_rx_init                                   /home/born/DPDK-OVS/DPDK-1.6.0/build/lib/librte_pmd_e1000.a(igb_rxtx.o)
                                                  /home/born/DPDK-OVS/DPDK-1.6.0/build/lib/librte_pmd_e1000.a(igb_ethdev.o)
eth_igb_rx_queue_count                            /home/born/DPDK-OVS/DPDK-1.6.0/build/lib/librte_pmd_e1000.a(igb_rxtx.o)
                                                  /home/born/DPDK-OVS/DPDK-1.6.0/build/lib/librte_pmd_e1000.a(igb_ethdev.o)
eth_igb_rx_queue_release                          /home/born/DPDK-OVS/DPDK-1.6.0/build/lib/librte_pmd_e1000.a(igb_rxtx.o)
                                                  /home/born/DPDK-OVS/DPDK-1.6.0/build/lib/librte_pmd_e1000.a(igb_ethdev.o)
eth_igb_rx_queue_setup                            /home/born/DPDK-OVS/DPDK-1.6.0/build/lib/librte_pmd_e1000.a(igb_rxtx.o)
                                                  /home/born/DPDK-OVS/DPDK-1.6.0/build/lib/librte_pmd_e1000.a(igb_ethdev.o)
eth_igb_tx_init                                   /home/born/DPDK-OVS/DPDK-1.6.0/build/lib/librte_pmd_e1000.a(igb_rxtx.o)
                                                  /home/born/DPDK-OVS/DPDK-1.6.0/build/lib/librte_pmd_e1000.a(igb_ethdev.o)
eth_igb_tx_queue_release                          /home/born/DPDK-OVS/DPDK-1.6.0/build/lib/librte_pmd_e1000.a(igb_rxtx.o)
                                                  /home/born/DPDK-OVS/DPDK-1.6.0/build/lib/librte_pmd_e1000.a(igb_ethdev.o)
eth_igb_tx_queue_setup                            /home/born/DPDK-OVS/DPDK-1.6.0/build/lib/librte_pmd_e1000.a(igb_rxtx.o)
                                                  /home/born/DPDK-OVS/DPDK-1.6.0/build/lib/librte_pmd_e1000.a(igb_ethdev.o)
eth_igb_xmit_pkts                                 /home/born/DPDK-OVS/DPDK-1.6.0/build/lib/librte_pmd_e1000.a(igb_rxtx.o)
                                                  /home/born/DPDK-OVS/DPDK-1.6.0/build/lib/librte_pmd_e1000.a(igb_ethdev.o)
eth_igbvf_rx_init                                 /home/born/DPDK-OVS/DPDK-1.6.0/build/lib/librte_pmd_e1000.a(igb_rxtx.o)
                                                  /home/born/DPDK-OVS/DPDK-1.6.0/build/lib/librte_pmd_e1000.a(igb_ethdev.o)
eth_igbvf_tx_init                                 /home/born/DPDK-OVS/DPDK-1.6.0/build/lib/librte_pmd_e1000.a(igb_rxtx.o)
                                                  /home/born/DPDK-OVS/DPDK-1.6.0/build/lib/librte_pmd_e1000.a(igb_ethdev.o)
euidaccess                                        /lib/x86_64-linux-gnu/libc.so.6
euidaccess@@GLIBC_2.2.5                           /lib/x86_64-linux-gnu/libc.so.6
euidaccess@GLIBC_2.2.5                            /lib/x86_64-linux-gnu/libc.so.6
execve                                            /lib/x86_64-linux-gnu/libc.so.6
execve@@GLIBC_2.2.5                               /lib/x86_64-linux-gnu/libc.so.6
execve@GLIBC_2.2.5                                /lib/x86_64-linux-gnu/libc.so.6
execvpe                                           /lib/x86_64-linux-gnu/libc.so.6
execvpe@@GLIBC_2.11                               /lib/x86_64-linux-gnu/libc.so.6
execvpe@GLIBC_2.11                                /lib/x86_64-linux-gnu/libc.so.6
exit                                              /lib/x86_64-linux-gnu/libc.so.6
                                                  /home/born/DPDK-OVS/DPDK-1.6.0/build/lib/librte_eal.a(eal_debug.o)
                                                  /home/born/DPDK-OVS/DPDK-1.6.0/build/lib/librte_eal.a(eal.o)
exit@@GLIBC_2.2.5                                 /lib/x86_64-linux-gnu/libc.so.6
exit@GLIBC_2.2.5                                  /lib/x86_64-linux-gnu/libc.so.6
                                                  /lib/x86_64-linux-gnu/libpthread.so.0
fchdir                                            /lib/x86_64-linux-gnu/libc.so.6
fchdir@@GLIBC_2.2.5                               /lib/x86_64-linux-gnu/libc.so.6
fchdir@GLIBC_2.2.5                                /lib/x86_64-linux-gnu/libc.so.6
fchmod                                            /lib/x86_64-linux-gnu/libc.so.6
fchmod@@GLIBC_2.2.5                               /lib/x86_64-linux-gnu/libc.so.6
fchmod@GLIBC_2.2.5                                /lib/x86_64-linux-gnu/libc.so.6
fchown                                            /lib/x86_64-linux-gnu/libc.so.6
fchown@@GLIBC_2.2.5                               /lib/x86_64-linux-gnu/libc.so.6
fchown@GLIBC_2.2.5                                /lib/x86_64-linux-gnu/libc.so.6
fclose                                            /lib/x86_64-linux-gnu/libc.so.6
                                                  /home/born/DPDK-OVS/DPDK-1.6.0/build/lib/librte_eal.a(eal_pci.o)
                                                  /home/born/DPDK-OVS/DPDK-1.6.0/build/lib/librte_eal.a(eal_memory.o)
                                                  /home/born/DPDK-OVS/DPDK-1.6.0/build/lib/librte_eal.a(eal_hugepage_info.o)
                                                  /home/born/DPDK-OVS/DPDK-1.6.0/build/lib/librte_eal.a(eal.o)
                                                  parameters.o
fclose@@GLIBC_2.2.5                               /lib/x86_64-linux-gnu/libc.so.6
fclose@GLIBC_2.2.5                                /lib/x86_64-linux-gnu/libc.so.6
                                                  /lib/x86_64-linux-gnu/libpthread.so.0
fcloseall                                         /lib/x86_64-linux-gnu/libc.so.6
fcloseall@@GLIBC_2.2.5                            /lib/x86_64-linux-gnu/libc.so.6
fcloseall@GLIBC_2.2.5                             /lib/x86_64-linux-gnu/libc.so.6
fcntl                                             /lib/x86_64-linux-gnu/libpthread.so.0
                                                  /home/born/DPDK-OVS/DPDK-1.6.0/build/lib/librte_eal.a(eal.o)
fcntl@@GLIBC_2.2.5                                /lib/x86_64-linux-gnu/libpthread.so.0
                                                  /lib/x86_64-linux-gnu/libc.so.6
fcntl@GLIBC_2.2.5                                 /lib/x86_64-linux-gnu/libpthread.so.0
                                                  /usr/lib/gcc/x86_64-linux-gnu/4.6/../../../x86_64-linux-gnu/librt.so
fdir_add_perfect_filter                           config.o
                                                  cmdline.o
fdir_add_signature_filter                         config.o
                                                  cmdline.o
fdir_conf                                         testpmd.o
                                                  config.o
                                                  parameters.o
fdir_get_infos                                    config.o
                                                  cmdline.o
fdir_remove_perfect_filter                        config.o
                                                  cmdline.o
fdir_remove_signature_filter                      config.o
                                                  cmdline.o
fdir_set_masks                                    config.o
                                                  cmdline.o
fdir_update_perfect_filter                        config.o
                                                  cmdline.o
fdir_update_signature_filter                      config.o
                                                  cmdline.o
fdopendir                                         /lib/x86_64-linux-gnu/libc.so.6
fdopendir@@GLIBC_2.4                              /lib/x86_64-linux-gnu/libc.so.6
fdopendir@GLIBC_2.4                               /lib/x86_64-linux-gnu/libc.so.6
feof                                              /lib/x86_64-linux-gnu/libc.so.6
feof@@GLIBC_2.2.5                                 /lib/x86_64-linux-gnu/libc.so.6
feof@GLIBC_2.2.5                                  /lib/x86_64-linux-gnu/libc.so.6
ferror                                            /lib/x86_64-linux-gnu/libc.so.6
ferror@@GLIBC_2.2.5                               /lib/x86_64-linux-gnu/libc.so.6
ferror@GLIBC_2.2.5                                /lib/x86_64-linux-gnu/libc.so.6
fflush                                            /lib/x86_64-linux-gnu/libc.so.6
                                                  /home/born/DPDK-OVS/DPDK-1.6.0/build/lib/librte_eal.a(eal_common_log.o)
                                                  /home/born/DPDK-OVS/DPDK-1.6.0/build/lib/librte_eal.a(eal_log.o)
                                                  testpmd.o
fflush@@GLIBC_2.2.5                               /lib/x86_64-linux-gnu/libc.so.6
fflush@GLIBC_2.2.5                                /lib/x86_64-linux-gnu/libc.so.6
ffsl                                              /lib/x86_64-linux-gnu/libc.so.6
ffsl@@GLIBC_2.2.5                                 /lib/x86_64-linux-gnu/libc.so.6
ffsl@GLIBC_2.2.5                                  /lib/x86_64-linux-gnu/libc.so.6
fgetc                                             /lib/x86_64-linux-gnu/libc.so.6
fgetc@@GLIBC_2.2.5                                /lib/x86_64-linux-gnu/libc.so.6
fgetc@GLIBC_2.2.5                                 /lib/x86_64-linux-gnu/libc.so.6
fgetc_unlocked                                    /lib/x86_64-linux-gnu/libc.so.6
fgetc_unlocked@@GLIBC_2.2.5                       /lib/x86_64-linux-gnu/libc.so.6
fgetc_unlocked@GLIBC_2.2.5                        /lib/x86_64-linux-gnu/libc.so.6
fgetgrent_r                                       /lib/x86_64-linux-gnu/libc.so.6
fgetgrent_r@@GLIBC_2.2.5                          /lib/x86_64-linux-gnu/libc.so.6
fgetgrent_r@GLIBC_2.2.5                           /lib/x86_64-linux-gnu/libc.so.6
fgetpwent_r                                       /lib/x86_64-linux-gnu/libc.so.6
fgetpwent_r@@GLIBC_2.2.5                          /lib/x86_64-linux-gnu/libc.so.6
fgetpwent_r@GLIBC_2.2.5                           /lib/x86_64-linux-gnu/libc.so.6
fgets                                             /lib/x86_64-linux-gnu/libc.so.6
                                                  /home/born/DPDK-OVS/DPDK-1.6.0/build/lib/librte_eal.a(eal_pci.o)
                                                  /home/born/DPDK-OVS/DPDK-1.6.0/build/lib/librte_eal.a(eal_memory.o)
                                                  /home/born/DPDK-OVS/DPDK-1.6.0/build/lib/librte_eal.a(eal_hugepage_info.o)
                                                  /home/born/DPDK-OVS/DPDK-1.6.0/build/lib/librte_eal.a(eal.o)
                                                  parameters.o
fgets@@GLIBC_2.2.5                                /lib/x86_64-linux-gnu/libc.so.6
fgets@GLIBC_2.2.5                                 /lib/x86_64-linux-gnu/libc.so.6
fgetsgent_r                                       /lib/x86_64-linux-gnu/libc.so.6
fgetsgent_r@@GLIBC_2.10                           /lib/x86_64-linux-gnu/libc.so.6
fgetsgent_r@GLIBC_2.10                            /lib/x86_64-linux-gnu/libc.so.6
fgetspent_r                                       /lib/x86_64-linux-gnu/libc.so.6
fgetspent_r@@GLIBC_2.2.5                          /lib/x86_64-linux-gnu/libc.so.6
fgetspent_r@GLIBC_2.2.5                           /lib/x86_64-linux-gnu/libc.so.6
fgetwc                                            /lib/x86_64-linux-gnu/libc.so.6
fgetwc@@GLIBC_2.2.5                               /lib/x86_64-linux-gnu/libc.so.6
fgetwc@GLIBC_2.2.5                                /lib/x86_64-linux-gnu/libc.so.6
fgetwc_unlocked                                   /lib/x86_64-linux-gnu/libc.so.6
fgetwc_unlocked@@GLIBC_2.2.5                      /lib/x86_64-linux-gnu/libc.so.6
fgetwc_unlocked@GLIBC_2.2.5                       /lib/x86_64-linux-gnu/libc.so.6
fileno                                            /lib/x86_64-linux-gnu/libc.so.6
                                                  /home/born/DPDK-OVS/DPDK-1.6.0/build/lib/librte_cmdline.a(cmdline_socket.o)
fileno@@GLIBC_2.2.5                               /lib/x86_64-linux-gnu/libc.so.6
fileno@GLIBC_2.2.5                                /lib/x86_64-linux-gnu/libc.so.6
fileno_unlocked                                   /lib/x86_64-linux-gnu/libc.so.6
fileno_unlocked@@GLIBC_2.2.5                      /lib/x86_64-linux-gnu/libc.so.6
fileno_unlocked@GLIBC_2.2.5                       /lib/x86_64-linux-gnu/libc.so.6
finite                                            /lib/x86_64-linux-gnu/libc.so.6
finite@@GLIBC_2.2.5                               /lib/x86_64-linux-gnu/libc.so.6
finite@GLIBC_2.2.5                                /lib/x86_64-linux-gnu/libc.so.6
finitef                                           /lib/x86_64-linux-gnu/libc.so.6
finitef@@GLIBC_2.2.5                              /lib/x86_64-linux-gnu/libc.so.6
finitef@GLIBC_2.2.5                               /lib/x86_64-linux-gnu/libc.so.6
finitel                                           /lib/x86_64-linux-gnu/libc.so.6
finitel@@GLIBC_2.2.5                              /lib/x86_64-linux-gnu/libc.so.6
finitel@GLIBC_2.2.5                               /lib/x86_64-linux-gnu/libc.so.6
flock                                             /lib/x86_64-linux-gnu/libc.so.6
                                                  /home/born/DPDK-OVS/DPDK-1.6.0/build/lib/librte_eal.a(eal_ivshmem.o)
                                                  /home/born/DPDK-OVS/DPDK-1.6.0/build/lib/librte_eal.a(eal_memory.o)
                                                  /home/born/DPDK-OVS/DPDK-1.6.0/build/lib/librte_eal.a(eal_hugepage_info.o)
                                                  /home/born/DPDK-OVS/DPDK-1.6.0/build/lib/librte_eal.a(eal.o)
flock@@GLIBC_2.2.5                                /lib/x86_64-linux-gnu/libc.so.6
flock@GLIBC_2.2.5                                 /lib/x86_64-linux-gnu/libc.so.6
flockfile                                         /lib/x86_64-linux-gnu/libpthread.so.0
flockfile@@GLIBC_2.2.5                            /lib/x86_64-linux-gnu/libpthread.so.0
                                                  /lib/x86_64-linux-gnu/libc.so.6
flockfile@GLIBC_2.2.5                             /lib/x86_64-linux-gnu/libpthread.so.0
fnmatch                                           /lib/x86_64-linux-gnu/libc.so.6
                                                  /home/born/DPDK-OVS/DPDK-1.6.0/build/lib/librte_eal.a(eal_hugepage_info.o)
fnmatch@@GLIBC_2.2.5                              /lib/x86_64-linux-gnu/libc.so.6
fnmatch@GLIBC_2.2.5                               /lib/x86_64-linux-gnu/libc.so.6
fopen                                             /lib/x86_64-linux-gnu/libc.so.6
                                                  /home/born/DPDK-OVS/DPDK-1.6.0/build/lib/librte_eal.a(eal_pci.o)
                                                  /home/born/DPDK-OVS/DPDK-1.6.0/build/lib/librte_eal.a(eal_memory.o)
                                                  /home/born/DPDK-OVS/DPDK-1.6.0/build/lib/librte_eal.a(eal_hugepage_info.o)
                                                  /home/born/DPDK-OVS/DPDK-1.6.0/build/lib/librte_eal.a(eal.o)
                                                  parameters.o
fopen64                                           /lib/x86_64-linux-gnu/libc.so.6
fopen64@@GLIBC_2.2.5                              /lib/x86_64-linux-gnu/libc.so.6
fopen64@GLIBC_2.2.5                               /lib/x86_64-linux-gnu/libc.so.6
fopen@@GLIBC_2.2.5                                /lib/x86_64-linux-gnu/libc.so.6
fopen@GLIBC_2.2.5                                 /lib/x86_64-linux-gnu/libc.so.6
                                                  /lib/x86_64-linux-gnu/libpthread.so.0
fopencookie                                       /lib/x86_64-linux-gnu/libc.so.6
                                                  /home/born/DPDK-OVS/DPDK-1.6.0/build/lib/librte_eal.a(eal_log.o)
fopencookie@@GLIBC_2.2.5                          /lib/x86_64-linux-gnu/libc.so.6
fopencookie@GLIBC_2.2.5                           /lib/x86_64-linux-gnu/libc.so.6
fpathconf                                         /lib/x86_64-linux-gnu/libc.so.6
fpathconf@@GLIBC_2.2.5                            /lib/x86_64-linux-gnu/libc.so.6
fpathconf@GLIBC_2.2.5                             /lib/x86_64-linux-gnu/libc.so.6
fputs                                             /lib/x86_64-linux-gnu/libc.so.6
fputs@@GLIBC_2.2.5                                /lib/x86_64-linux-gnu/libc.so.6
fputs@GLIBC_2.2.5                                 /lib/x86_64-linux-gnu/libc.so.6
fread                                             /lib/x86_64-linux-gnu/libc.so.6
fread@@GLIBC_2.2.5                                /lib/x86_64-linux-gnu/libc.so.6
fread@GLIBC_2.2.5                                 /lib/x86_64-linux-gnu/libc.so.6
free                                              /lib/x86_64-linux-gnu/libc.so.6
                                                  /home/born/DPDK-OVS/DPDK-1.6.0/build/lib/librte_cmdline.a(cmdline.o)
                                                  /home/born/DPDK-OVS/DPDK-1.6.0/build/lib/librte_eal.a(eal_pci.o)
                                                  /home/born/DPDK-OVS/DPDK-1.6.0/build/lib/librte_eal.a(eal_memory.o)
                                                  mempool_anon.o
free@@GLIBC_2.2.5                                 /lib/x86_64-linux-gnu/libc.so.6
                                                  /lib/x86_64-linux-gnu/ld-linux-x86-64.so.2
free@GLIBC_2.2.5                                  /lib/x86_64-linux-gnu/libc.so.6
                                                  /lib/x86_64-linux-gnu/libpthread.so.0
                                                  /usr/lib/gcc/x86_64-linux-gnu/4.6/../../../x86_64-linux-gnu/librt.so
freelocale                                        /lib/x86_64-linux-gnu/libc.so.6
freelocale@@GLIBC_2.3                             /lib/x86_64-linux-gnu/libc.so.6
freelocale@GLIBC_2.3                              /lib/x86_64-linux-gnu/libc.so.6
frexp                                             /lib/x86_64-linux-gnu/libc.so.6
frexp@@GLIBC_2.2.5                                /lib/x86_64-linux-gnu/libc.so.6
frexp@GLIBC_2.2.5                                 /lib/x86_64-linux-gnu/libc.so.6
frexpf                                            /lib/x86_64-linux-gnu/libc.so.6
frexpf@@GLIBC_2.2.5                               /lib/x86_64-linux-gnu/libc.so.6
frexpf@GLIBC_2.2.5                                /lib/x86_64-linux-gnu/libc.so.6
frexpl                                            /lib/x86_64-linux-gnu/libc.so.6
frexpl@@GLIBC_2.2.5                               /lib/x86_64-linux-gnu/libc.so.6
frexpl@GLIBC_2.2.5                                /lib/x86_64-linux-gnu/libc.so.6
fseeko64                                          /lib/x86_64-linux-gnu/libc.so.6
fseeko64@@GLIBC_2.2.5                             /lib/x86_64-linux-gnu/libc.so.6
fseeko64@GLIBC_2.2.5                              /lib/x86_64-linux-gnu/libc.so.6
fstatfs                                           /lib/x86_64-linux-gnu/libc.so.6
fstatfs64                                         /lib/x86_64-linux-gnu/libc.so.6
fstatfs64@@GLIBC_2.2.5                            /lib/x86_64-linux-gnu/libc.so.6
fstatfs64@GLIBC_2.2.5                             /lib/x86_64-linux-gnu/libc.so.6
fstatfs@@GLIBC_2.2.5                              /lib/x86_64-linux-gnu/libc.so.6
fstatfs@GLIBC_2.2.5                               /lib/x86_64-linux-gnu/libc.so.6
fstatvfs64                                        /lib/x86_64-linux-gnu/libc.so.6
fstatvfs64@@GLIBC_2.2.5                           /lib/x86_64-linux-gnu/libc.so.6
fstatvfs64@GLIBC_2.2.5                            /lib/x86_64-linux-gnu/libc.so.6
fsync                                             /lib/x86_64-linux-gnu/libpthread.so.0
fsync@@GLIBC_2.2.5                                /lib/x86_64-linux-gnu/libpthread.so.0
                                                  /lib/x86_64-linux-gnu/libc.so.6
fsync@GLIBC_2.2.5                                 /lib/x86_64-linux-gnu/libpthread.so.0
                                                  /usr/lib/gcc/x86_64-linux-gnu/4.6/../../../x86_64-linux-gnu/librt.so
ftell                                             /lib/x86_64-linux-gnu/libc.so.6
ftell@@GLIBC_2.2.5                                /lib/x86_64-linux-gnu/libc.so.6
ftell@GLIBC_2.2.5                                 /lib/x86_64-linux-gnu/libc.so.6
ftello64                                          /lib/x86_64-linux-gnu/libc.so.6
ftello64@@GLIBC_2.2.5                             /lib/x86_64-linux-gnu/libc.so.6
ftello64@GLIBC_2.2.5                              /lib/x86_64-linux-gnu/libc.so.6
ftruncate                                         /lib/x86_64-linux-gnu/libc.so.6
                                                  /home/born/DPDK-OVS/DPDK-1.6.0/build/lib/librte_eal.a(eal_ivshmem.o)
                                                  /home/born/DPDK-OVS/DPDK-1.6.0/build/lib/librte_eal.a(eal_memory.o)
                                                  /home/born/DPDK-OVS/DPDK-1.6.0/build/lib/librte_eal.a(eal.o)
ftruncate64                                       /lib/x86_64-linux-gnu/libc.so.6
ftruncate64@@GLIBC_2.2.5                          /lib/x86_64-linux-gnu/libc.so.6
ftruncate64@GLIBC_2.2.5                           /lib/x86_64-linux-gnu/libc.so.6
ftruncate@@GLIBC_2.2.5                            /lib/x86_64-linux-gnu/libc.so.6
ftruncate@GLIBC_2.2.5                             /lib/x86_64-linux-gnu/libc.so.6
ftrylockfile                                      /lib/x86_64-linux-gnu/libpthread.so.0
ftrylockfile@@GLIBC_2.2.5                         /lib/x86_64-linux-gnu/libpthread.so.0
                                                  /lib/x86_64-linux-gnu/libc.so.6
ftrylockfile@GLIBC_2.2.5                          /lib/x86_64-linux-gnu/libpthread.so.0
ftw64                                             /lib/x86_64-linux-gnu/libc.so.6
ftw64@@GLIBC_2.2.5                                /lib/x86_64-linux-gnu/libc.so.6
ftw64@GLIBC_2.2.5                                 /lib/x86_64-linux-gnu/libc.so.6
funlockfile                                       /lib/x86_64-linux-gnu/libpthread.so.0
funlockfile@@GLIBC_2.2.5                          /lib/x86_64-linux-gnu/libpthread.so.0
                                                  /lib/x86_64-linux-gnu/libc.so.6
funlockfile@GLIBC_2.2.5                           /lib/x86_64-linux-gnu/libpthread.so.0
futimes                                           /lib/x86_64-linux-gnu/libc.so.6
futimes@@GLIBC_2.3                                /lib/x86_64-linux-gnu/libc.so.6
futimes@GLIBC_2.3                                 /lib/x86_64-linux-gnu/libc.so.6
fwd_config_display                                config.o
                                                  cmdline.o
fwd_config_setup                                  config.o
                                                  testpmd.o
fwd_engines                                       testpmd.o
                                                  config.o
fwd_lcores                                        txonly.o
                                                  config.o
                                                  testpmd.o
fwd_lcores_config_display                         config.o
                                                  cmdline.o
fwd_lcores_cpuids                                 txonly.o
                                                  config.o
                                                  testpmd.o
fwd_ports_ids                                     config.o
                                                  testpmd.o
fwd_streams                                       config.o
                                                  testpmd.o
fwprintf                                          /lib/x86_64-linux-gnu/libc.so.6
fwprintf@@GLIBC_2.2.5                             /lib/x86_64-linux-gnu/libc.so.6
fwprintf@GLIBC_2.2.5                              /lib/x86_64-linux-gnu/libc.so.6
fwrite                                            /lib/x86_64-linux-gnu/libc.so.6
                                                  /home/born/DPDK-OVS/DPDK-1.6.0/build/lib/librte_eal.a(eal_common_log.o)
                                                  /home/born/DPDK-OVS/DPDK-1.6.0/build/lib/librte_eal.a(eal_log.o)
fwrite@@GLIBC_2.2.5                               /lib/x86_64-linux-gnu/libc.so.6
fwrite@GLIBC_2.2.5                                /lib/x86_64-linux-gnu/libc.so.6
get_avphys_pages                                  /lib/x86_64-linux-gnu/libc.so.6
get_avphys_pages@@GLIBC_2.2.5                     /lib/x86_64-linux-gnu/libc.so.6
get_avphys_pages@GLIBC_2.2.5                      /lib/x86_64-linux-gnu/libc.so.6
get_nprocs                                        /lib/x86_64-linux-gnu/libc.so.6
get_nprocs@@GLIBC_2.2.5                           /lib/x86_64-linux-gnu/libc.so.6
get_nprocs@GLIBC_2.2.5                            /lib/x86_64-linux-gnu/libc.so.6
get_nprocs_conf                                   /lib/x86_64-linux-gnu/libc.so.6
get_nprocs_conf@@GLIBC_2.2.5                      /lib/x86_64-linux-gnu/libc.so.6
get_nprocs_conf@GLIBC_2.2.5                       /lib/x86_64-linux-gnu/libc.so.6
get_phys_pages                                    /lib/x86_64-linux-gnu/libc.so.6
get_phys_pages@@GLIBC_2.2.5                       /lib/x86_64-linux-gnu/libc.so.6
get_phys_pages@GLIBC_2.2.5                        /lib/x86_64-linux-gnu/libc.so.6
getc                                              /lib/x86_64-linux-gnu/libc.so.6
getc@@GLIBC_2.2.5                                 /lib/x86_64-linux-gnu/libc.so.6
getc@GLIBC_2.2.5                                  /lib/x86_64-linux-gnu/libc.so.6
getc_unlocked                                     /lib/x86_64-linux-gnu/libc.so.6
getc_unlocked@@GLIBC_2.2.5                        /lib/x86_64-linux-gnu/libc.so.6
getc_unlocked@GLIBC_2.2.5                         /lib/x86_64-linux-gnu/libc.so.6
getcontext                                        /lib/x86_64-linux-gnu/libc.so.6
getcontext@@GLIBC_2.2.5                           /lib/x86_64-linux-gnu/libc.so.6
getcontext@GLIBC_2.2.5                            /lib/x86_64-linux-gnu/libc.so.6
getcwd                                            /lib/x86_64-linux-gnu/libc.so.6
getcwd@@GLIBC_2.2.5                               /lib/x86_64-linux-gnu/libc.so.6
getcwd@GLIBC_2.2.5                                /lib/x86_64-linux-gnu/libc.so.6
getdate_r                                         /lib/x86_64-linux-gnu/libc.so.6
getdate_r@@GLIBC_2.2.5                            /lib/x86_64-linux-gnu/libc.so.6
getdate_r@GLIBC_2.2.5                             /lib/x86_64-linux-gnu/libc.so.6
getdelim                                          /lib/x86_64-linux-gnu/libc.so.6
getdelim@@GLIBC_2.2.5                             /lib/x86_64-linux-gnu/libc.so.6
getdelim@GLIBC_2.2.5                              /lib/x86_64-linux-gnu/libc.so.6
getdirentries64                                   /lib/x86_64-linux-gnu/libc.so.6
getdirentries64@@GLIBC_2.2.5                      /lib/x86_64-linux-gnu/libc.so.6
getdirentries64@GLIBC_2.2.5                       /lib/x86_64-linux-gnu/libc.so.6
getdtablesize                                     /lib/x86_64-linux-gnu/libc.so.6
getdtablesize@@GLIBC_2.2.5                        /lib/x86_64-linux-gnu/libc.so.6
getdtablesize@GLIBC_2.2.5                         /lib/x86_64-linux-gnu/libc.so.6
getegid                                           /lib/x86_64-linux-gnu/libc.so.6
getegid@@GLIBC_2.2.5                              /lib/x86_64-linux-gnu/libc.so.6
getegid@GLIBC_2.2.5                               /lib/x86_64-linux-gnu/libc.so.6
getenv                                            /lib/x86_64-linux-gnu/libc.so.6
                                                  /home/born/DPDK-OVS/DPDK-1.6.0/build/lib/librte_eal.a(eal_memory.o)
                                                  /home/born/DPDK-OVS/DPDK-1.6.0/build/lib/librte_eal.a(eal.o)
getenv@@GLIBC_2.2.5                               /lib/x86_64-linux-gnu/libc.so.6
getenv@GLIBC_2.2.5                                /lib/x86_64-linux-gnu/libc.so.6
geteuid                                           /lib/x86_64-linux-gnu/libc.so.6
geteuid@@GLIBC_2.2.5                              /lib/x86_64-linux-gnu/libc.so.6
geteuid@GLIBC_2.2.5                               /lib/x86_64-linux-gnu/libc.so.6
getgid                                            /lib/x86_64-linux-gnu/libc.so.6
getgid@@GLIBC_2.2.5                               /lib/x86_64-linux-gnu/libc.so.6
getgid@GLIBC_2.2.5                                /lib/x86_64-linux-gnu/libc.so.6
getgroups                                         /lib/x86_64-linux-gnu/libc.so.6
getgroups@@GLIBC_2.2.5                            /lib/x86_64-linux-gnu/libc.so.6
getgroups@GLIBC_2.2.5                             /lib/x86_64-linux-gnu/libc.so.6
gethostname                                       /lib/x86_64-linux-gnu/libc.so.6
gethostname@@GLIBC_2.2.5                          /lib/x86_64-linux-gnu/libc.so.6
gethostname@GLIBC_2.2.5                           /lib/x86_64-linux-gnu/libc.so.6
getitimer                                         /lib/x86_64-linux-gnu/libc.so.6
getitimer@@GLIBC_2.2.5                            /lib/x86_64-linux-gnu/libc.so.6
getitimer@GLIBC_2.2.5                             /lib/x86_64-linux-gnu/libc.so.6
getline                                           /lib/x86_64-linux-gnu/libc.so.6
getline@@GLIBC_2.2.5                              /lib/x86_64-linux-gnu/libc.so.6
getline@GLIBC_2.2.5                               /lib/x86_64-linux-gnu/libc.so.6
getmntent_r                                       /lib/x86_64-linux-gnu/libc.so.6
getmntent_r@@GLIBC_2.2.5                          /lib/x86_64-linux-gnu/libc.so.6
getmntent_r@GLIBC_2.2.5                           /lib/x86_64-linux-gnu/libc.so.6
getnetgrent_r                                     /lib/x86_64-linux-gnu/libc.so.6
getnetgrent_r@@GLIBC_2.2.5                        /lib/x86_64-linux-gnu/libc.so.6
getnetgrent_r@GLIBC_2.2.5                         /lib/x86_64-linux-gnu/libc.so.6
getopt_long                                       /lib/x86_64-linux-gnu/libc.so.6
                                                  /home/born/DPDK-OVS/DPDK-1.6.0/build/lib/librte_eal.a(eal.o)
                                                  parameters.o
getopt_long@@GLIBC_2.2.5                          /lib/x86_64-linux-gnu/libc.so.6
getopt_long@GLIBC_2.2.5                           /lib/x86_64-linux-gnu/libc.so.6
getpagesize                                       /lib/x86_64-linux-gnu/libc.so.6
                                                  /home/born/DPDK-OVS/DPDK-1.6.0/build/lib/librte_eal.a(eal_ivshmem.o)
                                                  /home/born/DPDK-OVS/DPDK-1.6.0/build/lib/librte_eal.a(eal_memory.o)
                                                  mempool_anon.o
getpagesize@@GLIBC_2.2.5                          /lib/x86_64-linux-gnu/libc.so.6
getpagesize@GLIBC_2.2.5                           /lib/x86_64-linux-gnu/libc.so.6
getpeername                                       /lib/x86_64-linux-gnu/libc.so.6
getpeername@@GLIBC_2.2.5                          /lib/x86_64-linux-gnu/libc.so.6
getpeername@GLIBC_2.2.5                           /lib/x86_64-linux-gnu/libc.so.6
getpgid                                           /lib/x86_64-linux-gnu/libc.so.6
getpgid@@GLIBC_2.2.5                              /lib/x86_64-linux-gnu/libc.so.6
getpgid@GLIBC_2.2.5                               /lib/x86_64-linux-gnu/libc.so.6
getppid                                           /lib/x86_64-linux-gnu/libc.so.6
getppid@@GLIBC_2.2.5                              /lib/x86_64-linux-gnu/libc.so.6
getppid@GLIBC_2.2.5                               /lib/x86_64-linux-gnu/libc.so.6
getpt                                             /lib/x86_64-linux-gnu/libc.so.6
getpt@@GLIBC_2.2.5                                /lib/x86_64-linux-gnu/libc.so.6
getpt@GLIBC_2.2.5                                 /lib/x86_64-linux-gnu/libc.so.6
getpw                                             /lib/x86_64-linux-gnu/libc.so.6
getpw@@GLIBC_2.2.5                                /lib/x86_64-linux-gnu/libc.so.6
getpw@GLIBC_2.2.5                                 /lib/x86_64-linux-gnu/libc.so.6
getrlimit                                         /lib/x86_64-linux-gnu/libc.so.6
getrlimit64                                       /lib/x86_64-linux-gnu/libc.so.6
getrlimit64@@GLIBC_2.2.5                          /lib/x86_64-linux-gnu/libc.so.6
getrlimit64@GLIBC_2.2.5                           /lib/x86_64-linux-gnu/libc.so.6
getrlimit@@GLIBC_2.2.5                            /lib/x86_64-linux-gnu/libc.so.6
getrlimit@GLIBC_2.2.5                             /lib/x86_64-linux-gnu/libc.so.6
                                                  /lib/x86_64-linux-gnu/libpthread.so.0
getrusage                                         /lib/x86_64-linux-gnu/libc.so.6
getrusage@@GLIBC_2.2.5                            /lib/x86_64-linux-gnu/libc.so.6
getrusage@GLIBC_2.2.5                             /lib/x86_64-linux-gnu/libc.so.6
gets                                              /lib/x86_64-linux-gnu/libc.so.6
gets@@GLIBC_2.2.5                                 /lib/x86_64-linux-gnu/libc.so.6
gets@GLIBC_2.2.5                                  /lib/x86_64-linux-gnu/libc.so.6
getsockname                                       /lib/x86_64-linux-gnu/libc.so.6
getsockname@@GLIBC_2.2.5                          /lib/x86_64-linux-gnu/libc.so.6
getsockname@GLIBC_2.2.5                           /lib/x86_64-linux-gnu/libc.so.6
getsockopt                                        /lib/x86_64-linux-gnu/libc.so.6
getsockopt@@GLIBC_2.2.5                           /lib/x86_64-linux-gnu/libc.so.6
getsockopt@GLIBC_2.2.5                            /lib/x86_64-linux-gnu/libc.so.6
gettext                                           /lib/x86_64-linux-gnu/libc.so.6
gettext@@GLIBC_2.2.5                              /lib/x86_64-linux-gnu/libc.so.6
gettext@GLIBC_2.2.5                               /lib/x86_64-linux-gnu/libc.so.6
gettimeofday                                      /lib/x86_64-linux-gnu/libc.so.6
                                                  /home/born/DPDK-OVS/DPDK-1.6.0/build/lib/librte_eal.a(eal_alarm.o)
gettimeofday@@GLIBC_2.2.5                         /lib/x86_64-linux-gnu/libc.so.6
gettimeofday@GLIBC_2.2.5                          /lib/x86_64-linux-gnu/libc.so.6
                                                  /usr/lib/gcc/x86_64-linux-gnu/4.6/../../../x86_64-linux-gnu/librt.so
getuid                                            /lib/x86_64-linux-gnu/libc.so.6
                                                  /home/born/DPDK-OVS/DPDK-1.6.0/build/lib/librte_eal.a(eal_memory.o)
                                                  /home/born/DPDK-OVS/DPDK-1.6.0/build/lib/librte_eal.a(eal.o)
getuid@@GLIBC_2.2.5                               /lib/x86_64-linux-gnu/libc.so.6
getuid@GLIBC_2.2.5                                /lib/x86_64-linux-gnu/libc.so.6
                                                  /lib/x86_64-linux-gnu/libpthread.so.0
                                                  /usr/lib/gcc/x86_64-linux-gnu/4.6/../../../x86_64-linux-gnu/librt.so
getutent                                          /lib/x86_64-linux-gnu/libc.so.6
getutent@@GLIBC_2.2.5                             /lib/x86_64-linux-gnu/libc.so.6
getutent@GLIBC_2.2.5                              /lib/x86_64-linux-gnu/libc.so.6
getutent_r                                        /lib/x86_64-linux-gnu/libc.so.6
getutent_r@@GLIBC_2.2.5                           /lib/x86_64-linux-gnu/libc.so.6
getutent_r@GLIBC_2.2.5                            /lib/x86_64-linux-gnu/libc.so.6
getutid                                           /lib/x86_64-linux-gnu/libc.so.6
getutid@@GLIBC_2.2.5                              /lib/x86_64-linux-gnu/libc.so.6
getutid@GLIBC_2.2.5                               /lib/x86_64-linux-gnu/libc.so.6
getutid_r                                         /lib/x86_64-linux-gnu/libc.so.6
getutid_r@@GLIBC_2.2.5                            /lib/x86_64-linux-gnu/libc.so.6
getutid_r@GLIBC_2.2.5                             /lib/x86_64-linux-gnu/libc.so.6
getutline                                         /lib/x86_64-linux-gnu/libc.so.6
getutline@@GLIBC_2.2.5                            /lib/x86_64-linux-gnu/libc.so.6
getutline@GLIBC_2.2.5                             /lib/x86_64-linux-gnu/libc.so.6
getutline_r                                       /lib/x86_64-linux-gnu/libc.so.6
getutline_r@@GLIBC_2.2.5                          /lib/x86_64-linux-gnu/libc.so.6
getutline_r@GLIBC_2.2.5                           /lib/x86_64-linux-gnu/libc.so.6
getwc                                             /lib/x86_64-linux-gnu/libc.so.6
getwc@@GLIBC_2.2.5                                /lib/x86_64-linux-gnu/libc.so.6
getwc@GLIBC_2.2.5                                 /lib/x86_64-linux-gnu/libc.so.6
getwc_unlocked                                    /lib/x86_64-linux-gnu/libc.so.6
getwc_unlocked@@GLIBC_2.2.5                       /lib/x86_64-linux-gnu/libc.so.6
getwc_unlocked@GLIBC_2.2.5                        /lib/x86_64-linux-gnu/libc.so.6
glob64                                            /lib/x86_64-linux-gnu/libc.so.6
glob64@@GLIBC_2.2.5                               /lib/x86_64-linux-gnu/libc.so.6
glob64@GLIBC_2.2.5                                /lib/x86_64-linux-gnu/libc.so.6
glob_pattern_p                                    /lib/x86_64-linux-gnu/libc.so.6
glob_pattern_p@@GLIBC_2.2.5                       /lib/x86_64-linux-gnu/libc.so.6
glob_pattern_p@GLIBC_2.2.5                        /lib/x86_64-linux-gnu/libc.so.6
globfree64                                        /lib/x86_64-linux-gnu/libc.so.6
globfree64@@GLIBC_2.2.5                           /lib/x86_64-linux-gnu/libc.so.6
globfree64@GLIBC_2.2.5                            /lib/x86_64-linux-gnu/libc.so.6
gmtime_r                                          /lib/x86_64-linux-gnu/libc.so.6
gmtime_r@@GLIBC_2.2.5                             /lib/x86_64-linux-gnu/libc.so.6
gmtime_r@GLIBC_2.2.5                              /lib/x86_64-linux-gnu/libc.so.6
gnu_get_libc_release                              /lib/x86_64-linux-gnu/libc.so.6
gnu_get_libc_release@@GLIBC_2.2.5                 /lib/x86_64-linux-gnu/libc.so.6
gnu_get_libc_release@GLIBC_2.2.5                  /lib/x86_64-linux-gnu/libc.so.6
gnu_get_libc_version                              /lib/x86_64-linux-gnu/libc.so.6
gnu_get_libc_version@@GLIBC_2.2.5                 /lib/x86_64-linux-gnu/libc.so.6
gnu_get_libc_version@GLIBC_2.2.5                  /lib/x86_64-linux-gnu/libc.so.6
group_member                                      /lib/x86_64-linux-gnu/libc.so.6
group_member@@GLIBC_2.2.5                         /lib/x86_64-linux-gnu/libc.so.6
group_member@GLIBC_2.2.5                          /lib/x86_64-linux-gnu/libc.so.6
gsignal                                           /lib/x86_64-linux-gnu/libc.so.6
gsignal@@GLIBC_2.2.5                              /lib/x86_64-linux-gnu/libc.so.6
gsignal@GLIBC_2.2.5                               /lib/x86_64-linux-gnu/libc.so.6
hasmntopt                                         /lib/x86_64-linux-gnu/libc.so.6
hasmntopt@@GLIBC_2.2.5                            /lib/x86_64-linux-gnu/libc.so.6
hasmntopt@GLIBC_2.2.5                             /lib/x86_64-linux-gnu/libc.so.6
hdestroy                                          /lib/x86_64-linux-gnu/libc.so.6
hdestroy@@GLIBC_2.2.5                             /lib/x86_64-linux-gnu/libc.so.6
hdestroy@GLIBC_2.2.5                              /lib/x86_64-linux-gnu/libc.so.6
igb_dev_clear_queues                              /home/born/DPDK-OVS/DPDK-1.6.0/build/lib/librte_pmd_e1000.a(igb_rxtx.o)
                                                  /home/born/DPDK-OVS/DPDK-1.6.0/build/lib/librte_pmd_e1000.a(igb_ethdev.o)
igb_pf_host_configure                             /home/born/DPDK-OVS/DPDK-1.6.0/build/lib/librte_pmd_e1000.a(igb_pf.o)
                                                  /home/born/DPDK-OVS/DPDK-1.6.0/build/lib/librte_pmd_e1000.a(igb_ethdev.o)
igb_pf_host_init                                  /home/born/DPDK-OVS/DPDK-1.6.0/build/lib/librte_pmd_e1000.a(igb_pf.o)
                                                  /home/born/DPDK-OVS/DPDK-1.6.0/build/lib/librte_pmd_e1000.a(igb_ethdev.o)
igb_pf_mbx_process                                /home/born/DPDK-OVS/DPDK-1.6.0/build/lib/librte_pmd_e1000.a(igb_pf.o)
                                                  /home/born/DPDK-OVS/DPDK-1.6.0/build/lib/librte_pmd_e1000.a(igb_ethdev.o)
imaxabs                                           /lib/x86_64-linux-gnu/libc.so.6
imaxabs@@GLIBC_2.2.5                              /lib/x86_64-linux-gnu/libc.so.6
imaxabs@GLIBC_2.2.5                               /lib/x86_64-linux-gnu/libc.so.6
imaxdiv                                           /lib/x86_64-linux-gnu/libc.so.6
imaxdiv@@GLIBC_2.2.5                              /lib/x86_64-linux-gnu/libc.so.6
imaxdiv@GLIBC_2.2.5                               /lib/x86_64-linux-gnu/libc.so.6
index                                             /lib/x86_64-linux-gnu/libc.so.6
                                                  /home/born/DPDK-OVS/DPDK-1.6.0/build/lib/librte_eal.a(eal.o)
index@@GLIBC_2.2.5                                /lib/x86_64-linux-gnu/libc.so.6
index@GLIBC_2.2.5                                 /lib/x86_64-linux-gnu/libc.so.6
inet_aton                                         /lib/x86_64-linux-gnu/libc.so.6
inet_aton@@GLIBC_2.2.5                            /lib/x86_64-linux-gnu/libc.so.6
inet_aton@GLIBC_2.2.5                             /lib/x86_64-linux-gnu/libc.so.6
init_fwd_streams                                  testpmd.o
                                                  config.o
init_port_config                                  testpmd.o
                                                  cmdline.o
init_port_dcb_config                              testpmd.o
                                                  cmdline.o
initstate                                         /lib/x86_64-linux-gnu/libc.so.6
initstate@@GLIBC_2.2.5                            /lib/x86_64-linux-gnu/libc.so.6
initstate@GLIBC_2.2.5                             /lib/x86_64-linux-gnu/libc.so.6
initstate_r                                       /lib/x86_64-linux-gnu/libc.so.6
initstate_r@@GLIBC_2.2.5                          /lib/x86_64-linux-gnu/libc.so.6
initstate_r@GLIBC_2.2.5                           /lib/x86_64-linux-gnu/libc.so.6
interactive                                       testpmd.o
                                                  parameters.o
internal_config                                   /home/born/DPDK-OVS/DPDK-1.6.0/build/lib/librte_eal.a(eal_ivshmem.o)
                                                  /home/born/DPDK-OVS/DPDK-1.6.0/build/lib/librte_eal.a(eal_pci.o)
                                                  /home/born/DPDK-OVS/DPDK-1.6.0/build/lib/librte_eal.a(eal_memory.o)
                                                  /home/born/DPDK-OVS/DPDK-1.6.0/build/lib/librte_eal.a(eal_hugepage_info.o)
                                                  /home/born/DPDK-OVS/DPDK-1.6.0/build/lib/librte_eal.a(eal.o)
io_fwd_engine                                     iofwd.o
                                                  testpmd.o
ioctl                                             /lib/x86_64-linux-gnu/libc.so.6
ioctl@@GLIBC_2.2.5                                /lib/x86_64-linux-gnu/libc.so.6
ioctl@GLIBC_2.2.5                                 /lib/x86_64-linux-gnu/libc.so.6
iopl                                              /lib/x86_64-linux-gnu/libc.so.6
                                                  /home/born/DPDK-OVS/DPDK-1.6.0/build/lib/librte_eal.a(eal.o)
iopl@@GLIBC_2.2.5                                 /lib/x86_64-linux-gnu/libc.so.6
iopl@GLIBC_2.2.5                                  /lib/x86_64-linux-gnu/libc.so.6
isalnum_l                                         /lib/x86_64-linux-gnu/libc.so.6
isalnum_l@@GLIBC_2.3                              /lib/x86_64-linux-gnu/libc.so.6
isalnum_l@GLIBC_2.3                               /lib/x86_64-linux-gnu/libc.so.6
isalpha_l                                         /lib/x86_64-linux-gnu/libc.so.6
isalpha_l@@GLIBC_2.3                              /lib/x86_64-linux-gnu/libc.so.6
isalpha_l@GLIBC_2.3                               /lib/x86_64-linux-gnu/libc.so.6
isatty                                            /lib/x86_64-linux-gnu/libc.so.6
isatty@@GLIBC_2.2.5                               /lib/x86_64-linux-gnu/libc.so.6
isatty@GLIBC_2.2.5                                /lib/x86_64-linux-gnu/libc.so.6
isblank_l                                         /lib/x86_64-linux-gnu/libc.so.6
isblank_l@@GLIBC_2.3                              /lib/x86_64-linux-gnu/libc.so.6
isblank_l@GLIBC_2.3                               /lib/x86_64-linux-gnu/libc.so.6
iscntrl_l                                         /lib/x86_64-linux-gnu/libc.so.6
iscntrl_l@@GLIBC_2.3                              /lib/x86_64-linux-gnu/libc.so.6
iscntrl_l@GLIBC_2.3                               /lib/x86_64-linux-gnu/libc.so.6
isctype                                           /lib/x86_64-linux-gnu/libc.so.6
isctype@@GLIBC_2.3                                /lib/x86_64-linux-gnu/libc.so.6
isctype@GLIBC_2.3                                 /lib/x86_64-linux-gnu/libc.so.6
isdigit_l                                         /lib/x86_64-linux-gnu/libc.so.6
isdigit_l@@GLIBC_2.3                              /lib/x86_64-linux-gnu/libc.so.6
isdigit_l@GLIBC_2.3                               /lib/x86_64-linux-gnu/libc.so.6
isgraph_l                                         /lib/x86_64-linux-gnu/libc.so.6
isgraph_l@@GLIBC_2.3                              /lib/x86_64-linux-gnu/libc.so.6
isgraph_l@GLIBC_2.3                               /lib/x86_64-linux-gnu/libc.so.6
isinf                                             /lib/x86_64-linux-gnu/libc.so.6
isinf@@GLIBC_2.2.5                                /lib/x86_64-linux-gnu/libc.so.6
isinf@GLIBC_2.2.5                                 /lib/x86_64-linux-gnu/libc.so.6
isinff                                            /lib/x86_64-linux-gnu/libc.so.6
isinff@@GLIBC_2.2.5                               /lib/x86_64-linux-gnu/libc.so.6
isinff@GLIBC_2.2.5                                /lib/x86_64-linux-gnu/libc.so.6
isinfl                                            /lib/x86_64-linux-gnu/libc.so.6
isinfl@@GLIBC_2.2.5                               /lib/x86_64-linux-gnu/libc.so.6
isinfl@GLIBC_2.2.5                                /lib/x86_64-linux-gnu/libc.so.6
islower_l                                         /lib/x86_64-linux-gnu/libc.so.6
islower_l@@GLIBC_2.3                              /lib/x86_64-linux-gnu/libc.so.6
islower_l@GLIBC_2.3                               /lib/x86_64-linux-gnu/libc.so.6
isnan                                             /lib/x86_64-linux-gnu/libc.so.6
isnan@@GLIBC_2.2.5                                /lib/x86_64-linux-gnu/libc.so.6
isnan@GLIBC_2.2.5                                 /lib/x86_64-linux-gnu/libc.so.6
isnanf                                            /lib/x86_64-linux-gnu/libc.so.6
isnanf@@GLIBC_2.2.5                               /lib/x86_64-linux-gnu/libc.so.6
isnanf@GLIBC_2.2.5                                /lib/x86_64-linux-gnu/libc.so.6
isnanl                                            /lib/x86_64-linux-gnu/libc.so.6
isnanl@@GLIBC_2.2.5                               /lib/x86_64-linux-gnu/libc.so.6
isnanl@GLIBC_2.2.5                                /lib/x86_64-linux-gnu/libc.so.6
isprint_l                                         /lib/x86_64-linux-gnu/libc.so.6
isprint_l@@GLIBC_2.3                              /lib/x86_64-linux-gnu/libc.so.6
isprint_l@GLIBC_2.3                               /lib/x86_64-linux-gnu/libc.so.6
ispunct_l                                         /lib/x86_64-linux-gnu/libc.so.6
ispunct_l@@GLIBC_2.3                              /lib/x86_64-linux-gnu/libc.so.6
ispunct_l@GLIBC_2.3                               /lib/x86_64-linux-gnu/libc.so.6
isspace_l                                         /lib/x86_64-linux-gnu/libc.so.6
isspace_l@@GLIBC_2.3                              /lib/x86_64-linux-gnu/libc.so.6
isspace_l@GLIBC_2.3                               /lib/x86_64-linux-gnu/libc.so.6
isupper_l                                         /lib/x86_64-linux-gnu/libc.so.6
isupper_l@@GLIBC_2.3                              /lib/x86_64-linux-gnu/libc.so.6
isupper_l@GLIBC_2.3                               /lib/x86_64-linux-gnu/libc.so.6
iswalnum                                          /lib/x86_64-linux-gnu/libc.so.6
iswalnum@@GLIBC_2.2.5                             /lib/x86_64-linux-gnu/libc.so.6
iswalnum@GLIBC_2.2.5                              /lib/x86_64-linux-gnu/libc.so.6
iswalnum_l                                        /lib/x86_64-linux-gnu/libc.so.6
iswalnum_l@@GLIBC_2.3                             /lib/x86_64-linux-gnu/libc.so.6
iswalnum_l@GLIBC_2.3                              /lib/x86_64-linux-gnu/libc.so.6
iswalpha                                          /lib/x86_64-linux-gnu/libc.so.6
iswalpha@@GLIBC_2.2.5                             /lib/x86_64-linux-gnu/libc.so.6
iswalpha@GLIBC_2.2.5                              /lib/x86_64-linux-gnu/libc.so.6
iswalpha_l                                        /lib/x86_64-linux-gnu/libc.so.6
iswalpha_l@@GLIBC_2.3                             /lib/x86_64-linux-gnu/libc.so.6
iswalpha_l@GLIBC_2.3                              /lib/x86_64-linux-gnu/libc.so.6
iswblank                                          /lib/x86_64-linux-gnu/libc.so.6
iswblank@@GLIBC_2.2.5                             /lib/x86_64-linux-gnu/libc.so.6
iswblank@GLIBC_2.2.5                              /lib/x86_64-linux-gnu/libc.so.6
iswblank_l                                        /lib/x86_64-linux-gnu/libc.so.6
iswblank_l@@GLIBC_2.3                             /lib/x86_64-linux-gnu/libc.so.6
iswblank_l@GLIBC_2.3                              /lib/x86_64-linux-gnu/libc.so.6
iswcntrl                                          /lib/x86_64-linux-gnu/libc.so.6
iswcntrl@@GLIBC_2.2.5                             /lib/x86_64-linux-gnu/libc.so.6
iswcntrl@GLIBC_2.2.5                              /lib/x86_64-linux-gnu/libc.so.6
iswcntrl_l                                        /lib/x86_64-linux-gnu/libc.so.6
iswcntrl_l@@GLIBC_2.3                             /lib/x86_64-linux-gnu/libc.so.6
iswcntrl_l@GLIBC_2.3                              /lib/x86_64-linux-gnu/libc.so.6
iswctype                                          /lib/x86_64-linux-gnu/libc.so.6
iswctype@@GLIBC_2.2.5                             /lib/x86_64-linux-gnu/libc.so.6
iswctype@GLIBC_2.2.5                              /lib/x86_64-linux-gnu/libc.so.6
iswctype_l                                        /lib/x86_64-linux-gnu/libc.so.6
iswctype_l@@GLIBC_2.3                             /lib/x86_64-linux-gnu/libc.so.6
iswctype_l@GLIBC_2.3                              /lib/x86_64-linux-gnu/libc.so.6
iswdigit                                          /lib/x86_64-linux-gnu/libc.so.6
iswdigit@@GLIBC_2.2.5                             /lib/x86_64-linux-gnu/libc.so.6
iswdigit@GLIBC_2.2.5                              /lib/x86_64-linux-gnu/libc.so.6
iswdigit_l                                        /lib/x86_64-linux-gnu/libc.so.6
iswdigit_l@@GLIBC_2.3                             /lib/x86_64-linux-gnu/libc.so.6
iswdigit_l@GLIBC_2.3                              /lib/x86_64-linux-gnu/libc.so.6
iswgraph                                          /lib/x86_64-linux-gnu/libc.so.6
iswgraph@@GLIBC_2.2.5                             /lib/x86_64-linux-gnu/libc.so.6
iswgraph@GLIBC_2.2.5                              /lib/x86_64-linux-gnu/libc.so.6
iswgraph_l                                        /lib/x86_64-linux-gnu/libc.so.6
iswgraph_l@@GLIBC_2.3                             /lib/x86_64-linux-gnu/libc.so.6
iswgraph_l@GLIBC_2.3                              /lib/x86_64-linux-gnu/libc.so.6
iswlower                                          /lib/x86_64-linux-gnu/libc.so.6
iswlower@@GLIBC_2.2.5                             /lib/x86_64-linux-gnu/libc.so.6
iswlower@GLIBC_2.2.5                              /lib/x86_64-linux-gnu/libc.so.6
iswlower_l                                        /lib/x86_64-linux-gnu/libc.so.6
iswlower_l@@GLIBC_2.3                             /lib/x86_64-linux-gnu/libc.so.6
iswlower_l@GLIBC_2.3                              /lib/x86_64-linux-gnu/libc.so.6
iswprint                                          /lib/x86_64-linux-gnu/libc.so.6
iswprint@@GLIBC_2.2.5                             /lib/x86_64-linux-gnu/libc.so.6
iswprint@GLIBC_2.2.5                              /lib/x86_64-linux-gnu/libc.so.6
iswprint_l                                        /lib/x86_64-linux-gnu/libc.so.6
iswprint_l@@GLIBC_2.3                             /lib/x86_64-linux-gnu/libc.so.6
iswprint_l@GLIBC_2.3                              /lib/x86_64-linux-gnu/libc.so.6
iswpunct                                          /lib/x86_64-linux-gnu/libc.so.6
iswpunct@@GLIBC_2.2.5                             /lib/x86_64-linux-gnu/libc.so.6
iswpunct@GLIBC_2.2.5                              /lib/x86_64-linux-gnu/libc.so.6
iswpunct_l                                        /lib/x86_64-linux-gnu/libc.so.6
iswpunct_l@@GLIBC_2.3                             /lib/x86_64-linux-gnu/libc.so.6
iswpunct_l@GLIBC_2.3                              /lib/x86_64-linux-gnu/libc.so.6
iswspace                                          /lib/x86_64-linux-gnu/libc.so.6
iswspace@@GLIBC_2.2.5                             /lib/x86_64-linux-gnu/libc.so.6
iswspace@GLIBC_2.2.5                              /lib/x86_64-linux-gnu/libc.so.6
iswspace_l                                        /lib/x86_64-linux-gnu/libc.so.6
iswspace_l@@GLIBC_2.3                             /lib/x86_64-linux-gnu/libc.so.6
iswspace_l@GLIBC_2.3                              /lib/x86_64-linux-gnu/libc.so.6
iswupper                                          /lib/x86_64-linux-gnu/libc.so.6
iswupper@@GLIBC_2.2.5                             /lib/x86_64-linux-gnu/libc.so.6
iswupper@GLIBC_2.2.5                              /lib/x86_64-linux-gnu/libc.so.6
iswupper_l                                        /lib/x86_64-linux-gnu/libc.so.6
iswupper_l@@GLIBC_2.3                             /lib/x86_64-linux-gnu/libc.so.6
iswupper_l@GLIBC_2.3                              /lib/x86_64-linux-gnu/libc.so.6
iswxdigit                                         /lib/x86_64-linux-gnu/libc.so.6
iswxdigit@@GLIBC_2.2.5                            /lib/x86_64-linux-gnu/libc.so.6
iswxdigit@GLIBC_2.2.5                             /lib/x86_64-linux-gnu/libc.so.6
iswxdigit_l                                       /lib/x86_64-linux-gnu/libc.so.6
iswxdigit_l@@GLIBC_2.3                            /lib/x86_64-linux-gnu/libc.so.6
iswxdigit_l@GLIBC_2.3                             /lib/x86_64-linux-gnu/libc.so.6
isxdigit_l                                        /lib/x86_64-linux-gnu/libc.so.6
isxdigit_l@@GLIBC_2.3                             /lib/x86_64-linux-gnu/libc.so.6
isxdigit_l@GLIBC_2.3                              /lib/x86_64-linux-gnu/libc.so.6
ixgbe_acquire_swfw_semaphore                      /home/born/DPDK-OVS/DPDK-1.6.0/build/lib/librte_pmd_ixgbe.a(ixgbe_api.o)
ixgbe_acquire_swfw_sync                           /home/born/DPDK-OVS/DPDK-1.6.0/build/lib/librte_pmd_ixgbe.a(ixgbe_common.o)
ixgbe_acquire_swfw_sync_X540                      /home/born/DPDK-OVS/DPDK-1.6.0/build/lib/librte_pmd_ixgbe.a(ixgbe_x540.o)
ixgbe_add_uc_addr                                 /home/born/DPDK-OVS/DPDK-1.6.0/build/lib/librte_pmd_ixgbe.a(ixgbe_common.o)
ixgbe_atr_compute_perfect_hash_82599              /home/born/DPDK-OVS/DPDK-1.6.0/build/lib/librte_pmd_ixgbe.a(ixgbe_82599.o)
ixgbe_atr_compute_sig_hash_82599                  /home/born/DPDK-OVS/DPDK-1.6.0/build/lib/librte_pmd_ixgbe.a(ixgbe_82599.o)
ixgbe_blink_led_start                             /home/born/DPDK-OVS/DPDK-1.6.0/build/lib/librte_pmd_ixgbe.a(ixgbe_api.o)
ixgbe_blink_led_start_X540                        /home/born/DPDK-OVS/DPDK-1.6.0/build/lib/librte_pmd_ixgbe.a(ixgbe_x540.o)
ixgbe_blink_led_start_generic                     /home/born/DPDK-OVS/DPDK-1.6.0/build/lib/librte_pmd_ixgbe.a(ixgbe_common.o)
ixgbe_blink_led_stop                              /home/born/DPDK-OVS/DPDK-1.6.0/build/lib/librte_pmd_ixgbe.a(ixgbe_api.o)
ixgbe_blink_led_stop_X540                         /home/born/DPDK-OVS/DPDK-1.6.0/build/lib/librte_pmd_ixgbe.a(ixgbe_x540.o)
ixgbe_blink_led_stop_generic                      /home/born/DPDK-OVS/DPDK-1.6.0/build/lib/librte_pmd_ixgbe.a(ixgbe_common.o)
ixgbe_calc_eeprom_checksum_X540                   /home/born/DPDK-OVS/DPDK-1.6.0/build/lib/librte_pmd_ixgbe.a(ixgbe_x540.o)
ixgbe_calc_eeprom_checksum_generic                /home/born/DPDK-OVS/DPDK-1.6.0/build/lib/librte_pmd_ixgbe.a(ixgbe_common.o)
ixgbe_check_for_ack                               /home/born/DPDK-OVS/DPDK-1.6.0/build/lib/librte_pmd_ixgbe.a(ixgbe_mbx.o)
                                                  /home/born/DPDK-OVS/DPDK-1.6.0/build/lib/librte_pmd_ixgbe.a(ixgbe_pf.o)
ixgbe_check_for_msg                               /home/born/DPDK-OVS/DPDK-1.6.0/build/lib/librte_pmd_ixgbe.a(ixgbe_mbx.o)
                                                  /home/born/DPDK-OVS/DPDK-1.6.0/build/lib/librte_pmd_ixgbe.a(ixgbe_pf.o)
ixgbe_check_for_rst                               /home/born/DPDK-OVS/DPDK-1.6.0/build/lib/librte_pmd_ixgbe.a(ixgbe_mbx.o)
                                                  /home/born/DPDK-OVS/DPDK-1.6.0/build/lib/librte_pmd_ixgbe.a(ixgbe_pf.o)
ixgbe_check_link                                  /home/born/DPDK-OVS/DPDK-1.6.0/build/lib/librte_pmd_ixgbe.a(ixgbe_api.o)
                                                  /home/born/DPDK-OVS/DPDK-1.6.0/build/lib/librte_pmd_ixgbe.a(ixgbe_82599.o)
                                                  /home/born/DPDK-OVS/DPDK-1.6.0/build/lib/librte_pmd_ixgbe.a(ixgbe_ethdev.o)
ixgbe_check_mac_link_generic                      /home/born/DPDK-OVS/DPDK-1.6.0/build/lib/librte_pmd_ixgbe.a(ixgbe_common.o)
                                                  /home/born/DPDK-OVS/DPDK-1.6.0/build/lib/librte_pmd_ixgbe.a(ixgbe_x540.o)
                                                  /home/born/DPDK-OVS/DPDK-1.6.0/build/lib/librte_pmd_ixgbe.a(ixgbe_82599.o)
ixgbe_check_mac_link_vf                           /home/born/DPDK-OVS/DPDK-1.6.0/build/lib/librte_pmd_ixgbe.a(ixgbe_vf.o)
ixgbe_check_phy_link                              /home/born/DPDK-OVS/DPDK-1.6.0/build/lib/librte_pmd_ixgbe.a(ixgbe_api.o)
ixgbe_check_phy_link_tnx                          /home/born/DPDK-OVS/DPDK-1.6.0/build/lib/librte_pmd_ixgbe.a(ixgbe_phy.o)
                                                  /home/born/DPDK-OVS/DPDK-1.6.0/build/lib/librte_pmd_ixgbe.a(ixgbe_82598.o)
                                                  /home/born/DPDK-OVS/DPDK-1.6.0/build/lib/librte_pmd_ixgbe.a(ixgbe_82599.o)
ixgbe_clear_hw_cntrs                              /home/born/DPDK-OVS/DPDK-1.6.0/build/lib/librte_pmd_ixgbe.a(ixgbe_api.o)
ixgbe_clear_hw_cntrs_generic                      /home/born/DPDK-OVS/DPDK-1.6.0/build/lib/librte_pmd_ixgbe.a(ixgbe_common.o)
ixgbe_clear_rar                                   /home/born/DPDK-OVS/DPDK-1.6.0/build/lib/librte_pmd_ixgbe.a(ixgbe_api.o)
                                                  /home/born/DPDK-OVS/DPDK-1.6.0/build/lib/librte_pmd_ixgbe.a(ixgbe_ethdev.o)
ixgbe_clear_rar_generic                           /home/born/DPDK-OVS/DPDK-1.6.0/build/lib/librte_pmd_ixgbe.a(ixgbe_common.o)
ixgbe_clear_tx_pending                            /home/born/DPDK-OVS/DPDK-1.6.0/build/lib/librte_pmd_ixgbe.a(ixgbe_common.o)
                                                  /home/born/DPDK-OVS/DPDK-1.6.0/build/lib/librte_pmd_ixgbe.a(ixgbe_x540.o)
                                                  /home/born/DPDK-OVS/DPDK-1.6.0/build/lib/librte_pmd_ixgbe.a(ixgbe_82599.o)
ixgbe_clear_vfta                                  /home/born/DPDK-OVS/DPDK-1.6.0/build/lib/librte_pmd_ixgbe.a(ixgbe_api.o)
ixgbe_clear_vfta_generic                          /home/born/DPDK-OVS/DPDK-1.6.0/build/lib/librte_pmd_ixgbe.a(ixgbe_common.o)
                                                  /home/born/DPDK-OVS/DPDK-1.6.0/build/lib/librte_pmd_ixgbe.a(ixgbe_x540.o)
                                                  /home/born/DPDK-OVS/DPDK-1.6.0/build/lib/librte_pmd_ixgbe.a(ixgbe_82599.o)
ixgbe_clear_vmdq                                  /home/born/DPDK-OVS/DPDK-1.6.0/build/lib/librte_pmd_ixgbe.a(ixgbe_api.o)
                                                  /home/born/DPDK-OVS/DPDK-1.6.0/build/lib/librte_pmd_ixgbe.a(ixgbe_common.o)
ixgbe_clear_vmdq_generic                          /home/born/DPDK-OVS/DPDK-1.6.0/build/lib/librte_pmd_ixgbe.a(ixgbe_common.o)
                                                  /home/born/DPDK-OVS/DPDK-1.6.0/build/lib/librte_pmd_ixgbe.a(ixgbe_x540.o)
                                                  /home/born/DPDK-OVS/DPDK-1.6.0/build/lib/librte_pmd_ixgbe.a(ixgbe_82599.o)
ixgbe_configure_dcb                               /home/born/DPDK-OVS/DPDK-1.6.0/build/lib/librte_pmd_ixgbe.a(ixgbe_rxtx.o)
                                                  /home/born/DPDK-OVS/DPDK-1.6.0/build/lib/librte_pmd_ixgbe.a(ixgbe_ethdev.o)
ixgbe_dcb_calculate_tc_credits                    /home/born/DPDK-OVS/DPDK-1.6.0/build/lib/librte_pmd_ixgbe.a(ixgbe_dcb.o)
ixgbe_dcb_calculate_tc_credits_cee                /home/born/DPDK-OVS/DPDK-1.6.0/build/lib/librte_pmd_ixgbe.a(ixgbe_dcb.o)
                                                  /home/born/DPDK-OVS/DPDK-1.6.0/build/lib/librte_pmd_ixgbe.a(ixgbe_rxtx.o)
ixgbe_dcb_check_config_cee                        /home/born/DPDK-OVS/DPDK-1.6.0/build/lib/librte_pmd_ixgbe.a(ixgbe_dcb.o)
ixgbe_dcb_config_82599                            /home/born/DPDK-OVS/DPDK-1.6.0/build/lib/librte_pmd_ixgbe.a(ixgbe_dcb_82599.o)
                                                  /home/born/DPDK-OVS/DPDK-1.6.0/build/lib/librte_pmd_ixgbe.a(ixgbe_dcb.o)
ixgbe_dcb_config_pfc                              /home/born/DPDK-OVS/DPDK-1.6.0/build/lib/librte_pmd_ixgbe.a(ixgbe_dcb.o)
                                                  /home/born/DPDK-OVS/DPDK-1.6.0/build/lib/librte_pmd_ixgbe.a(ixgbe_rxtx.o)
ixgbe_dcb_config_pfc_82598                        /home/born/DPDK-OVS/DPDK-1.6.0/build/lib/librte_pmd_ixgbe.a(ixgbe_dcb_82598.o)
                                                  /home/born/DPDK-OVS/DPDK-1.6.0/build/lib/librte_pmd_ixgbe.a(ixgbe_dcb.o)
ixgbe_dcb_config_pfc_82599                        /home/born/DPDK-OVS/DPDK-1.6.0/build/lib/librte_pmd_ixgbe.a(ixgbe_dcb_82599.o)
                                                  /home/born/DPDK-OVS/DPDK-1.6.0/build/lib/librte_pmd_ixgbe.a(ixgbe_dcb.o)
ixgbe_dcb_config_pfc_cee                          /home/born/DPDK-OVS/DPDK-1.6.0/build/lib/librte_pmd_ixgbe.a(ixgbe_dcb.o)
ixgbe_dcb_config_rx_arbiter_82598                 /home/born/DPDK-OVS/DPDK-1.6.0/build/lib/librte_pmd_ixgbe.a(ixgbe_dcb_82598.o)
                                                  /home/born/DPDK-OVS/DPDK-1.6.0/build/lib/librte_pmd_ixgbe.a(ixgbe_rxtx.o)
                                                  /home/born/DPDK-OVS/DPDK-1.6.0/build/lib/librte_pmd_ixgbe.a(ixgbe_dcb.o)
ixgbe_dcb_config_rx_arbiter_82599                 /home/born/DPDK-OVS/DPDK-1.6.0/build/lib/librte_pmd_ixgbe.a(ixgbe_dcb_82599.o)
                                                  /home/born/DPDK-OVS/DPDK-1.6.0/build/lib/librte_pmd_ixgbe.a(ixgbe_rxtx.o)
                                                  /home/born/DPDK-OVS/DPDK-1.6.0/build/lib/librte_pmd_ixgbe.a(ixgbe_dcb.o)
ixgbe_dcb_config_rx_arbiter_cee                   /home/born/DPDK-OVS/DPDK-1.6.0/build/lib/librte_pmd_ixgbe.a(ixgbe_dcb.o)
ixgbe_dcb_config_tc_stats                         /home/born/DPDK-OVS/DPDK-1.6.0/build/lib/librte_pmd_ixgbe.a(ixgbe_dcb.o)
ixgbe_dcb_config_tc_stats_82598                   /home/born/DPDK-OVS/DPDK-1.6.0/build/lib/librte_pmd_ixgbe.a(ixgbe_dcb_82598.o)
                                                  /home/born/DPDK-OVS/DPDK-1.6.0/build/lib/librte_pmd_ixgbe.a(ixgbe_dcb.o)
ixgbe_dcb_config_tc_stats_82599                   /home/born/DPDK-OVS/DPDK-1.6.0/build/lib/librte_pmd_ixgbe.a(ixgbe_dcb_82599.o)
                                                  /home/born/DPDK-OVS/DPDK-1.6.0/build/lib/librte_pmd_ixgbe.a(ixgbe_rxtx.o)
                                                  /home/born/DPDK-OVS/DPDK-1.6.0/build/lib/librte_pmd_ixgbe.a(ixgbe_dcb.o)
ixgbe_dcb_config_tx_data_arbiter_82598            /home/born/DPDK-OVS/DPDK-1.6.0/build/lib/librte_pmd_ixgbe.a(ixgbe_dcb_82598.o)
                                                  /home/born/DPDK-OVS/DPDK-1.6.0/build/lib/librte_pmd_ixgbe.a(ixgbe_rxtx.o)
                                                  /home/born/DPDK-OVS/DPDK-1.6.0/build/lib/librte_pmd_ixgbe.a(ixgbe_dcb.o)
ixgbe_dcb_config_tx_data_arbiter_82599            /home/born/DPDK-OVS/DPDK-1.6.0/build/lib/librte_pmd_ixgbe.a(ixgbe_dcb_82599.o)
                                                  /home/born/DPDK-OVS/DPDK-1.6.0/build/lib/librte_pmd_ixgbe.a(ixgbe_rxtx.o)
                                                  /home/born/DPDK-OVS/DPDK-1.6.0/build/lib/librte_pmd_ixgbe.a(ixgbe_dcb.o)
ixgbe_dcb_config_tx_data_arbiter_cee              /home/born/DPDK-OVS/DPDK-1.6.0/build/lib/librte_pmd_ixgbe.a(ixgbe_dcb.o)
ixgbe_dcb_config_tx_desc_arbiter_82598            /home/born/DPDK-OVS/DPDK-1.6.0/build/lib/librte_pmd_ixgbe.a(ixgbe_dcb_82598.o)
                                                  /home/born/DPDK-OVS/DPDK-1.6.0/build/lib/librte_pmd_ixgbe.a(ixgbe_rxtx.o)
                                                  /home/born/DPDK-OVS/DPDK-1.6.0/build/lib/librte_pmd_ixgbe.a(ixgbe_dcb.o)
ixgbe_dcb_config_tx_desc_arbiter_82599            /home/born/DPDK-OVS/DPDK-1.6.0/build/lib/librte_pmd_ixgbe.a(ixgbe_dcb_82599.o)
                                                  /home/born/DPDK-OVS/DPDK-1.6.0/build/lib/librte_pmd_ixgbe.a(ixgbe_rxtx.o)
                                                  /home/born/DPDK-OVS/DPDK-1.6.0/build/lib/librte_pmd_ixgbe.a(ixgbe_dcb.o)
ixgbe_dcb_config_tx_desc_arbiter_cee              /home/born/DPDK-OVS/DPDK-1.6.0/build/lib/librte_pmd_ixgbe.a(ixgbe_dcb.o)
ixgbe_dcb_get_pfc_stats                           /home/born/DPDK-OVS/DPDK-1.6.0/build/lib/librte_pmd_ixgbe.a(ixgbe_dcb.o)
ixgbe_dcb_get_pfc_stats_82598                     /home/born/DPDK-OVS/DPDK-1.6.0/build/lib/librte_pmd_ixgbe.a(ixgbe_dcb_82598.o)
                                                  /home/born/DPDK-OVS/DPDK-1.6.0/build/lib/librte_pmd_ixgbe.a(ixgbe_dcb.o)
ixgbe_dcb_get_pfc_stats_82599                     /home/born/DPDK-OVS/DPDK-1.6.0/build/lib/librte_pmd_ixgbe.a(ixgbe_dcb_82599.o)
                                                  /home/born/DPDK-OVS/DPDK-1.6.0/build/lib/librte_pmd_ixgbe.a(ixgbe_dcb.o)
ixgbe_dcb_get_tc_from_up                          /home/born/DPDK-OVS/DPDK-1.6.0/build/lib/librte_pmd_ixgbe.a(ixgbe_dcb.o)
ixgbe_dcb_get_tc_stats                            /home/born/DPDK-OVS/DPDK-1.6.0/build/lib/librte_pmd_ixgbe.a(ixgbe_dcb.o)
ixgbe_dcb_get_tc_stats_82598                      /home/born/DPDK-OVS/DPDK-1.6.0/build/lib/librte_pmd_ixgbe.a(ixgbe_dcb_82598.o)
                                                  /home/born/DPDK-OVS/DPDK-1.6.0/build/lib/librte_pmd_ixgbe.a(ixgbe_dcb.o)
ixgbe_dcb_get_tc_stats_82599                      /home/born/DPDK-OVS/DPDK-1.6.0/build/lib/librte_pmd_ixgbe.a(ixgbe_dcb_82599.o)
                                                  /home/born/DPDK-OVS/DPDK-1.6.0/build/lib/librte_pmd_ixgbe.a(ixgbe_dcb.o)
ixgbe_dcb_hw_config                               /home/born/DPDK-OVS/DPDK-1.6.0/build/lib/librte_pmd_ixgbe.a(ixgbe_dcb.o)
ixgbe_dcb_hw_config_82598                         /home/born/DPDK-OVS/DPDK-1.6.0/build/lib/librte_pmd_ixgbe.a(ixgbe_dcb_82598.o)
                                                  /home/born/DPDK-OVS/DPDK-1.6.0/build/lib/librte_pmd_ixgbe.a(ixgbe_dcb.o)
ixgbe_dcb_hw_config_82599                         /home/born/DPDK-OVS/DPDK-1.6.0/build/lib/librte_pmd_ixgbe.a(ixgbe_dcb_82599.o)
                                                  /home/born/DPDK-OVS/DPDK-1.6.0/build/lib/librte_pmd_ixgbe.a(ixgbe_dcb.o)
ixgbe_dcb_hw_config_cee                           /home/born/DPDK-OVS/DPDK-1.6.0/build/lib/librte_pmd_ixgbe.a(ixgbe_dcb.o)
ixgbe_dcb_unpack_bwgid_cee                        /home/born/DPDK-OVS/DPDK-1.6.0/build/lib/librte_pmd_ixgbe.a(ixgbe_dcb.o)
                                                  /home/born/DPDK-OVS/DPDK-1.6.0/build/lib/librte_pmd_ixgbe.a(ixgbe_rxtx.o)
ixgbe_dcb_unpack_map_cee                          /home/born/DPDK-OVS/DPDK-1.6.0/build/lib/librte_pmd_ixgbe.a(ixgbe_dcb.o)
                                                  /home/born/DPDK-OVS/DPDK-1.6.0/build/lib/librte_pmd_ixgbe.a(ixgbe_rxtx.o)
                                                  /home/born/DPDK-OVS/DPDK-1.6.0/build/lib/librte_pmd_ixgbe.a(ixgbe_ethdev.o)
ixgbe_dcb_unpack_max_cee                          /home/born/DPDK-OVS/DPDK-1.6.0/build/lib/librte_pmd_ixgbe.a(ixgbe_dcb.o)
                                                  /home/born/DPDK-OVS/DPDK-1.6.0/build/lib/librte_pmd_ixgbe.a(ixgbe_rxtx.o)
ixgbe_dcb_unpack_pfc_cee                          /home/born/DPDK-OVS/DPDK-1.6.0/build/lib/librte_pmd_ixgbe.a(ixgbe_dcb.o)
                                                  /home/born/DPDK-OVS/DPDK-1.6.0/build/lib/librte_pmd_ixgbe.a(ixgbe_rxtx.o)
ixgbe_dcb_unpack_refill_cee                       /home/born/DPDK-OVS/DPDK-1.6.0/build/lib/librte_pmd_ixgbe.a(ixgbe_dcb.o)
                                                  /home/born/DPDK-OVS/DPDK-1.6.0/build/lib/librte_pmd_ixgbe.a(ixgbe_rxtx.o)
ixgbe_dcb_unpack_tsa_cee                          /home/born/DPDK-OVS/DPDK-1.6.0/build/lib/librte_pmd_ixgbe.a(ixgbe_dcb.o)
                                                  /home/born/DPDK-OVS/DPDK-1.6.0/build/lib/librte_pmd_ixgbe.a(ixgbe_rxtx.o)
ixgbe_dev_clear_queues                            /home/born/DPDK-OVS/DPDK-1.6.0/build/lib/librte_pmd_ixgbe.a(ixgbe_rxtx.o)
                                                  /home/born/DPDK-OVS/DPDK-1.6.0/build/lib/librte_pmd_ixgbe.a(ixgbe_ethdev.o)
ixgbe_dev_rx_descriptor_done                      /home/born/DPDK-OVS/DPDK-1.6.0/build/lib/librte_pmd_ixgbe.a(ixgbe_rxtx.o)
                                                  /home/born/DPDK-OVS/DPDK-1.6.0/build/lib/librte_pmd_ixgbe.a(ixgbe_ethdev.o)
ixgbe_dev_rx_init                                 /home/born/DPDK-OVS/DPDK-1.6.0/build/lib/librte_pmd_ixgbe.a(ixgbe_rxtx.o)
                                                  /home/born/DPDK-OVS/DPDK-1.6.0/build/lib/librte_pmd_ixgbe.a(ixgbe_ethdev.o)
ixgbe_dev_rx_queue_count                          /home/born/DPDK-OVS/DPDK-1.6.0/build/lib/librte_pmd_ixgbe.a(ixgbe_rxtx.o)
                                                  /home/born/DPDK-OVS/DPDK-1.6.0/build/lib/librte_pmd_ixgbe.a(ixgbe_ethdev.o)
ixgbe_dev_rx_queue_release                        /home/born/DPDK-OVS/DPDK-1.6.0/build/lib/librte_pmd_ixgbe.a(ixgbe_rxtx.o)
                                                  /home/born/DPDK-OVS/DPDK-1.6.0/build/lib/librte_pmd_ixgbe.a(ixgbe_ethdev.o)
ixgbe_dev_rx_queue_setup                          /home/born/DPDK-OVS/DPDK-1.6.0/build/lib/librte_pmd_ixgbe.a(ixgbe_rxtx.o)
                                                  /home/born/DPDK-OVS/DPDK-1.6.0/build/lib/librte_pmd_ixgbe.a(ixgbe_ethdev.o)
ixgbe_dev_rxtx_start                              /home/born/DPDK-OVS/DPDK-1.6.0/build/lib/librte_pmd_ixgbe.a(ixgbe_rxtx.o)
                                                  /home/born/DPDK-OVS/DPDK-1.6.0/build/lib/librte_pmd_ixgbe.a(ixgbe_ethdev.o)
ixgbe_dev_tx_init                                 /home/born/DPDK-OVS/DPDK-1.6.0/build/lib/librte_pmd_ixgbe.a(ixgbe_rxtx.o)
                                                  /home/born/DPDK-OVS/DPDK-1.6.0/build/lib/librte_pmd_ixgbe.a(ixgbe_ethdev.o)
ixgbe_dev_tx_queue_release                        /home/born/DPDK-OVS/DPDK-1.6.0/build/lib/librte_pmd_ixgbe.a(ixgbe_rxtx.o)
                                                  /home/born/DPDK-OVS/DPDK-1.6.0/build/lib/librte_pmd_ixgbe.a(ixgbe_ethdev.o)
ixgbe_dev_tx_queue_setup                          /home/born/DPDK-OVS/DPDK-1.6.0/build/lib/librte_pmd_ixgbe.a(ixgbe_rxtx.o)
                                                  /home/born/DPDK-OVS/DPDK-1.6.0/build/lib/librte_pmd_ixgbe.a(ixgbe_ethdev.o)
ixgbe_device_supports_autoneg_fc                  /home/born/DPDK-OVS/DPDK-1.6.0/build/lib/librte_pmd_ixgbe.a(ixgbe_common.o)
ixgbe_disable_mc                                  /home/born/DPDK-OVS/DPDK-1.6.0/build/lib/librte_pmd_ixgbe.a(ixgbe_api.o)
ixgbe_disable_mc_generic                          /home/born/DPDK-OVS/DPDK-1.6.0/build/lib/librte_pmd_ixgbe.a(ixgbe_common.o)
ixgbe_disable_pcie_master                         /home/born/DPDK-OVS/DPDK-1.6.0/build/lib/librte_pmd_ixgbe.a(ixgbe_common.o)
                                                  /home/born/DPDK-OVS/DPDK-1.6.0/build/lib/librte_pmd_ixgbe.a(ixgbe_ethdev.o)
ixgbe_disable_sec_rx_path                         /home/born/DPDK-OVS/DPDK-1.6.0/build/lib/librte_pmd_ixgbe.a(ixgbe_api.o)
ixgbe_disable_sec_rx_path_generic                 /home/born/DPDK-OVS/DPDK-1.6.0/build/lib/librte_pmd_ixgbe.a(ixgbe_common.o)
                                                  /home/born/DPDK-OVS/DPDK-1.6.0/build/lib/librte_pmd_ixgbe.a(ixgbe_x540.o)
                                                  /home/born/DPDK-OVS/DPDK-1.6.0/build/lib/librte_pmd_ixgbe.a(ixgbe_82599.o)
ixgbe_disable_tx_laser                            /home/born/DPDK-OVS/DPDK-1.6.0/build/lib/librte_pmd_ixgbe.a(ixgbe_api.o)
                                                  /home/born/DPDK-OVS/DPDK-1.6.0/build/lib/librte_pmd_ixgbe.a(ixgbe_ethdev.o)
ixgbe_disable_tx_laser_multispeed_fiber           /home/born/DPDK-OVS/DPDK-1.6.0/build/lib/librte_pmd_ixgbe.a(ixgbe_82599.o)
ixgbe_enable_mc                                   /home/born/DPDK-OVS/DPDK-1.6.0/build/lib/librte_pmd_ixgbe.a(ixgbe_api.o)
ixgbe_enable_mc_generic                           /home/born/DPDK-OVS/DPDK-1.6.0/build/lib/librte_pmd_ixgbe.a(ixgbe_common.o)
ixgbe_enable_relaxed_ordering                     /home/born/DPDK-OVS/DPDK-1.6.0/build/lib/librte_pmd_ixgbe.a(ixgbe_api.o)
ixgbe_enable_relaxed_ordering_82598               /home/born/DPDK-OVS/DPDK-1.6.0/build/lib/librte_pmd_ixgbe.a(ixgbe_82598.o)
ixgbe_enable_relaxed_ordering_gen2                /home/born/DPDK-OVS/DPDK-1.6.0/build/lib/librte_pmd_ixgbe.a(ixgbe_common.o)
                                                  /home/born/DPDK-OVS/DPDK-1.6.0/build/lib/librte_pmd_ixgbe.a(ixgbe_x540.o)
                                                  /home/born/DPDK-OVS/DPDK-1.6.0/build/lib/librte_pmd_ixgbe.a(ixgbe_82599.o)
ixgbe_enable_rx_dma                               /home/born/DPDK-OVS/DPDK-1.6.0/build/lib/librte_pmd_ixgbe.a(ixgbe_api.o)
ixgbe_enable_rx_dma_82599                         /home/born/DPDK-OVS/DPDK-1.6.0/build/lib/librte_pmd_ixgbe.a(ixgbe_82599.o)
ixgbe_enable_rx_dma_generic                       /home/born/DPDK-OVS/DPDK-1.6.0/build/lib/librte_pmd_ixgbe.a(ixgbe_common.o)
ixgbe_enable_sec_rx_path                          /home/born/DPDK-OVS/DPDK-1.6.0/build/lib/librte_pmd_ixgbe.a(ixgbe_api.o)
ixgbe_enable_sec_rx_path_generic                  /home/born/DPDK-OVS/DPDK-1.6.0/build/lib/librte_pmd_ixgbe.a(ixgbe_common.o)
                                                  /home/born/DPDK-OVS/DPDK-1.6.0/build/lib/librte_pmd_ixgbe.a(ixgbe_x540.o)
                                                  /home/born/DPDK-OVS/DPDK-1.6.0/build/lib/librte_pmd_ixgbe.a(ixgbe_82599.o)
ixgbe_enable_tx_laser                             /home/born/DPDK-OVS/DPDK-1.6.0/build/lib/librte_pmd_ixgbe.a(ixgbe_api.o)
                                                  /home/born/DPDK-OVS/DPDK-1.6.0/build/lib/librte_pmd_ixgbe.a(ixgbe_ethdev.o)
ixgbe_enable_tx_laser_multispeed_fiber            /home/born/DPDK-OVS/DPDK-1.6.0/build/lib/librte_pmd_ixgbe.a(ixgbe_82599.o)
ixgbe_fc_autoneg                                  /home/born/DPDK-OVS/DPDK-1.6.0/build/lib/librte_pmd_ixgbe.a(ixgbe_common.o)
                                                  /home/born/DPDK-OVS/DPDK-1.6.0/build/lib/librte_pmd_ixgbe.a(ixgbe_82598.o)
                                                  /home/born/DPDK-OVS/DPDK-1.6.0/build/lib/librte_pmd_ixgbe.a(ixgbe_ethdev.o)
ixgbe_fc_enable                                   /home/born/DPDK-OVS/DPDK-1.6.0/build/lib/librte_pmd_ixgbe.a(ixgbe_api.o)
                                                  /home/born/DPDK-OVS/DPDK-1.6.0/build/lib/librte_pmd_ixgbe.a(ixgbe_ethdev.o)
ixgbe_fc_enable_82598                             /home/born/DPDK-OVS/DPDK-1.6.0/build/lib/librte_pmd_ixgbe.a(ixgbe_82598.o)
ixgbe_fc_enable_generic                           /home/born/DPDK-OVS/DPDK-1.6.0/build/lib/librte_pmd_ixgbe.a(ixgbe_common.o)
ixgbe_fdir_add_perfect_filter                     /home/born/DPDK-OVS/DPDK-1.6.0/build/lib/librte_pmd_ixgbe.a(ixgbe_fdir.o)
                                                  /home/born/DPDK-OVS/DPDK-1.6.0/build/lib/librte_pmd_ixgbe.a(ixgbe_ethdev.o)
ixgbe_fdir_add_perfect_filter_82599               /home/born/DPDK-OVS/DPDK-1.6.0/build/lib/librte_pmd_ixgbe.a(ixgbe_82599.o)
ixgbe_fdir_add_signature_filter                   /home/born/DPDK-OVS/DPDK-1.6.0/build/lib/librte_pmd_ixgbe.a(ixgbe_fdir.o)
                                                  /home/born/DPDK-OVS/DPDK-1.6.0/build/lib/librte_pmd_ixgbe.a(ixgbe_ethdev.o)
ixgbe_fdir_add_signature_filter_82599             /home/born/DPDK-OVS/DPDK-1.6.0/build/lib/librte_pmd_ixgbe.a(ixgbe_82599.o)
ixgbe_fdir_configure                              /home/born/DPDK-OVS/DPDK-1.6.0/build/lib/librte_pmd_ixgbe.a(ixgbe_fdir.o)
                                                  /home/born/DPDK-OVS/DPDK-1.6.0/build/lib/librte_pmd_ixgbe.a(ixgbe_ethdev.o)
ixgbe_fdir_erase_perfect_filter_82599             /home/born/DPDK-OVS/DPDK-1.6.0/build/lib/librte_pmd_ixgbe.a(ixgbe_82599.o)
ixgbe_fdir_info_get                               /home/born/DPDK-OVS/DPDK-1.6.0/build/lib/librte_pmd_ixgbe.a(ixgbe_fdir.o)
                                                  /home/born/DPDK-OVS/DPDK-1.6.0/build/lib/librte_pmd_ixgbe.a(ixgbe_ethdev.o)
ixgbe_fdir_remove_perfect_filter                  /home/born/DPDK-OVS/DPDK-1.6.0/build/lib/librte_pmd_ixgbe.a(ixgbe_fdir.o)
                                                  /home/born/DPDK-OVS/DPDK-1.6.0/build/lib/librte_pmd_ixgbe.a(ixgbe_ethdev.o)
ixgbe_fdir_remove_signature_filter                /home/born/DPDK-OVS/DPDK-1.6.0/build/lib/librte_pmd_ixgbe.a(ixgbe_fdir.o)
                                                  /home/born/DPDK-OVS/DPDK-1.6.0/build/lib/librte_pmd_ixgbe.a(ixgbe_ethdev.o)
ixgbe_fdir_set_input_mask_82599                   /home/born/DPDK-OVS/DPDK-1.6.0/build/lib/librte_pmd_ixgbe.a(ixgbe_82599.o)
ixgbe_fdir_set_masks                              /home/born/DPDK-OVS/DPDK-1.6.0/build/lib/librte_pmd_ixgbe.a(ixgbe_fdir.o)
                                                  /home/born/DPDK-OVS/DPDK-1.6.0/build/lib/librte_pmd_ixgbe.a(ixgbe_ethdev.o)
ixgbe_fdir_update_perfect_filter                  /home/born/DPDK-OVS/DPDK-1.6.0/build/lib/librte_pmd_ixgbe.a(ixgbe_fdir.o)
                                                  /home/born/DPDK-OVS/DPDK-1.6.0/build/lib/librte_pmd_ixgbe.a(ixgbe_ethdev.o)
ixgbe_fdir_update_signature_filter                /home/born/DPDK-OVS/DPDK-1.6.0/build/lib/librte_pmd_ixgbe.a(ixgbe_fdir.o)
                                                  /home/born/DPDK-OVS/DPDK-1.6.0/build/lib/librte_pmd_ixgbe.a(ixgbe_ethdev.o)
ixgbe_fdir_write_perfect_filter_82599             /home/born/DPDK-OVS/DPDK-1.6.0/build/lib/librte_pmd_ixgbe.a(ixgbe_82599.o)
ixgbe_find_vlvf_slot                              /home/born/DPDK-OVS/DPDK-1.6.0/build/lib/librte_pmd_ixgbe.a(ixgbe_common.o)
                                                  /home/born/DPDK-OVS/DPDK-1.6.0/build/lib/librte_pmd_ixgbe.a(ixgbe_ethdev.o)
ixgbe_flap_tx_laser                               /home/born/DPDK-OVS/DPDK-1.6.0/build/lib/librte_pmd_ixgbe.a(ixgbe_api.o)
                                                  /home/born/DPDK-OVS/DPDK-1.6.0/build/lib/librte_pmd_ixgbe.a(ixgbe_82599.o)
ixgbe_flap_tx_laser_multispeed_fiber              /home/born/DPDK-OVS/DPDK-1.6.0/build/lib/librte_pmd_ixgbe.a(ixgbe_82599.o)
ixgbe_get_bus_info                                /home/born/DPDK-OVS/DPDK-1.6.0/build/lib/librte_pmd_ixgbe.a(ixgbe_api.o)
                                                  /home/born/DPDK-OVS/DPDK-1.6.0/build/lib/librte_pmd_ixgbe.a(ixgbe_ethdev.o)
ixgbe_get_bus_info_generic                        /home/born/DPDK-OVS/DPDK-1.6.0/build/lib/librte_pmd_ixgbe.a(ixgbe_common.o)
ixgbe_get_copper_link_capabilities_generic        /home/born/DPDK-OVS/DPDK-1.6.0/build/lib/librte_pmd_ixgbe.a(ixgbe_phy.o)
                                                  /home/born/DPDK-OVS/DPDK-1.6.0/build/lib/librte_pmd_ixgbe.a(ixgbe_x540.o)
                                                  /home/born/DPDK-OVS/DPDK-1.6.0/build/lib/librte_pmd_ixgbe.a(ixgbe_82598.o)
                                                  /home/born/DPDK-OVS/DPDK-1.6.0/build/lib/librte_pmd_ixgbe.a(ixgbe_82599.o)
ixgbe_get_device_caps                             /home/born/DPDK-OVS/DPDK-1.6.0/build/lib/librte_pmd_ixgbe.a(ixgbe_api.o)
                                                  /home/born/DPDK-OVS/DPDK-1.6.0/build/lib/librte_pmd_ixgbe.a(ixgbe_phy.o)
ixgbe_get_device_caps_generic                     /home/born/DPDK-OVS/DPDK-1.6.0/build/lib/librte_pmd_ixgbe.a(ixgbe_common.o)
                                                  /home/born/DPDK-OVS/DPDK-1.6.0/build/lib/librte_pmd_ixgbe.a(ixgbe_x540.o)
                                                  /home/born/DPDK-OVS/DPDK-1.6.0/build/lib/librte_pmd_ixgbe.a(ixgbe_82599.o)
ixgbe_get_fcoe_boot_status                        /home/born/DPDK-OVS/DPDK-1.6.0/build/lib/librte_pmd_ixgbe.a(ixgbe_api.o)
ixgbe_get_fcoe_boot_status_generic                /home/born/DPDK-OVS/DPDK-1.6.0/build/lib/librte_pmd_ixgbe.a(ixgbe_common.o)
                                                  /home/born/DPDK-OVS/DPDK-1.6.0/build/lib/librte_pmd_ixgbe.a(ixgbe_x540.o)
                                                  /home/born/DPDK-OVS/DPDK-1.6.0/build/lib/librte_pmd_ixgbe.a(ixgbe_82599.o)
ixgbe_get_link_capabilities                       /home/born/DPDK-OVS/DPDK-1.6.0/build/lib/librte_pmd_ixgbe.a(ixgbe_api.o)
                                                  /home/born/DPDK-OVS/DPDK-1.6.0/build/lib/librte_pmd_ixgbe.a(ixgbe_82598.o)
                                                  /home/born/DPDK-OVS/DPDK-1.6.0/build/lib/librte_pmd_ixgbe.a(ixgbe_82599.o)
                                                  /home/born/DPDK-OVS/DPDK-1.6.0/build/lib/librte_pmd_ixgbe.a(ixgbe_ethdev.o)
ixgbe_get_link_capabilities_82599                 /home/born/DPDK-OVS/DPDK-1.6.0/build/lib/librte_pmd_ixgbe.a(ixgbe_82599.o)
ixgbe_get_link_capabilities_X540                  /home/born/DPDK-OVS/DPDK-1.6.0/build/lib/librte_pmd_ixgbe.a(ixgbe_x540.o)
ixgbe_get_mac_addr                                /home/born/DPDK-OVS/DPDK-1.6.0/build/lib/librte_pmd_ixgbe.a(ixgbe_api.o)
ixgbe_get_mac_addr_generic                        /home/born/DPDK-OVS/DPDK-1.6.0/build/lib/librte_pmd_ixgbe.a(ixgbe_common.o)
ixgbe_get_mac_addr_vf                             /home/born/DPDK-OVS/DPDK-1.6.0/build/lib/librte_pmd_ixgbe.a(ixgbe_vf.o)
ixgbe_get_media_type                              /home/born/DPDK-OVS/DPDK-1.6.0/build/lib/librte_pmd_ixgbe.a(ixgbe_api.o)
                                                  /home/born/DPDK-OVS/DPDK-1.6.0/build/lib/librte_pmd_ixgbe.a(ixgbe_82599.o)
ixgbe_get_media_type_82599                        /home/born/DPDK-OVS/DPDK-1.6.0/build/lib/librte_pmd_ixgbe.a(ixgbe_82599.o)
ixgbe_get_media_type_X540                         /home/born/DPDK-OVS/DPDK-1.6.0/build/lib/librte_pmd_ixgbe.a(ixgbe_x540.o)
ixgbe_get_num_of_rx_queues                        /home/born/DPDK-OVS/DPDK-1.6.0/build/lib/librte_pmd_ixgbe.a(ixgbe_api.o)
ixgbe_get_num_of_rx_queues_vf                     /home/born/DPDK-OVS/DPDK-1.6.0/build/lib/librte_pmd_ixgbe.a(ixgbe_vf.o)
ixgbe_get_num_of_tx_queues                        /home/born/DPDK-OVS/DPDK-1.6.0/build/lib/librte_pmd_ixgbe.a(ixgbe_api.o)
ixgbe_get_num_of_tx_queues_vf                     /home/born/DPDK-OVS/DPDK-1.6.0/build/lib/librte_pmd_ixgbe.a(ixgbe_vf.o)
ixgbe_get_num_rx_addrs                            /home/born/DPDK-OVS/DPDK-1.6.0/build/lib/librte_pmd_ixgbe.a(ixgbe_api.o)
ixgbe_get_pba_block_size                          /home/born/DPDK-OVS/DPDK-1.6.0/build/lib/librte_pmd_ixgbe.a(ixgbe_common.o)
ixgbe_get_pcie_msix_count_generic                 /home/born/DPDK-OVS/DPDK-1.6.0/build/lib/librte_pmd_ixgbe.a(ixgbe_common.o)
                                                  /home/born/DPDK-OVS/DPDK-1.6.0/build/lib/librte_pmd_ixgbe.a(ixgbe_x540.o)
                                                  /home/born/DPDK-OVS/DPDK-1.6.0/build/lib/librte_pmd_ixgbe.a(ixgbe_82598.o)
                                                  /home/born/DPDK-OVS/DPDK-1.6.0/build/lib/librte_pmd_ixgbe.a(ixgbe_82599.o)
ixgbe_get_phy_firmware_version                    /home/born/DPDK-OVS/DPDK-1.6.0/build/lib/librte_pmd_ixgbe.a(ixgbe_api.o)
ixgbe_get_phy_firmware_version_generic            /home/born/DPDK-OVS/DPDK-1.6.0/build/lib/librte_pmd_ixgbe.a(ixgbe_phy.o)
ixgbe_get_phy_firmware_version_tnx                /home/born/DPDK-OVS/DPDK-1.6.0/build/lib/librte_pmd_ixgbe.a(ixgbe_phy.o)
                                                  /home/born/DPDK-OVS/DPDK-1.6.0/build/lib/librte_pmd_ixgbe.a(ixgbe_82598.o)
                                                  /home/born/DPDK-OVS/DPDK-1.6.0/build/lib/librte_pmd_ixgbe.a(ixgbe_82599.o)
ixgbe_get_phy_id                                  /home/born/DPDK-OVS/DPDK-1.6.0/build/lib/librte_pmd_ixgbe.a(ixgbe_phy.o)
ixgbe_get_phy_type_from_id                        /home/born/DPDK-OVS/DPDK-1.6.0/build/lib/librte_pmd_ixgbe.a(ixgbe_phy.o)
ixgbe_get_san_mac_addr                            /home/born/DPDK-OVS/DPDK-1.6.0/build/lib/librte_pmd_ixgbe.a(ixgbe_api.o)
ixgbe_get_san_mac_addr_generic                    /home/born/DPDK-OVS/DPDK-1.6.0/build/lib/librte_pmd_ixgbe.a(ixgbe_common.o)
                                                  /home/born/DPDK-OVS/DPDK-1.6.0/build/lib/librte_pmd_ixgbe.a(ixgbe_x540.o)
                                                  /home/born/DPDK-OVS/DPDK-1.6.0/build/lib/librte_pmd_ixgbe.a(ixgbe_82599.o)
ixgbe_get_sfp_init_sequence_offsets               /home/born/DPDK-OVS/DPDK-1.6.0/build/lib/librte_pmd_ixgbe.a(ixgbe_phy.o)
                                                  /home/born/DPDK-OVS/DPDK-1.6.0/build/lib/librte_pmd_ixgbe.a(ixgbe_82598.o)
                                                  /home/born/DPDK-OVS/DPDK-1.6.0/build/lib/librte_pmd_ixgbe.a(ixgbe_82599.o)
ixgbe_get_supported_physical_layer                /home/born/DPDK-OVS/DPDK-1.6.0/build/lib/librte_pmd_ixgbe.a(ixgbe_api.o)
ixgbe_get_supported_physical_layer_82598          /home/born/DPDK-OVS/DPDK-1.6.0/build/lib/librte_pmd_ixgbe.a(ixgbe_82598.o)
ixgbe_get_supported_physical_layer_82599          /home/born/DPDK-OVS/DPDK-1.6.0/build/lib/librte_pmd_ixgbe.a(ixgbe_82599.o)
ixgbe_get_supported_physical_layer_X540           /home/born/DPDK-OVS/DPDK-1.6.0/build/lib/librte_pmd_ixgbe.a(ixgbe_x540.o)
ixgbe_get_wwn_prefix                              /home/born/DPDK-OVS/DPDK-1.6.0/build/lib/librte_pmd_ixgbe.a(ixgbe_api.o)
ixgbe_get_wwn_prefix_generic                      /home/born/DPDK-OVS/DPDK-1.6.0/build/lib/librte_pmd_ixgbe.a(ixgbe_common.o)
                                                  /home/born/DPDK-OVS/DPDK-1.6.0/build/lib/librte_pmd_ixgbe.a(ixgbe_x540.o)
                                                  /home/born/DPDK-OVS/DPDK-1.6.0/build/lib/librte_pmd_ixgbe.a(ixgbe_82599.o)
ixgbe_i2c_bus_clear                               /home/born/DPDK-OVS/DPDK-1.6.0/build/lib/librte_pmd_ixgbe.a(ixgbe_phy.o)
ixgbe_identify_module_generic                     /home/born/DPDK-OVS/DPDK-1.6.0/build/lib/librte_pmd_ixgbe.a(ixgbe_phy.o)
                                                  /home/born/DPDK-OVS/DPDK-1.6.0/build/lib/librte_pmd_ixgbe.a(ixgbe_82599.o)
ixgbe_identify_phy                                /home/born/DPDK-OVS/DPDK-1.6.0/build/lib/librte_pmd_ixgbe.a(ixgbe_api.o)
                                                  /home/born/DPDK-OVS/DPDK-1.6.0/build/lib/librte_pmd_ixgbe.a(ixgbe_common.o)
ixgbe_identify_phy_82599                          /home/born/DPDK-OVS/DPDK-1.6.0/build/lib/librte_pmd_ixgbe.a(ixgbe_82599.o)
ixgbe_identify_phy_generic                        /home/born/DPDK-OVS/DPDK-1.6.0/build/lib/librte_pmd_ixgbe.a(ixgbe_phy.o)
                                                  /home/born/DPDK-OVS/DPDK-1.6.0/build/lib/librte_pmd_ixgbe.a(ixgbe_82599.o)
ixgbe_identify_sfp_module_generic                 /home/born/DPDK-OVS/DPDK-1.6.0/build/lib/librte_pmd_ixgbe.a(ixgbe_phy.o)
ixgbe_init_eeprom_params                          /home/born/DPDK-OVS/DPDK-1.6.0/build/lib/librte_pmd_ixgbe.a(ixgbe_api.o)
ixgbe_init_eeprom_params_X540                     /home/born/DPDK-OVS/DPDK-1.6.0/build/lib/librte_pmd_ixgbe.a(ixgbe_x540.o)
ixgbe_init_eeprom_params_generic                  /home/born/DPDK-OVS/DPDK-1.6.0/build/lib/librte_pmd_ixgbe.a(ixgbe_common.o)
ixgbe_init_fdir_perfect_82599                     /home/born/DPDK-OVS/DPDK-1.6.0/build/lib/librte_pmd_ixgbe.a(ixgbe_82599.o)
ixgbe_init_fdir_signature_82599                   /home/born/DPDK-OVS/DPDK-1.6.0/build/lib/librte_pmd_ixgbe.a(ixgbe_82599.o)
ixgbe_init_hw                                     /home/born/DPDK-OVS/DPDK-1.6.0/build/lib/librte_pmd_ixgbe.a(ixgbe_api.o)
                                                  /home/born/DPDK-OVS/DPDK-1.6.0/build/lib/librte_pmd_ixgbe.a(ixgbe_ethdev.o)
ixgbe_init_hw_generic                             /home/born/DPDK-OVS/DPDK-1.6.0/build/lib/librte_pmd_ixgbe.a(ixgbe_common.o)
ixgbe_init_hw_vf                                  /home/born/DPDK-OVS/DPDK-1.6.0/build/lib/librte_pmd_ixgbe.a(ixgbe_vf.o)
ixgbe_init_mac_link_ops_82599                     /home/born/DPDK-OVS/DPDK-1.6.0/build/lib/librte_pmd_ixgbe.a(ixgbe_82599.o)
ixgbe_init_mbx_ops_generic                        /home/born/DPDK-OVS/DPDK-1.6.0/build/lib/librte_pmd_ixgbe.a(ixgbe_mbx.o)
ixgbe_init_mbx_params_pf                          /home/born/DPDK-OVS/DPDK-1.6.0/build/lib/librte_pmd_ixgbe.a(ixgbe_mbx.o)
                                                  /home/born/DPDK-OVS/DPDK-1.6.0/build/lib/librte_pmd_ixgbe.a(ixgbe_x540.o)
                                                  /home/born/DPDK-OVS/DPDK-1.6.0/build/lib/librte_pmd_ixgbe.a(ixgbe_82599.o)
ixgbe_init_mbx_params_vf                          /home/born/DPDK-OVS/DPDK-1.6.0/build/lib/librte_pmd_ixgbe.a(ixgbe_mbx.o)
                                                  /home/born/DPDK-OVS/DPDK-1.6.0/build/lib/librte_pmd_ixgbe.a(ixgbe_vf.o)
ixgbe_init_ops_82598                              /home/born/DPDK-OVS/DPDK-1.6.0/build/lib/librte_pmd_ixgbe.a(ixgbe_82598.o)
                                                  /home/born/DPDK-OVS/DPDK-1.6.0/build/lib/librte_pmd_ixgbe.a(ixgbe_api.o)
ixgbe_init_ops_82599                              /home/born/DPDK-OVS/DPDK-1.6.0/build/lib/librte_pmd_ixgbe.a(ixgbe_82599.o)
                                                  /home/born/DPDK-OVS/DPDK-1.6.0/build/lib/librte_pmd_ixgbe.a(ixgbe_api.o)
ixgbe_init_ops_X540                               /home/born/DPDK-OVS/DPDK-1.6.0/build/lib/librte_pmd_ixgbe.a(ixgbe_x540.o)
                                                  /home/born/DPDK-OVS/DPDK-1.6.0/build/lib/librte_pmd_ixgbe.a(ixgbe_api.o)
ixgbe_init_ops_generic                            /home/born/DPDK-OVS/DPDK-1.6.0/build/lib/librte_pmd_ixgbe.a(ixgbe_common.o)
                                                  /home/born/DPDK-OVS/DPDK-1.6.0/build/lib/librte_pmd_ixgbe.a(ixgbe_x540.o)
                                                  /home/born/DPDK-OVS/DPDK-1.6.0/build/lib/librte_pmd_ixgbe.a(ixgbe_82598.o)
                                                  /home/born/DPDK-OVS/DPDK-1.6.0/build/lib/librte_pmd_ixgbe.a(ixgbe_82599.o)
ixgbe_init_ops_vf                                 /home/born/DPDK-OVS/DPDK-1.6.0/build/lib/librte_pmd_ixgbe.a(ixgbe_vf.o)
                                                  /home/born/DPDK-OVS/DPDK-1.6.0/build/lib/librte_pmd_ixgbe.a(ixgbe_api.o)
ixgbe_init_phy_ops_82598                          /home/born/DPDK-OVS/DPDK-1.6.0/build/lib/librte_pmd_ixgbe.a(ixgbe_82598.o)
ixgbe_init_phy_ops_82599                          /home/born/DPDK-OVS/DPDK-1.6.0/build/lib/librte_pmd_ixgbe.a(ixgbe_82599.o)
ixgbe_init_phy_ops_generic                        /home/born/DPDK-OVS/DPDK-1.6.0/build/lib/librte_pmd_ixgbe.a(ixgbe_phy.o)
                                                  /home/born/DPDK-OVS/DPDK-1.6.0/build/lib/librte_pmd_ixgbe.a(ixgbe_x540.o)
                                                  /home/born/DPDK-OVS/DPDK-1.6.0/build/lib/librte_pmd_ixgbe.a(ixgbe_82598.o)
                                                  /home/born/DPDK-OVS/DPDK-1.6.0/build/lib/librte_pmd_ixgbe.a(ixgbe_82599.o)
ixgbe_init_rx_addrs                               /home/born/DPDK-OVS/DPDK-1.6.0/build/lib/librte_pmd_ixgbe.a(ixgbe_api.o)
ixgbe_init_rx_addrs_generic                       /home/born/DPDK-OVS/DPDK-1.6.0/build/lib/librte_pmd_ixgbe.a(ixgbe_common.o)
ixgbe_init_shared_code                            /home/born/DPDK-OVS/DPDK-1.6.0/build/lib/librte_pmd_ixgbe.a(ixgbe_api.o)
                                                  /home/born/DPDK-OVS/DPDK-1.6.0/build/lib/librte_pmd_ixgbe.a(ixgbe_ethdev.o)
ixgbe_init_uta_tables                             /home/born/DPDK-OVS/DPDK-1.6.0/build/lib/librte_pmd_ixgbe.a(ixgbe_api.o)
                                                  /home/born/DPDK-OVS/DPDK-1.6.0/build/lib/librte_pmd_ixgbe.a(ixgbe_common.o)
ixgbe_init_uta_tables_generic                     /home/born/DPDK-OVS/DPDK-1.6.0/build/lib/librte_pmd_ixgbe.a(ixgbe_common.o)
                                                  /home/born/DPDK-OVS/DPDK-1.6.0/build/lib/librte_pmd_ixgbe.a(ixgbe_x540.o)
                                                  /home/born/DPDK-OVS/DPDK-1.6.0/build/lib/librte_pmd_ixgbe.a(ixgbe_82599.o)
ixgbe_insert_mac_addr                             /home/born/DPDK-OVS/DPDK-1.6.0/build/lib/librte_pmd_ixgbe.a(ixgbe_api.o)
ixgbe_insert_mac_addr_generic                     /home/born/DPDK-OVS/DPDK-1.6.0/build/lib/librte_pmd_ixgbe.a(ixgbe_common.o)
                                                  /home/born/DPDK-OVS/DPDK-1.6.0/build/lib/librte_pmd_ixgbe.a(ixgbe_x540.o)
                                                  /home/born/DPDK-OVS/DPDK-1.6.0/build/lib/librte_pmd_ixgbe.a(ixgbe_82599.o)
ixgbe_led_off                                     /home/born/DPDK-OVS/DPDK-1.6.0/build/lib/librte_pmd_ixgbe.a(ixgbe_api.o)
                                                  /home/born/DPDK-OVS/DPDK-1.6.0/build/lib/librte_pmd_ixgbe.a(ixgbe_ethdev.o)
ixgbe_led_off_generic                             /home/born/DPDK-OVS/DPDK-1.6.0/build/lib/librte_pmd_ixgbe.a(ixgbe_common.o)
ixgbe_led_on                                      /home/born/DPDK-OVS/DPDK-1.6.0/build/lib/librte_pmd_ixgbe.a(ixgbe_api.o)
                                                  /home/born/DPDK-OVS/DPDK-1.6.0/build/lib/librte_pmd_ixgbe.a(ixgbe_ethdev.o)
ixgbe_led_on_generic                              /home/born/DPDK-OVS/DPDK-1.6.0/build/lib/librte_pmd_ixgbe.a(ixgbe_common.o)
ixgbe_pf_host_configure                           /home/born/DPDK-OVS/DPDK-1.6.0/build/lib/librte_pmd_ixgbe.a(ixgbe_pf.o)
                                                  /home/born/DPDK-OVS/DPDK-1.6.0/build/lib/librte_pmd_ixgbe.a(ixgbe_ethdev.o)
ixgbe_pf_host_init                                /home/born/DPDK-OVS/DPDK-1.6.0/build/lib/librte_pmd_ixgbe.a(ixgbe_pf.o)
                                                  /home/born/DPDK-OVS/DPDK-1.6.0/build/lib/librte_pmd_ixgbe.a(ixgbe_ethdev.o)
ixgbe_pf_mbx_process                              /home/born/DPDK-OVS/DPDK-1.6.0/build/lib/librte_pmd_ixgbe.a(ixgbe_pf.o)
                                                  /home/born/DPDK-OVS/DPDK-1.6.0/build/lib/librte_pmd_ixgbe.a(ixgbe_ethdev.o)
ixgbe_poll_eerd_eewr_done                         /home/born/DPDK-OVS/DPDK-1.6.0/build/lib/librte_pmd_ixgbe.a(ixgbe_common.o)
ixgbe_read_analog_reg8                            /home/born/DPDK-OVS/DPDK-1.6.0/build/lib/librte_pmd_ixgbe.a(ixgbe_api.o)
ixgbe_read_analog_reg8_82598                      /home/born/DPDK-OVS/DPDK-1.6.0/build/lib/librte_pmd_ixgbe.a(ixgbe_82598.o)
ixgbe_read_analog_reg8_82599                      /home/born/DPDK-OVS/DPDK-1.6.0/build/lib/librte_pmd_ixgbe.a(ixgbe_82599.o)
ixgbe_read_eeprom                                 /home/born/DPDK-OVS/DPDK-1.6.0/build/lib/librte_pmd_ixgbe.a(ixgbe_api.o)
ixgbe_read_eeprom_bit_bang_generic                /home/born/DPDK-OVS/DPDK-1.6.0/build/lib/librte_pmd_ixgbe.a(ixgbe_common.o)
                                                  /home/born/DPDK-OVS/DPDK-1.6.0/build/lib/librte_pmd_ixgbe.a(ixgbe_82599.o)
ixgbe_read_eeprom_buffer                          /home/born/DPDK-OVS/DPDK-1.6.0/build/lib/librte_pmd_ixgbe.a(ixgbe_api.o)
ixgbe_read_eeprom_buffer_bit_bang_generic         /home/born/DPDK-OVS/DPDK-1.6.0/build/lib/librte_pmd_ixgbe.a(ixgbe_common.o)
                                                  /home/born/DPDK-OVS/DPDK-1.6.0/build/lib/librte_pmd_ixgbe.a(ixgbe_82599.o)
ixgbe_read_eerd_X540                              /home/born/DPDK-OVS/DPDK-1.6.0/build/lib/librte_pmd_ixgbe.a(ixgbe_x540.o)
ixgbe_read_eerd_buffer_X540                       /home/born/DPDK-OVS/DPDK-1.6.0/build/lib/librte_pmd_ixgbe.a(ixgbe_x540.o)
ixgbe_read_eerd_buffer_generic                    /home/born/DPDK-OVS/DPDK-1.6.0/build/lib/librte_pmd_ixgbe.a(ixgbe_common.o)
                                                  /home/born/DPDK-OVS/DPDK-1.6.0/build/lib/librte_pmd_ixgbe.a(ixgbe_x540.o)
                                                  /home/born/DPDK-OVS/DPDK-1.6.0/build/lib/librte_pmd_ixgbe.a(ixgbe_82599.o)
ixgbe_read_eerd_generic                           /home/born/DPDK-OVS/DPDK-1.6.0/build/lib/librte_pmd_ixgbe.a(ixgbe_common.o)
                                                  /home/born/DPDK-OVS/DPDK-1.6.0/build/lib/librte_pmd_ixgbe.a(ixgbe_x540.o)
                                                  /home/born/DPDK-OVS/DPDK-1.6.0/build/lib/librte_pmd_ixgbe.a(ixgbe_82599.o)
ixgbe_read_i2c_byte                               /home/born/DPDK-OVS/DPDK-1.6.0/build/lib/librte_pmd_ixgbe.a(ixgbe_api.o)
ixgbe_read_i2c_byte_generic                       /home/born/DPDK-OVS/DPDK-1.6.0/build/lib/librte_pmd_ixgbe.a(ixgbe_phy.o)
ixgbe_read_i2c_eeprom                             /home/born/DPDK-OVS/DPDK-1.6.0/build/lib/librte_pmd_ixgbe.a(ixgbe_api.o)
ixgbe_read_i2c_eeprom_82598                       /home/born/DPDK-OVS/DPDK-1.6.0/build/lib/librte_pmd_ixgbe.a(ixgbe_82598.o)
ixgbe_read_i2c_eeprom_generic                     /home/born/DPDK-OVS/DPDK-1.6.0/build/lib/librte_pmd_ixgbe.a(ixgbe_phy.o)
ixgbe_read_mbx                                    /home/born/DPDK-OVS/DPDK-1.6.0/build/lib/librte_pmd_ixgbe.a(ixgbe_mbx.o)
                                                  /home/born/DPDK-OVS/DPDK-1.6.0/build/lib/librte_pmd_ixgbe.a(ixgbe_pf.o)
ixgbe_read_pba_num                                /home/born/DPDK-OVS/DPDK-1.6.0/build/lib/librte_pmd_ixgbe.a(ixgbe_api.o)
ixgbe_read_pba_num_generic                        /home/born/DPDK-OVS/DPDK-1.6.0/build/lib/librte_pmd_ixgbe.a(ixgbe_common.o)
                                                  /home/born/DPDK-OVS/DPDK-1.6.0/build/lib/librte_pmd_ixgbe.a(ixgbe_api.o)
ixgbe_read_pba_raw                                /home/born/DPDK-OVS/DPDK-1.6.0/build/lib/librte_pmd_ixgbe.a(ixgbe_common.o)
ixgbe_read_pba_string                             /home/born/DPDK-OVS/DPDK-1.6.0/build/lib/librte_pmd_ixgbe.a(ixgbe_api.o)
ixgbe_read_pba_string_generic                     /home/born/DPDK-OVS/DPDK-1.6.0/build/lib/librte_pmd_ixgbe.a(ixgbe_common.o)
                                                  /home/born/DPDK-OVS/DPDK-1.6.0/build/lib/librte_pmd_ixgbe.a(ixgbe_api.o)
ixgbe_read_phy_reg                                /home/born/DPDK-OVS/DPDK-1.6.0/build/lib/librte_pmd_ixgbe.a(ixgbe_api.o)
ixgbe_read_phy_reg_generic                        /home/born/DPDK-OVS/DPDK-1.6.0/build/lib/librte_pmd_ixgbe.a(ixgbe_phy.o)
ixgbe_read_posted_mbx                             /home/born/DPDK-OVS/DPDK-1.6.0/build/lib/librte_pmd_ixgbe.a(ixgbe_mbx.o)
ixgbe_recv_pkts                                   /home/born/DPDK-OVS/DPDK-1.6.0/build/lib/librte_pmd_ixgbe.a(ixgbe_rxtx.o)
                                                  /home/born/DPDK-OVS/DPDK-1.6.0/build/lib/librte_pmd_ixgbe.a(ixgbe_ethdev.o)
ixgbe_recv_pkts_bulk_alloc                        /home/born/DPDK-OVS/DPDK-1.6.0/build/lib/librte_pmd_ixgbe.a(ixgbe_rxtx.o)
ixgbe_recv_scattered_pkts                         /home/born/DPDK-OVS/DPDK-1.6.0/build/lib/librte_pmd_ixgbe.a(ixgbe_rxtx.o)
                                                  /home/born/DPDK-OVS/DPDK-1.6.0/build/lib/librte_pmd_ixgbe.a(ixgbe_ethdev.o)
ixgbe_reinit_fdir_tables_82599                    /home/born/DPDK-OVS/DPDK-1.6.0/build/lib/librte_pmd_ixgbe.a(ixgbe_82599.o)
                                                  /home/born/DPDK-OVS/DPDK-1.6.0/build/lib/librte_pmd_ixgbe.a(ixgbe_fdir.o)
ixgbe_release_swfw_semaphore                      /home/born/DPDK-OVS/DPDK-1.6.0/build/lib/librte_pmd_ixgbe.a(ixgbe_api.o)
ixgbe_release_swfw_sync                           /home/born/DPDK-OVS/DPDK-1.6.0/build/lib/librte_pmd_ixgbe.a(ixgbe_common.o)
ixgbe_release_swfw_sync_X540                      /home/born/DPDK-OVS/DPDK-1.6.0/build/lib/librte_pmd_ixgbe.a(ixgbe_x540.o)
ixgbe_reset_hw                                    /home/born/DPDK-OVS/DPDK-1.6.0/build/lib/librte_pmd_ixgbe.a(ixgbe_api.o)
                                                  /home/born/DPDK-OVS/DPDK-1.6.0/build/lib/librte_pmd_ixgbe.a(ixgbe_ethdev.o)
ixgbe_reset_hw_82599                              /home/born/DPDK-OVS/DPDK-1.6.0/build/lib/librte_pmd_ixgbe.a(ixgbe_82599.o)
ixgbe_reset_hw_X540                               /home/born/DPDK-OVS/DPDK-1.6.0/build/lib/librte_pmd_ixgbe.a(ixgbe_x540.o)
ixgbe_reset_hw_vf                                 /home/born/DPDK-OVS/DPDK-1.6.0/build/lib/librte_pmd_ixgbe.a(ixgbe_vf.o)
ixgbe_reset_phy                                   /home/born/DPDK-OVS/DPDK-1.6.0/build/lib/librte_pmd_ixgbe.a(ixgbe_api.o)
ixgbe_reset_phy_generic                           /home/born/DPDK-OVS/DPDK-1.6.0/build/lib/librte_pmd_ixgbe.a(ixgbe_phy.o)
ixgbe_reset_phy_nl                                /home/born/DPDK-OVS/DPDK-1.6.0/build/lib/librte_pmd_ixgbe.a(ixgbe_phy.o)
                                                  /home/born/DPDK-OVS/DPDK-1.6.0/build/lib/librte_pmd_ixgbe.a(ixgbe_82598.o)
ixgbe_reset_pipeline_82599                        /home/born/DPDK-OVS/DPDK-1.6.0/build/lib/librte_pmd_ixgbe.a(ixgbe_82599.o)
                                                  /home/born/DPDK-OVS/DPDK-1.6.0/build/lib/librte_pmd_ixgbe.a(ixgbe_rxtx.o)
                                                  /home/born/DPDK-OVS/DPDK-1.6.0/build/lib/librte_pmd_ixgbe.a(ixgbe_common.o)
ixgbe_set_fw_drv_ver                              /home/born/DPDK-OVS/DPDK-1.6.0/build/lib/librte_pmd_ixgbe.a(ixgbe_api.o)
ixgbe_set_fw_drv_ver_generic                      /home/born/DPDK-OVS/DPDK-1.6.0/build/lib/librte_pmd_ixgbe.a(ixgbe_common.o)
                                                  /home/born/DPDK-OVS/DPDK-1.6.0/build/lib/librte_pmd_ixgbe.a(ixgbe_x540.o)
                                                  /home/born/DPDK-OVS/DPDK-1.6.0/build/lib/librte_pmd_ixgbe.a(ixgbe_82599.o)
ixgbe_set_lan_id_multi_port_pcie                  /home/born/DPDK-OVS/DPDK-1.6.0/build/lib/librte_pmd_ixgbe.a(ixgbe_common.o)
                                                  /home/born/DPDK-OVS/DPDK-1.6.0/build/lib/librte_pmd_ixgbe.a(ixgbe_82598.o)
ixgbe_set_lan_id_multi_port_pcie_82598            /home/born/DPDK-OVS/DPDK-1.6.0/build/lib/librte_pmd_ixgbe.a(ixgbe_82598.o)
ixgbe_set_mac_anti_spoofing                       /home/born/DPDK-OVS/DPDK-1.6.0/build/lib/librte_pmd_ixgbe.a(ixgbe_common.o)
                                                  /home/born/DPDK-OVS/DPDK-1.6.0/build/lib/librte_pmd_ixgbe.a(ixgbe_x540.o)
                                                  /home/born/DPDK-OVS/DPDK-1.6.0/build/lib/librte_pmd_ixgbe.a(ixgbe_82599.o)
ixgbe_set_mac_type                                /home/born/DPDK-OVS/DPDK-1.6.0/build/lib/librte_pmd_ixgbe.a(ixgbe_api.o)
ixgbe_set_mta                                     /home/born/DPDK-OVS/DPDK-1.6.0/build/lib/librte_pmd_ixgbe.a(ixgbe_common.o)
ixgbe_set_pcie_completion_timeout                 /home/born/DPDK-OVS/DPDK-1.6.0/build/lib/librte_pmd_ixgbe.a(ixgbe_82598.o)
ixgbe_set_rar                                     /home/born/DPDK-OVS/DPDK-1.6.0/build/lib/librte_pmd_ixgbe.a(ixgbe_api.o)
                                                  /home/born/DPDK-OVS/DPDK-1.6.0/build/lib/librte_pmd_ixgbe.a(ixgbe_common.o)
                                                  /home/born/DPDK-OVS/DPDK-1.6.0/build/lib/librte_pmd_ixgbe.a(ixgbe_ethdev.o)
ixgbe_set_rar_generic                             /home/born/DPDK-OVS/DPDK-1.6.0/build/lib/librte_pmd_ixgbe.a(ixgbe_common.o)
ixgbe_set_rar_vf                                  /home/born/DPDK-OVS/DPDK-1.6.0/build/lib/librte_pmd_ixgbe.a(ixgbe_vf.o)
ixgbe_set_rxpba_generic                           /home/born/DPDK-OVS/DPDK-1.6.0/build/lib/librte_pmd_ixgbe.a(ixgbe_common.o)
                                                  /home/born/DPDK-OVS/DPDK-1.6.0/build/lib/librte_pmd_ixgbe.a(ixgbe_x540.o)
                                                  /home/born/DPDK-OVS/DPDK-1.6.0/build/lib/librte_pmd_ixgbe.a(ixgbe_82599.o)
ixgbe_set_san_mac_addr                            /home/born/DPDK-OVS/DPDK-1.6.0/build/lib/librte_pmd_ixgbe.a(ixgbe_api.o)
ixgbe_set_san_mac_addr_generic                    /home/born/DPDK-OVS/DPDK-1.6.0/build/lib/librte_pmd_ixgbe.a(ixgbe_common.o)
                                                  /home/born/DPDK-OVS/DPDK-1.6.0/build/lib/librte_pmd_ixgbe.a(ixgbe_x540.o)
                                                  /home/born/DPDK-OVS/DPDK-1.6.0/build/lib/librte_pmd_ixgbe.a(ixgbe_82599.o)
ixgbe_set_vfta                                    /home/born/DPDK-OVS/DPDK-1.6.0/build/lib/librte_pmd_ixgbe.a(ixgbe_api.o)
                                                  /home/born/DPDK-OVS/DPDK-1.6.0/build/lib/librte_pmd_ixgbe.a(ixgbe_ethdev.o)
ixgbe_set_vfta_82598                              /home/born/DPDK-OVS/DPDK-1.6.0/build/lib/librte_pmd_ixgbe.a(ixgbe_82598.o)
ixgbe_set_vfta_generic                            /home/born/DPDK-OVS/DPDK-1.6.0/build/lib/librte_pmd_ixgbe.a(ixgbe_common.o)
                                                  /home/born/DPDK-OVS/DPDK-1.6.0/build/lib/librte_pmd_ixgbe.a(ixgbe_x540.o)
                                                  /home/born/DPDK-OVS/DPDK-1.6.0/build/lib/librte_pmd_ixgbe.a(ixgbe_82599.o)
ixgbe_set_vfta_vf                                 /home/born/DPDK-OVS/DPDK-1.6.0/build/lib/librte_pmd_ixgbe.a(ixgbe_vf.o)
ixgbe_set_vlan_anti_spoofing                      /home/born/DPDK-OVS/DPDK-1.6.0/build/lib/librte_pmd_ixgbe.a(ixgbe_common.o)
                                                  /home/born/DPDK-OVS/DPDK-1.6.0/build/lib/librte_pmd_ixgbe.a(ixgbe_x540.o)
                                                  /home/born/DPDK-OVS/DPDK-1.6.0/build/lib/librte_pmd_ixgbe.a(ixgbe_82599.o)
ixgbe_set_vlvf                                    /home/born/DPDK-OVS/DPDK-1.6.0/build/lib/librte_pmd_ixgbe.a(ixgbe_api.o)
ixgbe_set_vlvf_generic                            /home/born/DPDK-OVS/DPDK-1.6.0/build/lib/librte_pmd_ixgbe.a(ixgbe_common.o)
                                                  /home/born/DPDK-OVS/DPDK-1.6.0/build/lib/librte_pmd_ixgbe.a(ixgbe_x540.o)
                                                  /home/born/DPDK-OVS/DPDK-1.6.0/build/lib/librte_pmd_ixgbe.a(ixgbe_82599.o)
ixgbe_set_vmdq                                    /home/born/DPDK-OVS/DPDK-1.6.0/build/lib/librte_pmd_ixgbe.a(ixgbe_api.o)
                                                  /home/born/DPDK-OVS/DPDK-1.6.0/build/lib/librte_pmd_ixgbe.a(ixgbe_common.o)
ixgbe_set_vmdq_82598                              /home/born/DPDK-OVS/DPDK-1.6.0/build/lib/librte_pmd_ixgbe.a(ixgbe_82598.o)
ixgbe_set_vmdq_generic                            /home/born/DPDK-OVS/DPDK-1.6.0/build/lib/librte_pmd_ixgbe.a(ixgbe_common.o)
                                                  /home/born/DPDK-OVS/DPDK-1.6.0/build/lib/librte_pmd_ixgbe.a(ixgbe_x540.o)
                                                  /home/born/DPDK-OVS/DPDK-1.6.0/build/lib/librte_pmd_ixgbe.a(ixgbe_82599.o)
ixgbe_set_vmdq_san_mac                            /home/born/DPDK-OVS/DPDK-1.6.0/build/lib/librte_pmd_ixgbe.a(ixgbe_api.o)
ixgbe_set_vmdq_san_mac_generic                    /home/born/DPDK-OVS/DPDK-1.6.0/build/lib/librte_pmd_ixgbe.a(ixgbe_common.o)
                                                  /home/born/DPDK-OVS/DPDK-1.6.0/build/lib/librte_pmd_ixgbe.a(ixgbe_x540.o)
                                                  /home/born/DPDK-OVS/DPDK-1.6.0/build/lib/librte_pmd_ixgbe.a(ixgbe_82599.o)
ixgbe_setup_link                                  /home/born/DPDK-OVS/DPDK-1.6.0/build/lib/librte_pmd_ixgbe.a(ixgbe_api.o)
                                                  /home/born/DPDK-OVS/DPDK-1.6.0/build/lib/librte_pmd_ixgbe.a(ixgbe_ethdev.o)
ixgbe_setup_mac_link_82599                        /home/born/DPDK-OVS/DPDK-1.6.0/build/lib/librte_pmd_ixgbe.a(ixgbe_82599.o)
ixgbe_setup_mac_link_X540                         /home/born/DPDK-OVS/DPDK-1.6.0/build/lib/librte_pmd_ixgbe.a(ixgbe_x540.o)
ixgbe_setup_mac_link_multispeed_fiber             /home/born/DPDK-OVS/DPDK-1.6.0/build/lib/librte_pmd_ixgbe.a(ixgbe_82599.o)
ixgbe_setup_mac_link_smartspeed                   /home/born/DPDK-OVS/DPDK-1.6.0/build/lib/librte_pmd_ixgbe.a(ixgbe_82599.o)
ixgbe_setup_mac_link_vf                           /home/born/DPDK-OVS/DPDK-1.6.0/build/lib/librte_pmd_ixgbe.a(ixgbe_vf.o)
ixgbe_setup_phy_link                              /home/born/DPDK-OVS/DPDK-1.6.0/build/lib/librte_pmd_ixgbe.a(ixgbe_api.o)
ixgbe_setup_phy_link_generic                      /home/born/DPDK-OVS/DPDK-1.6.0/build/lib/librte_pmd_ixgbe.a(ixgbe_phy.o)
ixgbe_setup_phy_link_speed                        /home/born/DPDK-OVS/DPDK-1.6.0/build/lib/librte_pmd_ixgbe.a(ixgbe_api.o)
ixgbe_setup_phy_link_speed_generic                /home/born/DPDK-OVS/DPDK-1.6.0/build/lib/librte_pmd_ixgbe.a(ixgbe_phy.o)
ixgbe_setup_phy_link_tnx                          /home/born/DPDK-OVS/DPDK-1.6.0/build/lib/librte_pmd_ixgbe.a(ixgbe_phy.o)
                                                  /home/born/DPDK-OVS/DPDK-1.6.0/build/lib/librte_pmd_ixgbe.a(ixgbe_82598.o)
                                                  /home/born/DPDK-OVS/DPDK-1.6.0/build/lib/librte_pmd_ixgbe.a(ixgbe_82599.o)
ixgbe_setup_sfp_modules_82599                     /home/born/DPDK-OVS/DPDK-1.6.0/build/lib/librte_pmd_ixgbe.a(ixgbe_82599.o)
ixgbe_start_hw                                    /home/born/DPDK-OVS/DPDK-1.6.0/build/lib/librte_pmd_ixgbe.a(ixgbe_api.o)
ixgbe_start_hw_82598                              /home/born/DPDK-OVS/DPDK-1.6.0/build/lib/librte_pmd_ixgbe.a(ixgbe_82598.o)
ixgbe_start_hw_82599                              /home/born/DPDK-OVS/DPDK-1.6.0/build/lib/librte_pmd_ixgbe.a(ixgbe_82599.o)
ixgbe_start_hw_X540                               /home/born/DPDK-OVS/DPDK-1.6.0/build/lib/librte_pmd_ixgbe.a(ixgbe_x540.o)
ixgbe_start_hw_gen2                               /home/born/DPDK-OVS/DPDK-1.6.0/build/lib/librte_pmd_ixgbe.a(ixgbe_common.o)
                                                  /home/born/DPDK-OVS/DPDK-1.6.0/build/lib/librte_pmd_ixgbe.a(ixgbe_x540.o)
                                                  /home/born/DPDK-OVS/DPDK-1.6.0/build/lib/librte_pmd_ixgbe.a(ixgbe_82599.o)
ixgbe_start_hw_generic                            /home/born/DPDK-OVS/DPDK-1.6.0/build/lib/librte_pmd_ixgbe.a(ixgbe_common.o)
                                                  /home/born/DPDK-OVS/DPDK-1.6.0/build/lib/librte_pmd_ixgbe.a(ixgbe_x540.o)
                                                  /home/born/DPDK-OVS/DPDK-1.6.0/build/lib/librte_pmd_ixgbe.a(ixgbe_82598.o)
                                                  /home/born/DPDK-OVS/DPDK-1.6.0/build/lib/librte_pmd_ixgbe.a(ixgbe_82599.o)
ixgbe_start_hw_vf                                 /home/born/DPDK-OVS/DPDK-1.6.0/build/lib/librte_pmd_ixgbe.a(ixgbe_vf.o)
ixgbe_start_mac_link_82599                        /home/born/DPDK-OVS/DPDK-1.6.0/build/lib/librte_pmd_ixgbe.a(ixgbe_82599.o)
ixgbe_stop_adapter                                /home/born/DPDK-OVS/DPDK-1.6.0/build/lib/librte_pmd_ixgbe.a(ixgbe_api.o)
                                                  /home/born/DPDK-OVS/DPDK-1.6.0/build/lib/librte_pmd_ixgbe.a(ixgbe_ethdev.o)
ixgbe_stop_adapter_generic                        /home/born/DPDK-OVS/DPDK-1.6.0/build/lib/librte_pmd_ixgbe.a(ixgbe_common.o)
ixgbe_stop_adapter_vf                             /home/born/DPDK-OVS/DPDK-1.6.0/build/lib/librte_pmd_ixgbe.a(ixgbe_vf.o)
ixgbe_tn_check_overtemp                           /home/born/DPDK-OVS/DPDK-1.6.0/build/lib/librte_pmd_ixgbe.a(ixgbe_phy.o)
ixgbe_update_eeprom_checksum                      /home/born/DPDK-OVS/DPDK-1.6.0/build/lib/librte_pmd_ixgbe.a(ixgbe_api.o)
ixgbe_update_eeprom_checksum_X540                 /home/born/DPDK-OVS/DPDK-1.6.0/build/lib/librte_pmd_ixgbe.a(ixgbe_x540.o)
ixgbe_update_eeprom_checksum_generic              /home/born/DPDK-OVS/DPDK-1.6.0/build/lib/librte_pmd_ixgbe.a(ixgbe_common.o)
ixgbe_update_mc_addr_list                         /home/born/DPDK-OVS/DPDK-1.6.0/build/lib/librte_pmd_ixgbe.a(ixgbe_api.o)
ixgbe_update_mc_addr_list_generic                 /home/born/DPDK-OVS/DPDK-1.6.0/build/lib/librte_pmd_ixgbe.a(ixgbe_common.o)
ixgbe_update_mc_addr_list_vf                      /home/born/DPDK-OVS/DPDK-1.6.0/build/lib/librte_pmd_ixgbe.a(ixgbe_vf.o)
ixgbe_update_uc_addr_list                         /home/born/DPDK-OVS/DPDK-1.6.0/build/lib/librte_pmd_ixgbe.a(ixgbe_api.o)
ixgbe_update_uc_addr_list_generic                 /home/born/DPDK-OVS/DPDK-1.6.0/build/lib/librte_pmd_ixgbe.a(ixgbe_common.o)
ixgbe_validate_eeprom_checksum                    /home/born/DPDK-OVS/DPDK-1.6.0/build/lib/librte_pmd_ixgbe.a(ixgbe_api.o)
                                                  /home/born/DPDK-OVS/DPDK-1.6.0/build/lib/librte_pmd_ixgbe.a(ixgbe_ethdev.o)
ixgbe_validate_eeprom_checksum_X540               /home/born/DPDK-OVS/DPDK-1.6.0/build/lib/librte_pmd_ixgbe.a(ixgbe_x540.o)
ixgbe_validate_eeprom_checksum_generic            /home/born/DPDK-OVS/DPDK-1.6.0/build/lib/librte_pmd_ixgbe.a(ixgbe_common.o)
ixgbe_validate_mac_addr                           /home/born/DPDK-OVS/DPDK-1.6.0/build/lib/librte_pmd_ixgbe.a(ixgbe_common.o)
                                                  /home/born/DPDK-OVS/DPDK-1.6.0/build/lib/librte_pmd_ixgbe.a(ixgbe_x540.o)
                                                  /home/born/DPDK-OVS/DPDK-1.6.0/build/lib/librte_pmd_ixgbe.a(ixgbe_82599.o)
ixgbe_validate_phy_addr                           /home/born/DPDK-OVS/DPDK-1.6.0/build/lib/librte_pmd_ixgbe.a(ixgbe_phy.o)
ixgbe_verify_lesm_fw_enabled_82599                /home/born/DPDK-OVS/DPDK-1.6.0/build/lib/librte_pmd_ixgbe.a(ixgbe_82599.o)
                                                  /home/born/DPDK-OVS/DPDK-1.6.0/build/lib/librte_pmd_ixgbe.a(ixgbe_rxtx.o)
                                                  /home/born/DPDK-OVS/DPDK-1.6.0/build/lib/librte_pmd_ixgbe.a(ixgbe_common.o)
ixgbe_vlan_hw_filter_disable                      /home/born/DPDK-OVS/DPDK-1.6.0/build/lib/librte_pmd_ixgbe.a(ixgbe_ethdev.o)
ixgbe_vlan_hw_filter_enable                       /home/born/DPDK-OVS/DPDK-1.6.0/build/lib/librte_pmd_ixgbe.a(ixgbe_ethdev.o)
ixgbe_vlan_hw_strip_disable_all                   /home/born/DPDK-OVS/DPDK-1.6.0/build/lib/librte_pmd_ixgbe.a(ixgbe_ethdev.o)
                                                  /home/born/DPDK-OVS/DPDK-1.6.0/build/lib/librte_pmd_ixgbe.a(ixgbe_pf.o)
ixgbe_vlan_hw_strip_enable_all                    /home/born/DPDK-OVS/DPDK-1.6.0/build/lib/librte_pmd_ixgbe.a(ixgbe_ethdev.o)
                                                  /home/born/DPDK-OVS/DPDK-1.6.0/build/lib/librte_pmd_ixgbe.a(ixgbe_pf.o)
ixgbe_write_analog_reg8                           /home/born/DPDK-OVS/DPDK-1.6.0/build/lib/librte_pmd_ixgbe.a(ixgbe_api.o)
ixgbe_write_analog_reg8_82598                     /home/born/DPDK-OVS/DPDK-1.6.0/build/lib/librte_pmd_ixgbe.a(ixgbe_82598.o)
ixgbe_write_analog_reg8_82599                     /home/born/DPDK-OVS/DPDK-1.6.0/build/lib/librte_pmd_ixgbe.a(ixgbe_82599.o)
ixgbe_write_eeprom                                /home/born/DPDK-OVS/DPDK-1.6.0/build/lib/librte_pmd_ixgbe.a(ixgbe_api.o)
ixgbe_write_eeprom_buffer                         /home/born/DPDK-OVS/DPDK-1.6.0/build/lib/librte_pmd_ixgbe.a(ixgbe_api.o)
ixgbe_write_eeprom_buffer_bit_bang_generic        /home/born/DPDK-OVS/DPDK-1.6.0/build/lib/librte_pmd_ixgbe.a(ixgbe_common.o)
ixgbe_write_eeprom_generic                        /home/born/DPDK-OVS/DPDK-1.6.0/build/lib/librte_pmd_ixgbe.a(ixgbe_common.o)
ixgbe_write_eewr_X540                             /home/born/DPDK-OVS/DPDK-1.6.0/build/lib/librte_pmd_ixgbe.a(ixgbe_x540.o)
ixgbe_write_eewr_buffer_X540                      /home/born/DPDK-OVS/DPDK-1.6.0/build/lib/librte_pmd_ixgbe.a(ixgbe_x540.o)
ixgbe_write_eewr_buffer_generic                   /home/born/DPDK-OVS/DPDK-1.6.0/build/lib/librte_pmd_ixgbe.a(ixgbe_common.o)
                                                  /home/born/DPDK-OVS/DPDK-1.6.0/build/lib/librte_pmd_ixgbe.a(ixgbe_x540.o)
ixgbe_write_eewr_generic                          /home/born/DPDK-OVS/DPDK-1.6.0/build/lib/librte_pmd_ixgbe.a(ixgbe_common.o)
                                                  /home/born/DPDK-OVS/DPDK-1.6.0/build/lib/librte_pmd_ixgbe.a(ixgbe_x540.o)
ixgbe_write_i2c_byte                              /home/born/DPDK-OVS/DPDK-1.6.0/build/lib/librte_pmd_ixgbe.a(ixgbe_api.o)
ixgbe_write_i2c_byte_generic                      /home/born/DPDK-OVS/DPDK-1.6.0/build/lib/librte_pmd_ixgbe.a(ixgbe_phy.o)
ixgbe_write_i2c_eeprom                            /home/born/DPDK-OVS/DPDK-1.6.0/build/lib/librte_pmd_ixgbe.a(ixgbe_api.o)
ixgbe_write_i2c_eeprom_generic                    /home/born/DPDK-OVS/DPDK-1.6.0/build/lib/librte_pmd_ixgbe.a(ixgbe_phy.o)
ixgbe_write_mbx                                   /home/born/DPDK-OVS/DPDK-1.6.0/build/lib/librte_pmd_ixgbe.a(ixgbe_mbx.o)
                                                  /home/born/DPDK-OVS/DPDK-1.6.0/build/lib/librte_pmd_ixgbe.a(ixgbe_pf.o)
ixgbe_write_pba_raw                               /home/born/DPDK-OVS/DPDK-1.6.0/build/lib/librte_pmd_ixgbe.a(ixgbe_common.o)
ixgbe_write_phy_reg                               /home/born/DPDK-OVS/DPDK-1.6.0/build/lib/librte_pmd_ixgbe.a(ixgbe_api.o)
ixgbe_write_phy_reg_generic                       /home/born/DPDK-OVS/DPDK-1.6.0/build/lib/librte_pmd_ixgbe.a(ixgbe_phy.o)
ixgbe_write_posted_mbx                            /home/born/DPDK-OVS/DPDK-1.6.0/build/lib/librte_pmd_ixgbe.a(ixgbe_mbx.o)
ixgbe_xmit_pkts                                   /home/born/DPDK-OVS/DPDK-1.6.0/build/lib/librte_pmd_ixgbe.a(ixgbe_rxtx.o)
                                                  /home/born/DPDK-OVS/DPDK-1.6.0/build/lib/librte_pmd_ixgbe.a(ixgbe_ethdev.o)
ixgbe_xmit_pkts_simple                            /home/born/DPDK-OVS/DPDK-1.6.0/build/lib/librte_pmd_ixgbe.a(ixgbe_rxtx.o)
ixgbevf_dev_rx_init                               /home/born/DPDK-OVS/DPDK-1.6.0/build/lib/librte_pmd_ixgbe.a(ixgbe_rxtx.o)
                                                  /home/born/DPDK-OVS/DPDK-1.6.0/build/lib/librte_pmd_ixgbe.a(ixgbe_ethdev.o)
ixgbevf_dev_rxtx_start                            /home/born/DPDK-OVS/DPDK-1.6.0/build/lib/librte_pmd_ixgbe.a(ixgbe_rxtx.o)
                                                  /home/born/DPDK-OVS/DPDK-1.6.0/build/lib/librte_pmd_ixgbe.a(ixgbe_ethdev.o)
ixgbevf_dev_tx_init                               /home/born/DPDK-OVS/DPDK-1.6.0/build/lib/librte_pmd_ixgbe.a(ixgbe_rxtx.o)
                                                  /home/born/DPDK-OVS/DPDK-1.6.0/build/lib/librte_pmd_ixgbe.a(ixgbe_ethdev.o)
ixgbevf_get_queues                                /home/born/DPDK-OVS/DPDK-1.6.0/build/lib/librte_pmd_ixgbe.a(ixgbe_vf.o)
                                                  /home/born/DPDK-OVS/DPDK-1.6.0/build/lib/librte_pmd_ixgbe.a(ixgbe_ethdev.o)
ixgbevf_negotiate_api_version                     /home/born/DPDK-OVS/DPDK-1.6.0/build/lib/librte_pmd_ixgbe.a(ixgbe_vf.o)
                                                  /home/born/DPDK-OVS/DPDK-1.6.0/build/lib/librte_pmd_ixgbe.a(ixgbe_ethdev.o)
ixgbevf_rlpml_set_vf                              /home/born/DPDK-OVS/DPDK-1.6.0/build/lib/librte_pmd_ixgbe.a(ixgbe_vf.o)
ixgbevf_set_uc_addr_vf                            /home/born/DPDK-OVS/DPDK-1.6.0/build/lib/librte_pmd_ixgbe.a(ixgbe_vf.o)
jrand48_r                                         /lib/x86_64-linux-gnu/libc.so.6
jrand48_r@@GLIBC_2.2.5                            /lib/x86_64-linux-gnu/libc.so.6
jrand48_r@GLIBC_2.2.5                             /lib/x86_64-linux-gnu/libc.so.6
kill                                              /lib/x86_64-linux-gnu/libc.so.6
kill@@GLIBC_2.2.5                                 /lib/x86_64-linux-gnu/libc.so.6
kill@GLIBC_2.2.5                                  /lib/x86_64-linux-gnu/libc.so.6
launch_args_parse                                 parameters.o
                                                  testpmd.o
lchown                                            /lib/x86_64-linux-gnu/libc.so.6
lchown@@GLIBC_2.2.5                               /lib/x86_64-linux-gnu/libc.so.6
lchown@GLIBC_2.2.5                                /lib/x86_64-linux-gnu/libc.so.6
lckpwdf                                           /lib/x86_64-linux-gnu/libc.so.6
lckpwdf@@GLIBC_2.2.5                              /lib/x86_64-linux-gnu/libc.so.6
lckpwdf@GLIBC_2.2.5                               /lib/x86_64-linux-gnu/libc.so.6
lcong48_r                                         /lib/x86_64-linux-gnu/libc.so.6
lcong48_r@@GLIBC_2.2.5                            /lib/x86_64-linux-gnu/libc.so.6
lcong48_r@GLIBC_2.2.5                             /lib/x86_64-linux-gnu/libc.so.6
lcore_config                                      /home/born/DPDK-OVS/DPDK-1.6.0/build/lib/librte_pmd_ring.a(rte_eth_ring.o)
                                                  /home/born/DPDK-OVS/DPDK-1.6.0/build/lib/librte_eal.a(eal_common_launch.o)
                                                  /home/born/DPDK-OVS/DPDK-1.6.0/build/lib/librte_eal.a(eal_lcore.o)
                                                  /home/born/DPDK-OVS/DPDK-1.6.0/build/lib/librte_eal.a(eal_thread.o)
                                                  /home/born/DPDK-OVS/DPDK-1.6.0/build/lib/librte_eal.a(eal.o)
                                                  /home/born/DPDK-OVS/DPDK-1.6.0/build/lib/librte_malloc.a(rte_malloc.o)
                                                  /home/born/DPDK-OVS/DPDK-1.6.0/build/lib/libethdev.a(rte_ethdev.o)
                                                  /home/born/DPDK-OVS/DPDK-1.6.0/build/lib/librte_pmd_vmxnet3.a(vmxnet3_ethdev.o)
                                                  config.o
                                                  testpmd.o
ldexp                                             /lib/x86_64-linux-gnu/libc.so.6
ldexp@@GLIBC_2.2.5                                /lib/x86_64-linux-gnu/libc.so.6
ldexp@GLIBC_2.2.5                                 /lib/x86_64-linux-gnu/libc.so.6
ldexpf                                            /lib/x86_64-linux-gnu/libc.so.6
ldexpf@@GLIBC_2.2.5                               /lib/x86_64-linux-gnu/libc.so.6
ldexpf@GLIBC_2.2.5                                /lib/x86_64-linux-gnu/libc.so.6
ldexpl                                            /lib/x86_64-linux-gnu/libc.so.6
ldexpl@@GLIBC_2.2.5                               /lib/x86_64-linux-gnu/libc.so.6
ldexpl@GLIBC_2.2.5                                /lib/x86_64-linux-gnu/libc.so.6
link                                              /lib/x86_64-linux-gnu/libc.so.6
link@@GLIBC_2.2.5                                 /lib/x86_64-linux-gnu/libc.so.6
link@GLIBC_2.2.5                                  /lib/x86_64-linux-gnu/libc.so.6
                                                  /lib/x86_64-linux-gnu/libpthread.so.0
listen                                            /lib/x86_64-linux-gnu/libc.so.6
listen@@GLIBC_2.2.5                               /lib/x86_64-linux-gnu/libc.so.6
listen@GLIBC_2.2.5                                /lib/x86_64-linux-gnu/libc.so.6
llseek                                            /lib/x86_64-linux-gnu/libc.so.6
llseek@@GLIBC_2.2.5                               /lib/x86_64-linux-gnu/libc.so.6
llseek@GLIBC_2.2.5                                /lib/x86_64-linux-gnu/libc.so.6
localtime_r                                       /lib/x86_64-linux-gnu/libc.so.6
localtime_r@@GLIBC_2.2.5                          /lib/x86_64-linux-gnu/libc.so.6
localtime_r@GLIBC_2.2.5                           /lib/x86_64-linux-gnu/libc.so.6
lockf64                                           /lib/x86_64-linux-gnu/libc.so.6
lockf64@@GLIBC_2.2.5                              /lib/x86_64-linux-gnu/libc.so.6
lockf64@GLIBC_2.2.5                               /lib/x86_64-linux-gnu/libc.so.6
lrand48                                           /lib/x86_64-linux-gnu/libc.so.6
                                                  /home/born/DPDK-OVS/DPDK-1.6.0/build/lib/librte_pmd_virtio.a(virtio_ethdev.o)
                                                  /home/born/DPDK-OVS/DPDK-1.6.0/build/lib/librte_pmd_ixgbe.a(ixgbe_pf.o)
                                                  /home/born/DPDK-OVS/DPDK-1.6.0/build/lib/librte_pmd_e1000.a(igb_pf.o)
lrand48@@GLIBC_2.2.5                              /lib/x86_64-linux-gnu/libc.so.6
lrand48@GLIBC_2.2.5                               /lib/x86_64-linux-gnu/libc.so.6
lseek                                             /lib/x86_64-linux-gnu/libpthread.so.0
                                                  /home/born/DPDK-OVS/DPDK-1.6.0/build/lib/librte_eal.a(eal_memory.o)
lseek64                                           /lib/x86_64-linux-gnu/libpthread.so.0
lseek64@@GLIBC_2.2.5                              /lib/x86_64-linux-gnu/libpthread.so.0
                                                  /lib/x86_64-linux-gnu/libc.so.6
lseek64@GLIBC_2.2.5                               /lib/x86_64-linux-gnu/libpthread.so.0
lseek@@GLIBC_2.2.5                                /lib/x86_64-linux-gnu/libpthread.so.0
                                                  /lib/x86_64-linux-gnu/libc.so.6
lseek@GLIBC_2.2.5                                 /lib/x86_64-linux-gnu/libpthread.so.0
mac_fwd_engine                                    macfwd.o
                                                  testpmd.o
mac_retry_fwd_engine                              macfwd-retry.o
                                                  testpmd.o
main                                              testpmd.o
                                                  /usr/lib/gcc/x86_64-linux-gnu/4.6/../../../x86_64-linux-gnu/crt1.o
main_ctx                                          cmdline.o
makecontext                                       /lib/x86_64-linux-gnu/libc.so.6
makecontext@@GLIBC_2.2.5                          /lib/x86_64-linux-gnu/libc.so.6
makecontext@GLIBC_2.2.5                           /lib/x86_64-linux-gnu/libc.so.6
mallinfo                                          /lib/x86_64-linux-gnu/libc.so.6
mallinfo@@GLIBC_2.2.5                             /lib/x86_64-linux-gnu/libc.so.6
mallinfo@GLIBC_2.2.5                              /lib/x86_64-linux-gnu/libc.so.6
malloc                                            /lib/x86_64-linux-gnu/libc.so.6
                                                  /home/born/DPDK-OVS/DPDK-1.6.0/build/lib/librte_cmdline.a(cmdline.o)
                                                  /home/born/DPDK-OVS/DPDK-1.6.0/build/lib/librte_eal.a(eal_pci.o)
                                                  /home/born/DPDK-OVS/DPDK-1.6.0/build/lib/librte_eal.a(eal_memory.o)
malloc@@GLIBC_2.2.5                               /lib/x86_64-linux-gnu/libc.so.6
                                                  /lib/x86_64-linux-gnu/ld-linux-x86-64.so.2
malloc@GLIBC_2.2.5                                /lib/x86_64-linux-gnu/libc.so.6
                                                  /lib/x86_64-linux-gnu/libpthread.so.0
                                                  /usr/lib/gcc/x86_64-linux-gnu/4.6/../../../x86_64-linux-gnu/librt.so
malloc_elem_alloc                                 /home/born/DPDK-OVS/DPDK-1.6.0/build/lib/librte_malloc.a(malloc_elem.o)
                                                  /home/born/DPDK-OVS/DPDK-1.6.0/build/lib/librte_malloc.a(malloc_heap.o)
malloc_elem_can_hold                              /home/born/DPDK-OVS/DPDK-1.6.0/build/lib/librte_malloc.a(malloc_elem.o)
                                                  /home/born/DPDK-OVS/DPDK-1.6.0/build/lib/librte_malloc.a(malloc_heap.o)
malloc_elem_free                                  /home/born/DPDK-OVS/DPDK-1.6.0/build/lib/librte_malloc.a(malloc_elem.o)
                                                  /home/born/DPDK-OVS/DPDK-1.6.0/build/lib/librte_malloc.a(rte_malloc.o)
malloc_elem_init                                  /home/born/DPDK-OVS/DPDK-1.6.0/build/lib/librte_malloc.a(malloc_elem.o)
                                                  /home/born/DPDK-OVS/DPDK-1.6.0/build/lib/librte_malloc.a(malloc_heap.o)
malloc_elem_mkend                                 /home/born/DPDK-OVS/DPDK-1.6.0/build/lib/librte_malloc.a(malloc_elem.o)
                                                  /home/born/DPDK-OVS/DPDK-1.6.0/build/lib/librte_malloc.a(malloc_heap.o)
malloc_elem_resize                                /home/born/DPDK-OVS/DPDK-1.6.0/build/lib/librte_malloc.a(malloc_elem.o)
                                                  /home/born/DPDK-OVS/DPDK-1.6.0/build/lib/librte_malloc.a(rte_malloc.o)
malloc_get_state                                  /lib/x86_64-linux-gnu/libc.so.6
malloc_get_state@@GLIBC_2.2.5                     /lib/x86_64-linux-gnu/libc.so.6
malloc_get_state@GLIBC_2.2.5                      /lib/x86_64-linux-gnu/libc.so.6
malloc_heap_alloc                                 /home/born/DPDK-OVS/DPDK-1.6.0/build/lib/librte_malloc.a(malloc_heap.o)
                                                  /home/born/DPDK-OVS/DPDK-1.6.0/build/lib/librte_malloc.a(rte_malloc.o)
malloc_heap_get_stats                             /home/born/DPDK-OVS/DPDK-1.6.0/build/lib/librte_malloc.a(malloc_heap.o)
                                                  /home/born/DPDK-OVS/DPDK-1.6.0/build/lib/librte_malloc.a(rte_malloc.o)
malloc_set_state                                  /lib/x86_64-linux-gnu/libc.so.6
malloc_set_state@@GLIBC_2.2.5                     /lib/x86_64-linux-gnu/libc.so.6
malloc_set_state@GLIBC_2.2.5                      /lib/x86_64-linux-gnu/libc.so.6
malloc_stats                                      /lib/x86_64-linux-gnu/libc.so.6
malloc_stats@@GLIBC_2.2.5                         /lib/x86_64-linux-gnu/libc.so.6
malloc_stats@GLIBC_2.2.5                          /lib/x86_64-linux-gnu/libc.so.6
malloc_trim                                       /lib/x86_64-linux-gnu/libc.so.6
malloc_trim@@GLIBC_2.2.5                          /lib/x86_64-linux-gnu/libc.so.6
malloc_trim@GLIBC_2.2.5                           /lib/x86_64-linux-gnu/libc.so.6
malloc_usable_size                                /lib/x86_64-linux-gnu/libc.so.6
malloc_usable_size@@GLIBC_2.2.5                   /lib/x86_64-linux-gnu/libc.so.6
malloc_usable_size@GLIBC_2.2.5                    /lib/x86_64-linux-gnu/libc.so.6
mallopt                                           /lib/x86_64-linux-gnu/libc.so.6
mallopt@@GLIBC_2.2.5                              /lib/x86_64-linux-gnu/libc.so.6
mallopt@GLIBC_2.2.5                               /lib/x86_64-linux-gnu/libc.so.6
mb_mempool_cache                                  testpmd.o
                                                  parameters.o
mbrlen                                            /lib/x86_64-linux-gnu/libc.so.6
mbrlen@@GLIBC_2.2.5                               /lib/x86_64-linux-gnu/libc.so.6
mbrlen@GLIBC_2.2.5                                /lib/x86_64-linux-gnu/libc.so.6
mbrtowc                                           /lib/x86_64-linux-gnu/libc.so.6
mbrtowc@@GLIBC_2.2.5                              /lib/x86_64-linux-gnu/libc.so.6
mbrtowc@GLIBC_2.2.5                               /lib/x86_64-linux-gnu/libc.so.6
mbsinit                                           /lib/x86_64-linux-gnu/libc.so.6
mbsinit@@GLIBC_2.2.5                              /lib/x86_64-linux-gnu/libc.so.6
mbsinit@GLIBC_2.2.5                               /lib/x86_64-linux-gnu/libc.so.6
mbsnrtowcs                                        /lib/x86_64-linux-gnu/libc.so.6
mbsnrtowcs@@GLIBC_2.2.5                           /lib/x86_64-linux-gnu/libc.so.6
mbsnrtowcs@GLIBC_2.2.5                            /lib/x86_64-linux-gnu/libc.so.6
mbsrtowcs                                         /lib/x86_64-linux-gnu/libc.so.6
mbsrtowcs@@GLIBC_2.2.5                            /lib/x86_64-linux-gnu/libc.so.6
mbsrtowcs@GLIBC_2.2.5                             /lib/x86_64-linux-gnu/libc.so.6
mbuf_data_size                                    testpmd.o
                                                  config.o
                                                  parameters.o
mcount                                            /lib/x86_64-linux-gnu/libc.so.6
mcount@@GLIBC_2.2.5                               /lib/x86_64-linux-gnu/libc.so.6
mcount@GLIBC_2.2.5                                /lib/x86_64-linux-gnu/libc.so.6
memalign                                          /lib/x86_64-linux-gnu/libc.so.6
memalign@@GLIBC_2.2.5                             /lib/x86_64-linux-gnu/libc.so.6
memalign@GLIBC_2.2.5                              /lib/x86_64-linux-gnu/libc.so.6
memccpy                                           /lib/x86_64-linux-gnu/libc.so.6
memccpy@@GLIBC_2.2.5                              /lib/x86_64-linux-gnu/libc.so.6
memccpy@GLIBC_2.2.5                               /lib/x86_64-linux-gnu/libc.so.6
memcmp                                            /lib/x86_64-linux-gnu/libc.so.6
                                                  /home/born/DPDK-OVS/DPDK-1.6.0/build/lib/librte_cmdline.a(cmdline.o)
                                                  /home/born/DPDK-OVS/DPDK-1.6.0/build/lib/librte_eal.a(eal_pci.o)
                                                  /home/born/DPDK-OVS/DPDK-1.6.0/build/lib/libethdev.a(rte_ethdev.o)
memcmp@@GLIBC_2.2.5                               /lib/x86_64-linux-gnu/libc.so.6
memcmp@GLIBC_2.2.5                                /lib/x86_64-linux-gnu/libc.so.6
memcpy                                            /lib/x86_64-linux-gnu/libc.so.6
                                                  /home/born/DPDK-OVS/DPDK-1.6.0/build/lib/librte_cmdline.a(cmdline_cirbuf.o)
                                                  /home/born/DPDK-OVS/DPDK-1.6.0/build/lib/librte_cmdline.a(cmdline_rdline.o)
                                                  /home/born/DPDK-OVS/DPDK-1.6.0/build/lib/librte_cmdline.a(cmdline_parse_string.o)
                                                  /home/born/DPDK-OVS/DPDK-1.6.0/build/lib/librte_eal.a(eal_common_log.o)
                                                  /home/born/DPDK-OVS/DPDK-1.6.0/build/lib/librte_eal.a(eal_ivshmem.o)
                                                  /home/born/DPDK-OVS/DPDK-1.6.0/build/lib/librte_eal.a(eal.o)
                                                  /home/born/DPDK-OVS/DPDK-1.6.0/build/lib/librte_mempool.a(rte_mempool.o)
                                                  /home/born/DPDK-OVS/DPDK-1.6.0/build/lib/librte_pmd_ixgbe.a(ixgbe_common.o)
                                                  /home/born/DPDK-OVS/DPDK-1.6.0/build/lib/librte_pmd_e1000.a(e1000_nvm.o)
memcpy@@GLIBC_2.14                                /lib/x86_64-linux-gnu/libc.so.6
memcpy@GLIBC_2.14                                 /lib/x86_64-linux-gnu/libc.so.6
                                                  /lib/x86_64-linux-gnu/libpthread.so.0
                                                  /usr/lib/gcc/x86_64-linux-gnu/4.6/../../../x86_64-linux-gnu/librt.so
mempcpy                                           /lib/x86_64-linux-gnu/libc.so.6
mempcpy@@GLIBC_2.2.5                              /lib/x86_64-linux-gnu/libc.so.6
mempcpy@GLIBC_2.2.5                               /lib/x86_64-linux-gnu/libc.so.6
                                                  /lib/x86_64-linux-gnu/libpthread.so.0
                                                  /usr/lib/gcc/x86_64-linux-gnu/4.6/../../../x86_64-linux-gnu/librt.so
mempool_anon_create                               mempool_anon.o
                                                  testpmd.o
memset                                            /lib/x86_64-linux-gnu/libc.so.6
                                                  /home/born/DPDK-OVS/DPDK-1.6.0/build/lib/librte_cmdline.a(cmdline_rdline.o)
                                                  /home/born/DPDK-OVS/DPDK-1.6.0/build/lib/librte_cmdline.a(cmdline.o)
                                                  /home/born/DPDK-OVS/DPDK-1.6.0/build/lib/librte_eal.a(eal_common_memzone.o)
                                                  /home/born/DPDK-OVS/DPDK-1.6.0/build/lib/librte_eal.a(eal_ivshmem.o)
                                                  /home/born/DPDK-OVS/DPDK-1.6.0/build/lib/librte_eal.a(eal_memory.o)
                                                  /home/born/DPDK-OVS/DPDK-1.6.0/build/lib/librte_mempool.a(rte_mempool.o)
                                                  /home/born/DPDK-OVS/DPDK-1.6.0/build/lib/librte_malloc.a(rte_malloc.o)
                                                  /home/born/DPDK-OVS/DPDK-1.6.0/build/lib/libethdev.a(rte_ethdev.o)
                                                  /home/born/DPDK-OVS/DPDK-1.6.0/build/lib/librte_pmd_vmxnet3.a(vmxnet3_rxtx.o)
                                                  /home/born/DPDK-OVS/DPDK-1.6.0/build/lib/librte_pmd_vmxnet3.a(vmxnet3_ethdev.o)
                                                  /home/born/DPDK-OVS/DPDK-1.6.0/build/lib/librte_pmd_virtio.a(virtio_rxtx.o)
                                                  /home/born/DPDK-OVS/DPDK-1.6.0/build/lib/librte_pmd_virtio.a(virtio_ethdev.o)
                                                  /home/born/DPDK-OVS/DPDK-1.6.0/build/lib/librte_pmd_ixgbe.a(ixgbe_rxtx.o)
memset@@GLIBC_2.2.5                               /lib/x86_64-linux-gnu/libc.so.6
memset@GLIBC_2.2.5                                /lib/x86_64-linux-gnu/libc.so.6
                                                  /lib/x86_64-linux-gnu/libpthread.so.0
mkdir                                             /lib/x86_64-linux-gnu/libc.so.6
mkdir@@GLIBC_2.2.5                                /lib/x86_64-linux-gnu/libc.so.6
mkdir@GLIBC_2.2.5                                 /lib/x86_64-linux-gnu/libc.so.6
mkostemp64                                        /lib/x86_64-linux-gnu/libc.so.6
mkostemp64@@GLIBC_2.7                             /lib/x86_64-linux-gnu/libc.so.6
mkostemp64@GLIBC_2.7                              /lib/x86_64-linux-gnu/libc.so.6
mkstemp64                                         /lib/x86_64-linux-gnu/libc.so.6
mkstemp64@@GLIBC_2.2.5                            /lib/x86_64-linux-gnu/libc.so.6
mkstemp64@GLIBC_2.2.5                             /lib/x86_64-linux-gnu/libc.so.6
mmap                                              /lib/x86_64-linux-gnu/libc.so.6
                                                  /home/born/DPDK-OVS/DPDK-1.6.0/build/lib/librte_eal.a(eal_ivshmem.o)
                                                  /home/born/DPDK-OVS/DPDK-1.6.0/build/lib/librte_eal.a(eal_pci.o)
                                                  /home/born/DPDK-OVS/DPDK-1.6.0/build/lib/librte_eal.a(eal_memory.o)
                                                  /home/born/DPDK-OVS/DPDK-1.6.0/build/lib/librte_eal.a(eal.o)
                                                  mempool_anon.o
mmap64                                            /lib/x86_64-linux-gnu/libc.so.6
mmap64@@GLIBC_2.2.5                               /lib/x86_64-linux-gnu/libc.so.6
mmap64@GLIBC_2.2.5                                /lib/x86_64-linux-gnu/libc.so.6
mmap@@GLIBC_2.2.5                                 /lib/x86_64-linux-gnu/libc.so.6
mmap@GLIBC_2.2.5                                  /lib/x86_64-linux-gnu/libc.so.6
                                                  /lib/x86_64-linux-gnu/libpthread.so.0
modf                                              /lib/x86_64-linux-gnu/libc.so.6
modf@@GLIBC_2.2.5                                 /lib/x86_64-linux-gnu/libc.so.6
modf@GLIBC_2.2.5                                  /lib/x86_64-linux-gnu/libc.so.6
modff                                             /lib/x86_64-linux-gnu/libc.so.6
modff@@GLIBC_2.2.5                                /lib/x86_64-linux-gnu/libc.so.6
modff@GLIBC_2.2.5                                 /lib/x86_64-linux-gnu/libc.so.6
modfl                                             /lib/x86_64-linux-gnu/libc.so.6
modfl@@GLIBC_2.2.5                                /lib/x86_64-linux-gnu/libc.so.6
modfl@GLIBC_2.2.5                                 /lib/x86_64-linux-gnu/libc.so.6
modify_ldt                                        /lib/x86_64-linux-gnu/libc.so.6
modify_ldt@@GLIBC_2.2.5                           /lib/x86_64-linux-gnu/libc.so.6
modify_ldt@GLIBC_2.2.5                            /lib/x86_64-linux-gnu/libc.so.6
moncontrol                                        /lib/x86_64-linux-gnu/libc.so.6
moncontrol@@GLIBC_2.2.5                           /lib/x86_64-linux-gnu/libc.so.6
moncontrol@GLIBC_2.2.5                            /lib/x86_64-linux-gnu/libc.so.6
monstartup                                        /lib/x86_64-linux-gnu/libc.so.6
monstartup@@GLIBC_2.2.5                           /lib/x86_64-linux-gnu/libc.so.6
monstartup@GLIBC_2.2.5                            /lib/x86_64-linux-gnu/libc.so.6
mount                                             /lib/x86_64-linux-gnu/libc.so.6
mount@@GLIBC_2.2.5                                /lib/x86_64-linux-gnu/libc.so.6
mount@GLIBC_2.2.5                                 /lib/x86_64-linux-gnu/libc.so.6
mp_anon                                           testpmd.o
                                                  config.o
                                                  parameters.o
mprotect                                          /lib/x86_64-linux-gnu/libc.so.6
mprotect@@GLIBC_2.2.5                             /lib/x86_64-linux-gnu/libc.so.6
mprotect@GLIBC_2.2.5                              /lib/x86_64-linux-gnu/libc.so.6
                                                  /lib/x86_64-linux-gnu/libpthread.so.0
mq_setattr                                        /usr/lib/gcc/x86_64-linux-gnu/4.6/../../../x86_64-linux-gnu/librt.so
mq_setattr@@GLIBC_2.3.4                           /usr/lib/gcc/x86_64-linux-gnu/4.6/../../../x86_64-linux-gnu/librt.so
mq_setattr@GLIBC_2.3.4                            /usr/lib/gcc/x86_64-linux-gnu/4.6/../../../x86_64-linux-gnu/librt.so
mq_timedreceive                                   /usr/lib/gcc/x86_64-linux-gnu/4.6/../../../x86_64-linux-gnu/librt.so
mq_timedreceive@@GLIBC_2.3.4                      /usr/lib/gcc/x86_64-linux-gnu/4.6/../../../x86_64-linux-gnu/librt.so
mq_timedreceive@GLIBC_2.3.4                       /usr/lib/gcc/x86_64-linux-gnu/4.6/../../../x86_64-linux-gnu/librt.so
mq_timedsend                                      /usr/lib/gcc/x86_64-linux-gnu/4.6/../../../x86_64-linux-gnu/librt.so
mq_timedsend@@GLIBC_2.3.4                         /usr/lib/gcc/x86_64-linux-gnu/4.6/../../../x86_64-linux-gnu/librt.so
mq_timedsend@GLIBC_2.3.4                          /usr/lib/gcc/x86_64-linux-gnu/4.6/../../../x86_64-linux-gnu/librt.so
mremap                                            /lib/x86_64-linux-gnu/libc.so.6
mremap@@GLIBC_2.2.5                               /lib/x86_64-linux-gnu/libc.so.6
mremap@GLIBC_2.2.5                                /lib/x86_64-linux-gnu/libc.so.6
msgctl                                            /lib/x86_64-linux-gnu/libc.so.6
msgctl@@GLIBC_2.2.5                               /lib/x86_64-linux-gnu/libc.so.6
msgctl@GLIBC_2.2.5                                /lib/x86_64-linux-gnu/libc.so.6
msgget                                            /lib/x86_64-linux-gnu/libc.so.6
msgget@@GLIBC_2.2.5                               /lib/x86_64-linux-gnu/libc.so.6
msgget@GLIBC_2.2.5                                /lib/x86_64-linux-gnu/libc.so.6
msgrcv                                            /lib/x86_64-linux-gnu/libc.so.6
msgrcv@@GLIBC_2.2.5                               /lib/x86_64-linux-gnu/libc.so.6
msgrcv@GLIBC_2.2.5                                /lib/x86_64-linux-gnu/libc.so.6
msgsnd                                            /lib/x86_64-linux-gnu/libc.so.6
msgsnd@@GLIBC_2.2.5                               /lib/x86_64-linux-gnu/libc.so.6
msgsnd@GLIBC_2.2.5                                /lib/x86_64-linux-gnu/libc.so.6
msync                                             /lib/x86_64-linux-gnu/libpthread.so.0
msync@@GLIBC_2.2.5                                /lib/x86_64-linux-gnu/libpthread.so.0
                                                  /lib/x86_64-linux-gnu/libc.so.6
msync@GLIBC_2.2.5                                 /lib/x86_64-linux-gnu/libpthread.so.0
munmap                                            /lib/x86_64-linux-gnu/libc.so.6
                                                  /home/born/DPDK-OVS/DPDK-1.6.0/build/lib/librte_eal.a(eal_ivshmem.o)
                                                  /home/born/DPDK-OVS/DPDK-1.6.0/build/lib/librte_eal.a(eal_memory.o)
                                                  mempool_anon.o
munmap@@GLIBC_2.2.5                               /lib/x86_64-linux-gnu/libc.so.6
munmap@GLIBC_2.2.5                                /lib/x86_64-linux-gnu/libc.so.6
                                                  /lib/x86_64-linux-gnu/libpthread.so.0
nanosleep                                         /lib/x86_64-linux-gnu/libpthread.so.0
                                                  /home/born/DPDK-OVS/DPDK-1.6.0/build/lib/librte_eal.a(eal_timer.o)
nanosleep@@GLIBC_2.2.5                            /lib/x86_64-linux-gnu/libpthread.so.0
                                                  /lib/x86_64-linux-gnu/libc.so.6
nanosleep@GLIBC_2.2.5                             /lib/x86_64-linux-gnu/libpthread.so.0
nb_cfg_lcores                                     config.o
                                                  testpmd.o
nb_cfg_ports                                      config.o
                                                  testpmd.o
nb_fwd_lcores                                     config.o
                                                  parameters.o
                                                  testpmd.o
nb_fwd_ports                                      config.o
                                                  parameters.o
                                                  testpmd.o
nb_fwd_streams                                    testpmd.o
nb_lcores                                         parameters.o
                                                  testpmd.o
nb_peer_eth_addrs                                 testpmd.o
                                                  parameters.o
nb_pkt_per_burst                                  testpmd.o
                                                  csumonly.o
                                                  txonly.o
                                                  rxonly.o
                                                  macfwd-retry.o
                                                  macfwd.o
                                                  iofwd.o
                                                  config.o
                                                  cmdline.o
                                                  parameters.o
nb_ports                                          config.o
                                                  cmdline.o
                                                  parameters.o
                                                  testpmd.o
nb_rx_queue_stats_mappings                        testpmd.o
                                                  config.o
                                                  parameters.o
nb_rxd                                            testpmd.o
                                                  config.o
                                                  cmdline.o
                                                  parameters.o
nb_rxq                                            testpmd.o
                                                  config.o
                                                  cmdline.o
                                                  parameters.o
nb_tx_queue_stats_mappings                        testpmd.o
                                                  config.o
                                                  parameters.o
nb_txd                                            testpmd.o
                                                  config.o
                                                  cmdline.o
                                                  parameters.o
nb_txq                                            testpmd.o
                                                  config.o
                                                  cmdline.o
                                                  parameters.o
newlocale                                         /lib/x86_64-linux-gnu/libc.so.6
newlocale@@GLIBC_2.3                              /lib/x86_64-linux-gnu/libc.so.6
newlocale@GLIBC_2.3                               /lib/x86_64-linux-gnu/libc.so.6
ngettext                                          /lib/x86_64-linux-gnu/libc.so.6
ngettext@@GLIBC_2.2.5                             /lib/x86_64-linux-gnu/libc.so.6
ngettext@GLIBC_2.2.5                              /lib/x86_64-linux-gnu/libc.so.6
nic_stats_clear                                   config.o
                                                  cmdline.o
nic_stats_display                                 config.o
                                                  cmdline.o
nic_stats_mapping_display                         config.o
                                                  cmdline.o
nl_langinfo_l                                     /lib/x86_64-linux-gnu/libc.so.6
nl_langinfo_l@@GLIBC_2.3                          /lib/x86_64-linux-gnu/libc.so.6
nl_langinfo_l@GLIBC_2.3                           /lib/x86_64-linux-gnu/libc.so.6
no_flush_rx                                       testpmd.o
                                                  cmdline.o
                                                  parameters.o
nrand48_r                                         /lib/x86_64-linux-gnu/libc.so.6
nrand48_r@@GLIBC_2.2.5                            /lib/x86_64-linux-gnu/libc.so.6
nrand48_r@GLIBC_2.2.5                             /lib/x86_64-linux-gnu/libc.so.6
ntohl                                             /lib/x86_64-linux-gnu/libc.so.6
ntohl@@GLIBC_2.2.5                                /lib/x86_64-linux-gnu/libc.so.6
ntohl@GLIBC_2.2.5                                 /lib/x86_64-linux-gnu/libc.so.6
ntohs                                             /lib/x86_64-linux-gnu/libc.so.6
ntohs@@GLIBC_2.2.5                                /lib/x86_64-linux-gnu/libc.so.6
ntohs@GLIBC_2.2.5                                 /lib/x86_64-linux-gnu/libc.so.6
ntp_adjtime                                       /lib/x86_64-linux-gnu/libc.so.6
ntp_adjtime@@GLIBC_2.2.5                          /lib/x86_64-linux-gnu/libc.so.6
ntp_adjtime@GLIBC_2.2.5                           /lib/x86_64-linux-gnu/libc.so.6
numa_support                                      testpmd.o
                                                  config.o
                                                  parameters.o
obstack_printf                                    /lib/x86_64-linux-gnu/libc.so.6
obstack_printf@@GLIBC_2.2.5                       /lib/x86_64-linux-gnu/libc.so.6
obstack_printf@GLIBC_2.2.5                        /lib/x86_64-linux-gnu/libc.so.6
obstack_vprintf                                   /lib/x86_64-linux-gnu/libc.so.6
obstack_vprintf@@GLIBC_2.2.5                      /lib/x86_64-linux-gnu/libc.so.6
obstack_vprintf@GLIBC_2.2.5                       /lib/x86_64-linux-gnu/libc.so.6
on_exit                                           /lib/x86_64-linux-gnu/libc.so.6
on_exit@@GLIBC_2.2.5                              /lib/x86_64-linux-gnu/libc.so.6
on_exit@GLIBC_2.2.5                               /lib/x86_64-linux-gnu/libc.so.6
open                                              /lib/x86_64-linux-gnu/libpthread.so.0
                                                  /home/born/DPDK-OVS/DPDK-1.6.0/build/lib/librte_cmdline.a(cmdline_socket.o)
                                                  /home/born/DPDK-OVS/DPDK-1.6.0/build/lib/librte_eal.a(eal_ivshmem.o)
                                                  /home/born/DPDK-OVS/DPDK-1.6.0/build/lib/librte_eal.a(eal_pci.o)
                                                  /home/born/DPDK-OVS/DPDK-1.6.0/build/lib/librte_eal.a(eal_memory.o)
                                                  /home/born/DPDK-OVS/DPDK-1.6.0/build/lib/librte_eal.a(eal_hugepage_info.o)
                                                  /home/born/DPDK-OVS/DPDK-1.6.0/build/lib/librte_eal.a(eal.o)
                                                  mempool_anon.o
open64                                            /lib/x86_64-linux-gnu/libpthread.so.0
open64@@GLIBC_2.2.5                               /lib/x86_64-linux-gnu/libpthread.so.0
                                                  /lib/x86_64-linux-gnu/libc.so.6
open64@GLIBC_2.2.5                                /lib/x86_64-linux-gnu/libpthread.so.0
open@@GLIBC_2.2.5                                 /lib/x86_64-linux-gnu/libpthread.so.0
                                                  /lib/x86_64-linux-gnu/libc.so.6
open@GLIBC_2.2.5                                  /lib/x86_64-linux-gnu/libpthread.so.0
                                                  /usr/lib/gcc/x86_64-linux-gnu/4.6/../../../x86_64-linux-gnu/librt.so
openat                                            /lib/x86_64-linux-gnu/libc.so.6
                                                  /home/born/DPDK-OVS/DPDK-1.6.0/build/lib/librte_eal.a(eal_hugepage_info.o)
openat64                                          /lib/x86_64-linux-gnu/libc.so.6
openat64@@GLIBC_2.4                               /lib/x86_64-linux-gnu/libc.so.6
openat64@GLIBC_2.4                                /lib/x86_64-linux-gnu/libc.so.6
openat@@GLIBC_2.4                                 /lib/x86_64-linux-gnu/libc.so.6
openat@GLIBC_2.4                                  /lib/x86_64-linux-gnu/libc.so.6
opendir                                           /lib/x86_64-linux-gnu/libc.so.6
                                                  /home/born/DPDK-OVS/DPDK-1.6.0/build/lib/librte_eal.a(eal_lcore.o)
                                                  /home/born/DPDK-OVS/DPDK-1.6.0/build/lib/librte_eal.a(eal_pci.o)
                                                  /home/born/DPDK-OVS/DPDK-1.6.0/build/lib/librte_eal.a(eal_hugepage_info.o)
opendir@@GLIBC_2.2.5                              /lib/x86_64-linux-gnu/libc.so.6
opendir@GLIBC_2.2.5                               /lib/x86_64-linux-gnu/libc.so.6
openlog                                           /lib/x86_64-linux-gnu/libc.so.6
                                                  /home/born/DPDK-OVS/DPDK-1.6.0/build/lib/librte_eal.a(eal_log.o)
openlog@@GLIBC_2.2.5                              /lib/x86_64-linux-gnu/libc.so.6
openlog@GLIBC_2.2.5                               /lib/x86_64-linux-gnu/libc.so.6
param_total_num_mbufs                             testpmd.o
                                                  parameters.o
pathconf                                          /lib/x86_64-linux-gnu/libc.so.6
pathconf@@GLIBC_2.2.5                             /lib/x86_64-linux-gnu/libc.so.6
pathconf@GLIBC_2.2.5                              /lib/x86_64-linux-gnu/libc.so.6
pause                                             /lib/x86_64-linux-gnu/libpthread.so.0
pause@@GLIBC_2.2.5                                /lib/x86_64-linux-gnu/libpthread.so.0
                                                  /lib/x86_64-linux-gnu/libc.so.6
pause@GLIBC_2.2.5                                 /lib/x86_64-linux-gnu/libpthread.so.0
peer_eth_addrs                                    txonly.o
                                                  macfwd-retry.o
                                                  macfwd.o
                                                  config.o
                                                  parameters.o
                                                  testpmd.o
per_lcore__lcore_id                               /home/born/DPDK-OVS/DPDK-1.6.0/build/lib/librte_eal.a(eal_thread.o)
                                                  /home/born/DPDK-OVS/DPDK-1.6.0/build/lib/librte_pmd_ring.a(rte_eth_ring.o)
                                                  /home/born/DPDK-OVS/DPDK-1.6.0/build/lib/librte_eal.a(eal_common_log.o)
                                                  /home/born/DPDK-OVS/DPDK-1.6.0/build/lib/librte_malloc.a(rte_malloc.o)
                                                  /home/born/DPDK-OVS/DPDK-1.6.0/build/lib/libethdev.a(rte_ethdev.o)
                                                  /home/born/DPDK-OVS/DPDK-1.6.0/build/lib/librte_pmd_vmxnet3.a(vmxnet3_rxtx.o)
                                                  /home/born/DPDK-OVS/DPDK-1.6.0/build/lib/librte_pmd_vmxnet3.a(vmxnet3_ethdev.o)
                                                  /home/born/DPDK-OVS/DPDK-1.6.0/build/lib/librte_pmd_virtio.a(virtio_rxtx.o)
                                                  /home/born/DPDK-OVS/DPDK-1.6.0/build/lib/librte_pmd_virtio.a(virtio_ethdev.o)
                                                  /home/born/DPDK-OVS/DPDK-1.6.0/build/lib/librte_pmd_ixgbe.a(ixgbe_rxtx.o)
                                                  /home/born/DPDK-OVS/DPDK-1.6.0/build/lib/librte_pmd_e1000.a(em_rxtx.o)
                                                  /home/born/DPDK-OVS/DPDK-1.6.0/build/lib/librte_pmd_e1000.a(igb_rxtx.o)
                                                  csumonly.o
                                                  txonly.o
                                                  rxonly.o
                                                  macfwd-retry.o
                                                  macfwd.o
                                                  iofwd.o
                                                  testpmd.o
per_lcore__rte_errno                              /home/born/DPDK-OVS/DPDK-1.6.0/build/lib/librte_eal.a(eal_common_errno.o)
                                                  /home/born/DPDK-OVS/DPDK-1.6.0/build/lib/librte_eal.a(eal_common_memzone.o)
                                                  /home/born/DPDK-OVS/DPDK-1.6.0/build/lib/librte_eal.a(eal_alarm.o)
                                                  /home/born/DPDK-OVS/DPDK-1.6.0/build/lib/librte_ring.a(rte_ring.o)
                                                  /home/born/DPDK-OVS/DPDK-1.6.0/build/lib/librte_mempool.a(rte_mempool.o)
                                                  mempool_anon.o
perror                                            /lib/x86_64-linux-gnu/libc.so.6
                                                  parameters.o
perror@@GLIBC_2.2.5                               /lib/x86_64-linux-gnu/libc.so.6
perror@GLIBC_2.2.5                                /lib/x86_64-linux-gnu/libc.so.6
personality                                       /lib/x86_64-linux-gnu/libc.so.6
personality@@GLIBC_2.2.5                          /lib/x86_64-linux-gnu/libc.so.6
personality@GLIBC_2.2.5                           /lib/x86_64-linux-gnu/libc.so.6
pipe                                              /lib/x86_64-linux-gnu/libc.so.6
                                                  /home/born/DPDK-OVS/DPDK-1.6.0/build/lib/librte_eal.a(eal_interrupts.o)
                                                  /home/born/DPDK-OVS/DPDK-1.6.0/build/lib/librte_eal.a(eal.o)
pipe2                                             /lib/x86_64-linux-gnu/libc.so.6
pipe2@@GLIBC_2.9                                  /lib/x86_64-linux-gnu/libc.so.6
pipe2@GLIBC_2.9                                   /lib/x86_64-linux-gnu/libc.so.6
pipe@@GLIBC_2.2.5                                 /lib/x86_64-linux-gnu/libc.so.6
pipe@GLIBC_2.2.5                                  /lib/x86_64-linux-gnu/libc.so.6
pmd_test_exit                                     testpmd.o
                                                  cmdline.o
poll                                              /lib/x86_64-linux-gnu/libc.so.6
poll@@GLIBC_2.2.5                                 /lib/x86_64-linux-gnu/libc.so.6
poll@GLIBC_2.2.5                                  /lib/x86_64-linux-gnu/libc.so.6
port_infos_display                                config.o
                                                  cmdline.o
port_numa                                         csumonly.o
                                                  txonly.o
                                                  rxonly.o
                                                  macfwd-retry.o
                                                  macfwd.o
                                                  iofwd.o
                                                  config.o
                                                  cmdline.o
                                                  parameters.o
                                                  testpmd.o
port_reg_bit_display                              config.o
                                                  cmdline.o
port_reg_bit_field_display                        config.o
                                                  cmdline.o
port_reg_bit_field_set                            config.o
                                                  cmdline.o
port_reg_bit_set                                  config.o
                                                  cmdline.o
port_reg_display                                  config.o
                                                  cmdline.o
port_reg_set                                      config.o
                                                  cmdline.o
port_rss_reta_info                                config.o
                                                  cmdline.o
port_topology                                     testpmd.o
                                                  config.o
                                                  parameters.o
ports                                             csumonly.o
                                                  txonly.o
                                                  macfwd-retry.o
                                                  macfwd.o
                                                  config.o
                                                  cmdline.o
                                                  testpmd.o
posix_memalign                                    /lib/x86_64-linux-gnu/libc.so.6
posix_memalign@@GLIBC_2.2.5                       /lib/x86_64-linux-gnu/libc.so.6
posix_memalign@GLIBC_2.2.5                        /lib/x86_64-linux-gnu/libc.so.6
posix_openpt                                      /lib/x86_64-linux-gnu/libc.so.6
posix_openpt@@GLIBC_2.2.5                         /lib/x86_64-linux-gnu/libc.so.6
posix_openpt@GLIBC_2.2.5                          /lib/x86_64-linux-gnu/libc.so.6
prctl                                             /lib/x86_64-linux-gnu/libc.so.6
prctl@@GLIBC_2.2.5                                /lib/x86_64-linux-gnu/libc.so.6
prctl@GLIBC_2.2.5                                 /lib/x86_64-linux-gnu/libc.so.6
                                                  /lib/x86_64-linux-gnu/libpthread.so.0
pread                                             /lib/x86_64-linux-gnu/libpthread.so.0
                                                  mempool_anon.o
pread64                                           /lib/x86_64-linux-gnu/libpthread.so.0
pread64@@GLIBC_2.2.5                              /lib/x86_64-linux-gnu/libpthread.so.0
                                                  /lib/x86_64-linux-gnu/libc.so.6
pread64@GLIBC_2.2.5                               /lib/x86_64-linux-gnu/libpthread.so.0
pread@@GLIBC_2.2.5                                /lib/x86_64-linux-gnu/libpthread.so.0
                                                  /lib/x86_64-linux-gnu/libc.so.6
pread@GLIBC_2.2.5                                 /lib/x86_64-linux-gnu/libpthread.so.0
                                                  /usr/lib/gcc/x86_64-linux-gnu/4.6/../../../x86_64-linux-gnu/librt.so
printf                                            /lib/x86_64-linux-gnu/libc.so.6
                                                  /home/born/DPDK-OVS/DPDK-1.6.0/build/lib/librte_malloc.a(rte_malloc.o)
printf@@GLIBC_2.2.5                               /lib/x86_64-linux-gnu/libc.so.6
printf@GLIBC_2.2.5                                /lib/x86_64-linux-gnu/libc.so.6
prlimit64                                         /lib/x86_64-linux-gnu/libc.so.6
prlimit64@@GLIBC_2.13                             /lib/x86_64-linux-gnu/libc.so.6
prlimit64@GLIBC_2.13                              /lib/x86_64-linux-gnu/libc.so.6
profil                                            /lib/x86_64-linux-gnu/libc.so.6
profil@@GLIBC_2.2.5                               /lib/x86_64-linux-gnu/libc.so.6
profil@GLIBC_2.2.5                                /lib/x86_64-linux-gnu/libc.so.6
program_invocation_name                           /lib/x86_64-linux-gnu/libc.so.6
program_invocation_name@@GLIBC_2.2.5              /lib/x86_64-linux-gnu/libc.so.6
program_invocation_name@GLIBC_2.2.5               /lib/x86_64-linux-gnu/libc.so.6
program_invocation_short_name                     /lib/x86_64-linux-gnu/libc.so.6
program_invocation_short_name@@GLIBC_2.2.5        /lib/x86_64-linux-gnu/libc.so.6
program_invocation_short_name@GLIBC_2.2.5         /lib/x86_64-linux-gnu/libc.so.6
prompt                                            cmdline.o
                                                  testpmd.o
pselect                                           /lib/x86_64-linux-gnu/libc.so.6
pselect@@GLIBC_2.2.5                              /lib/x86_64-linux-gnu/libc.so.6
pselect@GLIBC_2.2.5                               /lib/x86_64-linux-gnu/libc.so.6
pthread_create                                    /lib/x86_64-linux-gnu/libpthread.so.0
                                                  /home/born/DPDK-OVS/DPDK-1.6.0/build/lib/librte_eal.a(eal_interrupts.o)
                                                  /home/born/DPDK-OVS/DPDK-1.6.0/build/lib/librte_eal.a(eal.o)
pthread_create@@GLIBC_2.2.5                       /lib/x86_64-linux-gnu/libpthread.so.0
pthread_create@GLIBC_2.2.5                        /lib/x86_64-linux-gnu/libpthread.so.0
                                                  /usr/lib/gcc/x86_64-linux-gnu/4.6/../../../x86_64-linux-gnu/librt.so
pthread_mutex_consistent_np                       /lib/x86_64-linux-gnu/libpthread.so.0
pthread_mutex_consistent_np@@GLIBC_2.4            /lib/x86_64-linux-gnu/libpthread.so.0
pthread_mutex_consistent_np@GLIBC_2.4             /lib/x86_64-linux-gnu/libpthread.so.0
pthread_mutexattr_getkind_np                      /lib/x86_64-linux-gnu/libpthread.so.0
pthread_mutexattr_getkind_np@@GLIBC_2.2.5         /lib/x86_64-linux-gnu/libpthread.so.0
pthread_mutexattr_getkind_np@GLIBC_2.2.5          /lib/x86_64-linux-gnu/libpthread.so.0
pthread_mutexattr_getrobust_np                    /lib/x86_64-linux-gnu/libpthread.so.0
pthread_mutexattr_getrobust_np@@GLIBC_2.4         /lib/x86_64-linux-gnu/libpthread.so.0
pthread_mutexattr_getrobust_np@GLIBC_2.4          /lib/x86_64-linux-gnu/libpthread.so.0
pthread_mutexattr_setkind_np                      /lib/x86_64-linux-gnu/libpthread.so.0
pthread_mutexattr_setkind_np@@GLIBC_2.2.5         /lib/x86_64-linux-gnu/libpthread.so.0
pthread_mutexattr_setkind_np@GLIBC_2.2.5          /lib/x86_64-linux-gnu/libpthread.so.0
pthread_mutexattr_setrobust_np                    /lib/x86_64-linux-gnu/libpthread.so.0
pthread_mutexattr_setrobust_np@@GLIBC_2.4         /lib/x86_64-linux-gnu/libpthread.so.0
pthread_mutexattr_setrobust_np@GLIBC_2.4          /lib/x86_64-linux-gnu/libpthread.so.0
pthread_self                                      /lib/x86_64-linux-gnu/libpthread.so.0
                                                  /home/born/DPDK-OVS/DPDK-1.6.0/build/lib/librte_eal.a(eal_thread.o)
                                                  /home/born/DPDK-OVS/DPDK-1.6.0/build/lib/librte_eal.a(eal.o)
pthread_self@@GLIBC_2.2.5                         /lib/x86_64-linux-gnu/libpthread.so.0
                                                  /lib/x86_64-linux-gnu/libc.so.6
pthread_self@GLIBC_2.2.5                          /lib/x86_64-linux-gnu/libpthread.so.0
                                                  /usr/lib/gcc/x86_64-linux-gnu/4.6/../../../x86_64-linux-gnu/librt.so
pthread_setaffinity_np                            /lib/x86_64-linux-gnu/libpthread.so.0
                                                  /home/born/DPDK-OVS/DPDK-1.6.0/build/lib/librte_eal.a(eal_thread.o)
pthread_setaffinity_np@@GLIBC_2.3.4               /lib/x86_64-linux-gnu/libpthread.so.0
pthread_setaffinity_np@GLIBC_2.3.4                /lib/x86_64-linux-gnu/libpthread.so.0
ptsname_r                                         /lib/x86_64-linux-gnu/libc.so.6
ptsname_r@@GLIBC_2.2.5                            /lib/x86_64-linux-gnu/libc.so.6
ptsname_r@GLIBC_2.2.5                             /lib/x86_64-linux-gnu/libc.so.6
putc                                              /lib/x86_64-linux-gnu/libc.so.6
putc@@GLIBC_2.2.5                                 /lib/x86_64-linux-gnu/libc.so.6
putc@GLIBC_2.2.5                                  /lib/x86_64-linux-gnu/libc.so.6
putchar                                           /lib/x86_64-linux-gnu/libc.so.6
                                                  rxonly.o
                                                  config.o
                                                  testpmd.o
putchar@@GLIBC_2.2.5                              /lib/x86_64-linux-gnu/libc.so.6
putchar@GLIBC_2.2.5                               /lib/x86_64-linux-gnu/libc.so.6
puts                                              /lib/x86_64-linux-gnu/libc.so.6
                                                  /home/born/DPDK-OVS/DPDK-1.6.0/build/lib/librte_eal.a(eal_log.o)
                                                  /home/born/DPDK-OVS/DPDK-1.6.0/build/lib/librte_eal.a(eal.o)
                                                  /home/born/DPDK-OVS/DPDK-1.6.0/build/lib/librte_ring.a(rte_ring.o)
                                                  /home/born/DPDK-OVS/DPDK-1.6.0/build/lib/librte_mempool.a(rte_mempool.o)
                                                  csumonly.o
                                                  config.o
                                                  cmdline.o
                                                  parameters.o
                                                  testpmd.o
puts@@GLIBC_2.2.5                                 /lib/x86_64-linux-gnu/libc.so.6
puts@GLIBC_2.2.5                                  /lib/x86_64-linux-gnu/libc.so.6
pututline                                         /lib/x86_64-linux-gnu/libc.so.6
pututline@@GLIBC_2.2.5                            /lib/x86_64-linux-gnu/libc.so.6
pututline@GLIBC_2.2.5                             /lib/x86_64-linux-gnu/libc.so.6
pvalloc                                           /lib/x86_64-linux-gnu/libc.so.6
pvalloc@@GLIBC_2.2.5                              /lib/x86_64-linux-gnu/libc.so.6
pvalloc@GLIBC_2.2.5                               /lib/x86_64-linux-gnu/libc.so.6
pwrite                                            /lib/x86_64-linux-gnu/libpthread.so.0
pwrite64                                          /lib/x86_64-linux-gnu/libpthread.so.0
pwrite64@@GLIBC_2.2.5                             /lib/x86_64-linux-gnu/libpthread.so.0
                                                  /lib/x86_64-linux-gnu/libc.so.6
pwrite64@GLIBC_2.2.5                              /lib/x86_64-linux-gnu/libpthread.so.0
pwrite@@GLIBC_2.2.5                               /lib/x86_64-linux-gnu/libpthread.so.0
                                                  /lib/x86_64-linux-gnu/libc.so.6
pwrite@GLIBC_2.2.5                                /lib/x86_64-linux-gnu/libpthread.so.0
qsort                                             /lib/x86_64-linux-gnu/libc.so.6
                                                  /home/born/DPDK-OVS/DPDK-1.6.0/build/lib/librte_eal.a(eal_ivshmem.o)
qsort@@GLIBC_2.2.5                                /lib/x86_64-linux-gnu/libc.so.6
qsort@GLIBC_2.2.5                                 /lib/x86_64-linux-gnu/libc.so.6
random                                            /lib/x86_64-linux-gnu/libc.so.6
random@@GLIBC_2.2.5                               /lib/x86_64-linux-gnu/libc.so.6
random@GLIBC_2.2.5                                /lib/x86_64-linux-gnu/libc.so.6
random_r                                          /lib/x86_64-linux-gnu/libc.so.6
random_r@@GLIBC_2.2.5                             /lib/x86_64-linux-gnu/libc.so.6
random_r@GLIBC_2.2.5                              /lib/x86_64-linux-gnu/libc.so.6
rdline_add_history                                /home/born/DPDK-OVS/DPDK-1.6.0/build/lib/librte_cmdline.a(cmdline_rdline.o)
                                                  /home/born/DPDK-OVS/DPDK-1.6.0/build/lib/librte_cmdline.a(cmdline.o)
rdline_char_in                                    /home/born/DPDK-OVS/DPDK-1.6.0/build/lib/librte_cmdline.a(cmdline_rdline.o)
                                                  /home/born/DPDK-OVS/DPDK-1.6.0/build/lib/librte_cmdline.a(cmdline.o)
rdline_clear_history                              /home/born/DPDK-OVS/DPDK-1.6.0/build/lib/librte_cmdline.a(cmdline_rdline.o)
rdline_get_buffer                                 /home/born/DPDK-OVS/DPDK-1.6.0/build/lib/librte_cmdline.a(cmdline_rdline.o)
                                                  /home/born/DPDK-OVS/DPDK-1.6.0/build/lib/librte_cmdline.a(cmdline.o)
rdline_get_history_item                           /home/born/DPDK-OVS/DPDK-1.6.0/build/lib/librte_cmdline.a(cmdline_rdline.o)
                                                  /home/born/DPDK-OVS/DPDK-1.6.0/build/lib/librte_cmdline.a(cmdline.o)
rdline_init                                       /home/born/DPDK-OVS/DPDK-1.6.0/build/lib/librte_cmdline.a(cmdline_rdline.o)
                                                  /home/born/DPDK-OVS/DPDK-1.6.0/build/lib/librte_cmdline.a(cmdline.o)
rdline_newline                                    /home/born/DPDK-OVS/DPDK-1.6.0/build/lib/librte_cmdline.a(cmdline_rdline.o)
                                                  /home/born/DPDK-OVS/DPDK-1.6.0/build/lib/librte_cmdline.a(cmdline.o)
rdline_quit                                       /home/born/DPDK-OVS/DPDK-1.6.0/build/lib/librte_cmdline.a(cmdline_rdline.o)
                                                  /home/born/DPDK-OVS/DPDK-1.6.0/build/lib/librte_cmdline.a(cmdline.o)
rdline_redisplay                                  /home/born/DPDK-OVS/DPDK-1.6.0/build/lib/librte_cmdline.a(cmdline_rdline.o)
rdline_reset                                      /home/born/DPDK-OVS/DPDK-1.6.0/build/lib/librte_cmdline.a(cmdline_rdline.o)
rdline_restart                                    /home/born/DPDK-OVS/DPDK-1.6.0/build/lib/librte_cmdline.a(cmdline_rdline.o)
rdline_stop                                       /home/born/DPDK-OVS/DPDK-1.6.0/build/lib/librte_cmdline.a(cmdline_rdline.o)
re_comp                                           /lib/x86_64-linux-gnu/libc.so.6
re_comp@@GLIBC_2.2.5                              /lib/x86_64-linux-gnu/libc.so.6
re_comp@GLIBC_2.2.5                               /lib/x86_64-linux-gnu/libc.so.6
re_compile_fastmap                                /lib/x86_64-linux-gnu/libc.so.6
re_compile_fastmap@@GLIBC_2.2.5                   /lib/x86_64-linux-gnu/libc.so.6
re_compile_fastmap@GLIBC_2.2.5                    /lib/x86_64-linux-gnu/libc.so.6
re_compile_pattern                                /lib/x86_64-linux-gnu/libc.so.6
re_compile_pattern@@GLIBC_2.2.5                   /lib/x86_64-linux-gnu/libc.so.6
re_compile_pattern@GLIBC_2.2.5                    /lib/x86_64-linux-gnu/libc.so.6
re_exec                                           /lib/x86_64-linux-gnu/libc.so.6
re_exec@@GLIBC_2.2.5                              /lib/x86_64-linux-gnu/libc.so.6
re_exec@GLIBC_2.2.5                               /lib/x86_64-linux-gnu/libc.so.6
re_match                                          /lib/x86_64-linux-gnu/libc.so.6
re_match@@GLIBC_2.2.5                             /lib/x86_64-linux-gnu/libc.so.6
re_match@GLIBC_2.2.5                              /lib/x86_64-linux-gnu/libc.so.6
re_match_2                                        /lib/x86_64-linux-gnu/libc.so.6
re_match_2@@GLIBC_2.2.5                           /lib/x86_64-linux-gnu/libc.so.6
re_match_2@GLIBC_2.2.5                            /lib/x86_64-linux-gnu/libc.so.6
re_search                                         /lib/x86_64-linux-gnu/libc.so.6
re_search@@GLIBC_2.2.5                            /lib/x86_64-linux-gnu/libc.so.6
re_search@GLIBC_2.2.5                             /lib/x86_64-linux-gnu/libc.so.6
re_search_2                                       /lib/x86_64-linux-gnu/libc.so.6
re_search_2@@GLIBC_2.2.5                          /lib/x86_64-linux-gnu/libc.so.6
re_search_2@GLIBC_2.2.5                           /lib/x86_64-linux-gnu/libc.so.6
re_set_registers                                  /lib/x86_64-linux-gnu/libc.so.6
re_set_registers@@GLIBC_2.2.5                     /lib/x86_64-linux-gnu/libc.so.6
re_set_registers@GLIBC_2.2.5                      /lib/x86_64-linux-gnu/libc.so.6
re_set_syntax                                     /lib/x86_64-linux-gnu/libc.so.6
re_set_syntax@@GLIBC_2.2.5                        /lib/x86_64-linux-gnu/libc.so.6
re_set_syntax@GLIBC_2.2.5                         /lib/x86_64-linux-gnu/libc.so.6
read                                              /lib/x86_64-linux-gnu/libpthread.so.0
                                                  /home/born/DPDK-OVS/DPDK-1.6.0/build/lib/librte_cmdline.a(cmdline.o)
                                                  /home/born/DPDK-OVS/DPDK-1.6.0/build/lib/librte_eal.a(eal_interrupts.o)
                                                  /home/born/DPDK-OVS/DPDK-1.6.0/build/lib/librte_eal.a(eal_thread.o)
                                                  /home/born/DPDK-OVS/DPDK-1.6.0/build/lib/librte_eal.a(eal_memory.o)
                                                  testpmd.o
read@@GLIBC_2.2.5                                 /lib/x86_64-linux-gnu/libpthread.so.0
                                                  /lib/x86_64-linux-gnu/libc.so.6
read@GLIBC_2.2.5                                  /lib/x86_64-linux-gnu/libpthread.so.0
                                                  /usr/lib/gcc/x86_64-linux-gnu/4.6/../../../x86_64-linux-gnu/librt.so
readahead                                         /lib/x86_64-linux-gnu/libc.so.6
readahead@@GLIBC_2.3                              /lib/x86_64-linux-gnu/libc.so.6
readahead@GLIBC_2.3                               /lib/x86_64-linux-gnu/libc.so.6
readdir                                           /lib/x86_64-linux-gnu/libc.so.6
                                                  /home/born/DPDK-OVS/DPDK-1.6.0/build/lib/librte_eal.a(eal_lcore.o)
                                                  /home/born/DPDK-OVS/DPDK-1.6.0/build/lib/librte_eal.a(eal_pci.o)
                                                  /home/born/DPDK-OVS/DPDK-1.6.0/build/lib/librte_eal.a(eal_hugepage_info.o)
readdir64                                         /lib/x86_64-linux-gnu/libc.so.6
readdir64@@GLIBC_2.2.5                            /lib/x86_64-linux-gnu/libc.so.6
readdir64@GLIBC_2.2.5                             /lib/x86_64-linux-gnu/libc.so.6
readdir64_r                                       /lib/x86_64-linux-gnu/libc.so.6
readdir64_r@@GLIBC_2.2.5                          /lib/x86_64-linux-gnu/libc.so.6
readdir64_r@GLIBC_2.2.5                           /lib/x86_64-linux-gnu/libc.so.6
readdir@@GLIBC_2.2.5                              /lib/x86_64-linux-gnu/libc.so.6
readdir@GLIBC_2.2.5                               /lib/x86_64-linux-gnu/libc.so.6
readdir_r                                         /lib/x86_64-linux-gnu/libc.so.6
readdir_r@@GLIBC_2.2.5                            /lib/x86_64-linux-gnu/libc.so.6
readdir_r@GLIBC_2.2.5                             /lib/x86_64-linux-gnu/libc.so.6
readlink                                          /lib/x86_64-linux-gnu/libc.so.6
readlink@@GLIBC_2.2.5                             /lib/x86_64-linux-gnu/libc.so.6
readlink@GLIBC_2.2.5                              /lib/x86_64-linux-gnu/libc.so.6
readv                                             /lib/x86_64-linux-gnu/libc.so.6
readv@@GLIBC_2.2.5                                /lib/x86_64-linux-gnu/libc.so.6
readv@GLIBC_2.2.5                                 /lib/x86_64-linux-gnu/libc.so.6
recv                                              /lib/x86_64-linux-gnu/libpthread.so.0
recv@@GLIBC_2.2.5                                 /lib/x86_64-linux-gnu/libpthread.so.0
                                                  /lib/x86_64-linux-gnu/libc.so.6
recv@GLIBC_2.2.5                                  /lib/x86_64-linux-gnu/libpthread.so.0
                                                  /usr/lib/gcc/x86_64-linux-gnu/4.6/../../../x86_64-linux-gnu/librt.so
recvfrom                                          /lib/x86_64-linux-gnu/libpthread.so.0
recvfrom@@GLIBC_2.2.5                             /lib/x86_64-linux-gnu/libpthread.so.0
                                                  /lib/x86_64-linux-gnu/libc.so.6
recvfrom@GLIBC_2.2.5                              /lib/x86_64-linux-gnu/libpthread.so.0
recvmsg                                           /lib/x86_64-linux-gnu/libpthread.so.0
recvmsg@@GLIBC_2.2.5                              /lib/x86_64-linux-gnu/libpthread.so.0
                                                  /lib/x86_64-linux-gnu/libc.so.6
recvmsg@GLIBC_2.2.5                               /lib/x86_64-linux-gnu/libpthread.so.0
regcomp                                           /lib/x86_64-linux-gnu/libc.so.6
regcomp@@GLIBC_2.2.5                              /lib/x86_64-linux-gnu/libc.so.6
regcomp@GLIBC_2.2.5                               /lib/x86_64-linux-gnu/libc.so.6
regerror                                          /lib/x86_64-linux-gnu/libc.so.6
regerror@@GLIBC_2.2.5                             /lib/x86_64-linux-gnu/libc.so.6
regerror@GLIBC_2.2.5                              /lib/x86_64-linux-gnu/libc.so.6
regfree                                           /lib/x86_64-linux-gnu/libc.so.6
regfree@@GLIBC_2.2.5                              /lib/x86_64-linux-gnu/libc.so.6
regfree@GLIBC_2.2.5                               /lib/x86_64-linux-gnu/libc.so.6
register_printf_function                          /lib/x86_64-linux-gnu/libc.so.6
register_printf_function@@GLIBC_2.2.5             /lib/x86_64-linux-gnu/libc.so.6
register_printf_function@GLIBC_2.2.5              /lib/x86_64-linux-gnu/libc.so.6
register_printf_modifier                          /lib/x86_64-linux-gnu/libc.so.6
register_printf_modifier@@GLIBC_2.10              /lib/x86_64-linux-gnu/libc.so.6
register_printf_modifier@GLIBC_2.10               /lib/x86_64-linux-gnu/libc.so.6
register_printf_specifier                         /lib/x86_64-linux-gnu/libc.so.6
register_printf_specifier@@GLIBC_2.10             /lib/x86_64-linux-gnu/libc.so.6
register_printf_specifier@GLIBC_2.10              /lib/x86_64-linux-gnu/libc.so.6
register_printf_type                              /lib/x86_64-linux-gnu/libc.so.6
register_printf_type@@GLIBC_2.10                  /lib/x86_64-linux-gnu/libc.so.6
register_printf_type@GLIBC_2.10                   /lib/x86_64-linux-gnu/libc.so.6
remap_file_pages                                  /lib/x86_64-linux-gnu/libc.so.6
remap_file_pages@@GLIBC_2.3.3                     /lib/x86_64-linux-gnu/libc.so.6
remap_file_pages@GLIBC_2.3.3                      /lib/x86_64-linux-gnu/libc.so.6
rindex                                            /lib/x86_64-linux-gnu/libc.so.6
rindex@@GLIBC_2.2.5                               /lib/x86_64-linux-gnu/libc.so.6
rindex@GLIBC_2.2.5                                /lib/x86_64-linux-gnu/libc.so.6
rmdir                                             /lib/x86_64-linux-gnu/libc.so.6
rmdir@@GLIBC_2.2.5                                /lib/x86_64-linux-gnu/libc.so.6
rmdir@GLIBC_2.2.5                                 /lib/x86_64-linux-gnu/libc.so.6
rss_hf                                            testpmd.o
                                                  cmdline.o
                                                  parameters.o
rte_calloc                                        /home/born/DPDK-OVS/DPDK-1.6.0/build/lib/librte_malloc.a(rte_malloc.o)
rte_calloc_socket                                 /home/born/DPDK-OVS/DPDK-1.6.0/build/lib/librte_malloc.a(rte_malloc.o)
rte_cycles_vmware_tsc_map                         /home/born/DPDK-OVS/DPDK-1.6.0/build/lib/librte_eal.a(eal_timer.o)
                                                  /home/born/DPDK-OVS/DPDK-1.6.0/build/lib/librte_eal.a(eal.o)
rte_delay_us                                      /home/born/DPDK-OVS/DPDK-1.6.0/build/lib/librte_eal.a(eal_timer.o)
                                                  /home/born/DPDK-OVS/DPDK-1.6.0/build/lib/librte_pmd_ixgbe.a(ixgbe_x540.o)
                                                  /home/born/DPDK-OVS/DPDK-1.6.0/build/lib/librte_pmd_ixgbe.a(ixgbe_82598.o)
                                                  /home/born/DPDK-OVS/DPDK-1.6.0/build/lib/librte_pmd_ixgbe.a(ixgbe_rxtx.o)
                                                  /home/born/DPDK-OVS/DPDK-1.6.0/build/lib/librte_pmd_ixgbe.a(ixgbe_mbx.o)
                                                  /home/born/DPDK-OVS/DPDK-1.6.0/build/lib/librte_pmd_ixgbe.a(ixgbe_vf.o)
                                                  /home/born/DPDK-OVS/DPDK-1.6.0/build/lib/librte_pmd_ixgbe.a(ixgbe_phy.o)
                                                  /home/born/DPDK-OVS/DPDK-1.6.0/build/lib/librte_pmd_ixgbe.a(ixgbe_82599.o)
                                                  /home/born/DPDK-OVS/DPDK-1.6.0/build/lib/librte_pmd_ixgbe.a(ixgbe_common.o)
                                                  /home/born/DPDK-OVS/DPDK-1.6.0/build/lib/librte_pmd_ixgbe.a(ixgbe_fdir.o)
                                                  /home/born/DPDK-OVS/DPDK-1.6.0/build/lib/librte_pmd_ixgbe.a(ixgbe_ethdev.o)
                                                  /home/born/DPDK-OVS/DPDK-1.6.0/build/lib/librte_pmd_e1000.a(e1000_82542.o)
                                                  /home/born/DPDK-OVS/DPDK-1.6.0/build/lib/librte_pmd_e1000.a(e1000_82540.o)
                                                  /home/born/DPDK-OVS/DPDK-1.6.0/build/lib/librte_pmd_e1000.a(e1000_80003es2lan.o)
                                                  /home/born/DPDK-OVS/DPDK-1.6.0/build/lib/librte_pmd_e1000.a(e1000_vf.o)
                                                  /home/born/DPDK-OVS/DPDK-1.6.0/build/lib/librte_pmd_e1000.a(e1000_phy.o)
                                                  /home/born/DPDK-OVS/DPDK-1.6.0/build/lib/librte_pmd_e1000.a(e1000_nvm.o)
                                                  /home/born/DPDK-OVS/DPDK-1.6.0/build/lib/librte_pmd_e1000.a(e1000_mbx.o)
                                                  /home/born/DPDK-OVS/DPDK-1.6.0/build/lib/librte_pmd_e1000.a(e1000_manage.o)
                                                  /home/born/DPDK-OVS/DPDK-1.6.0/build/lib/librte_pmd_e1000.a(e1000_mac.o)
                                                  /home/born/DPDK-OVS/DPDK-1.6.0/build/lib/librte_pmd_e1000.a(e1000_ich8lan.o)
                                                  /home/born/DPDK-OVS/DPDK-1.6.0/build/lib/librte_pmd_e1000.a(e1000_i210.o)
                                                  /home/born/DPDK-OVS/DPDK-1.6.0/build/lib/librte_pmd_e1000.a(e1000_82575.o)
                                                  /home/born/DPDK-OVS/DPDK-1.6.0/build/lib/librte_pmd_e1000.a(e1000_82571.o)
                                                  /home/born/DPDK-OVS/DPDK-1.6.0/build/lib/librte_pmd_e1000.a(e1000_82543.o)
                                                  /home/born/DPDK-OVS/DPDK-1.6.0/build/lib/librte_pmd_e1000.a(e1000_82541.o)
                                                  /home/born/DPDK-OVS/DPDK-1.6.0/build/lib/librte_pmd_e1000.a(em_ethdev.o)
                                                  /home/born/DPDK-OVS/DPDK-1.6.0/build/lib/librte_pmd_e1000.a(igb_ethdev.o)
                                                  macfwd-retry.o
                                                  testpmd.o
rte_dump_physmem_layout                           /home/born/DPDK-OVS/DPDK-1.6.0/build/lib/librte_eal.a(eal_common_memory.o)
rte_dump_registers                                /home/born/DPDK-OVS/DPDK-1.6.0/build/lib/librte_eal.a(eal_debug.o)
rte_dump_stack                                    /home/born/DPDK-OVS/DPDK-1.6.0/build/lib/librte_eal.a(eal_debug.o)
rte_dump_tailq                                    /home/born/DPDK-OVS/DPDK-1.6.0/build/lib/librte_eal.a(eal_common_tailqs.o)
rte_eal_alarm_cancel                              /home/born/DPDK-OVS/DPDK-1.6.0/build/lib/librte_eal.a(eal_alarm.o)
rte_eal_alarm_init                                /home/born/DPDK-OVS/DPDK-1.6.0/build/lib/librte_eal.a(eal_alarm.o)
                                                  /home/born/DPDK-OVS/DPDK-1.6.0/build/lib/librte_eal.a(eal.o)
rte_eal_alarm_set                                 /home/born/DPDK-OVS/DPDK-1.6.0/build/lib/librte_eal.a(eal_alarm.o)
                                                  /home/born/DPDK-OVS/DPDK-1.6.0/build/lib/librte_pmd_ixgbe.a(ixgbe_ethdev.o)
rte_eal_common_log_init                           /home/born/DPDK-OVS/DPDK-1.6.0/build/lib/librte_eal.a(eal_common_log.o)
                                                  /home/born/DPDK-OVS/DPDK-1.6.0/build/lib/librte_eal.a(eal_log.o)
rte_eal_cpu_init                                  /home/born/DPDK-OVS/DPDK-1.6.0/build/lib/librte_eal.a(eal_lcore.o)
                                                  /home/born/DPDK-OVS/DPDK-1.6.0/build/lib/librte_eal.a(eal.o)
rte_eal_get_configuration                         /home/born/DPDK-OVS/DPDK-1.6.0/build/lib/librte_eal.a(eal.o)
                                                  /home/born/DPDK-OVS/DPDK-1.6.0/build/lib/librte_eal.a(eal_common_tailqs.o)
                                                  /home/born/DPDK-OVS/DPDK-1.6.0/build/lib/librte_eal.a(eal_common_memory.o)
                                                  /home/born/DPDK-OVS/DPDK-1.6.0/build/lib/librte_eal.a(eal_common_launch.o)
                                                  /home/born/DPDK-OVS/DPDK-1.6.0/build/lib/librte_eal.a(eal_common_memzone.o)
                                                  /home/born/DPDK-OVS/DPDK-1.6.0/build/lib/librte_eal.a(eal_ivshmem.o)
                                                  /home/born/DPDK-OVS/DPDK-1.6.0/build/lib/librte_eal.a(eal_lcore.o)
                                                  /home/born/DPDK-OVS/DPDK-1.6.0/build/lib/librte_eal.a(eal_thread.o)
                                                  /home/born/DPDK-OVS/DPDK-1.6.0/build/lib/librte_eal.a(eal_memory.o)
                                                  /home/born/DPDK-OVS/DPDK-1.6.0/build/lib/librte_ring.a(rte_ring.o)
                                                  /home/born/DPDK-OVS/DPDK-1.6.0/build/lib/librte_mempool.a(rte_mempool.o)
                                                  /home/born/DPDK-OVS/DPDK-1.6.0/build/lib/librte_malloc.a(malloc_heap.o)
                                                  /home/born/DPDK-OVS/DPDK-1.6.0/build/lib/librte_malloc.a(rte_malloc.o)
                                                  /home/born/DPDK-OVS/DPDK-1.6.0/build/lib/librte_pmd_virtio.a(virtio_ethdev.o)
                                                  config.o
                                                  testpmd.o
rte_eal_get_lcore_state                           /home/born/DPDK-OVS/DPDK-1.6.0/build/lib/librte_eal.a(eal_common_launch.o)
rte_eal_get_physmem_layout                        /home/born/DPDK-OVS/DPDK-1.6.0/build/lib/librte_eal.a(eal_common_memory.o)
                                                  /home/born/DPDK-OVS/DPDK-1.6.0/build/lib/librte_eal.a(eal_common_memzone.o)
                                                  /home/born/DPDK-OVS/DPDK-1.6.0/build/lib/librte_eal.a(eal.o)
rte_eal_get_physmem_size                          /home/born/DPDK-OVS/DPDK-1.6.0/build/lib/librte_eal.a(eal_common_memory.o)
rte_eal_init                                      /home/born/DPDK-OVS/DPDK-1.6.0/build/lib/librte_eal.a(eal.o)
                                                  testpmd.o
rte_eal_intr_init                                 /home/born/DPDK-OVS/DPDK-1.6.0/build/lib/librte_eal.a(eal_interrupts.o)
                                                  /home/born/DPDK-OVS/DPDK-1.6.0/build/lib/librte_eal.a(eal.o)
rte_eal_ivshmem_init                              /home/born/DPDK-OVS/DPDK-1.6.0/build/lib/librte_eal.a(eal_ivshmem.o)
                                                  /home/born/DPDK-OVS/DPDK-1.6.0/build/lib/librte_eal.a(eal.o)
rte_eal_ivshmem_obj_init                          /home/born/DPDK-OVS/DPDK-1.6.0/build/lib/librte_eal.a(eal_ivshmem.o)
                                                  /home/born/DPDK-OVS/DPDK-1.6.0/build/lib/librte_eal.a(eal.o)
rte_eal_lcore_role                                /home/born/DPDK-OVS/DPDK-1.6.0/build/lib/librte_eal.a(eal.o)
rte_eal_log_early_init                            /home/born/DPDK-OVS/DPDK-1.6.0/build/lib/librte_eal.a(eal_log.o)
                                                  /home/born/DPDK-OVS/DPDK-1.6.0/build/lib/librte_eal.a(eal.o)
rte_eal_log_init                                  /home/born/DPDK-OVS/DPDK-1.6.0/build/lib/librte_eal.a(eal_log.o)
                                                  /home/born/DPDK-OVS/DPDK-1.6.0/build/lib/librte_eal.a(eal.o)
rte_eal_memory_init                               /home/born/DPDK-OVS/DPDK-1.6.0/build/lib/librte_eal.a(eal_memory.o)
                                                  /home/born/DPDK-OVS/DPDK-1.6.0/build/lib/librte_eal.a(eal.o)
rte_eal_memzone_init                              /home/born/DPDK-OVS/DPDK-1.6.0/build/lib/librte_eal.a(eal_common_memzone.o)
                                                  /home/born/DPDK-OVS/DPDK-1.6.0/build/lib/librte_eal.a(eal.o)
rte_eal_mp_remote_launch                          /home/born/DPDK-OVS/DPDK-1.6.0/build/lib/librte_eal.a(eal_common_launch.o)
                                                  /home/born/DPDK-OVS/DPDK-1.6.0/build/lib/librte_eal.a(eal.o)
rte_eal_mp_wait_lcore                             /home/born/DPDK-OVS/DPDK-1.6.0/build/lib/librte_eal.a(eal_common_launch.o)
                                                  /home/born/DPDK-OVS/DPDK-1.6.0/build/lib/librte_eal.a(eal.o)
                                                  testpmd.o
rte_eal_non_pci_ethdev_init                       /home/born/DPDK-OVS/DPDK-1.6.0/build/lib/librte_eal.a(eal_common_nonpci_devs.o)
                                                  /home/born/DPDK-OVS/DPDK-1.6.0/build/lib/librte_eal.a(eal.o)
rte_eal_pci_dump                                  /home/born/DPDK-OVS/DPDK-1.6.0/build/lib/librte_eal.a(eal_common_pci.o)
rte_eal_pci_init                                  /home/born/DPDK-OVS/DPDK-1.6.0/build/lib/librte_eal.a(eal_pci.o)
                                                  /home/born/DPDK-OVS/DPDK-1.6.0/build/lib/librte_eal.a(eal.o)
rte_eal_pci_probe                                 /home/born/DPDK-OVS/DPDK-1.6.0/build/lib/librte_eal.a(eal_common_pci.o)
                                                  testpmd.o
rte_eal_pci_probe_one_driver                      /home/born/DPDK-OVS/DPDK-1.6.0/build/lib/librte_eal.a(eal_pci.o)
                                                  /home/born/DPDK-OVS/DPDK-1.6.0/build/lib/librte_eal.a(eal_common_pci.o)
rte_eal_pci_register                              /home/born/DPDK-OVS/DPDK-1.6.0/build/lib/librte_eal.a(eal_common_pci.o)
                                                  /home/born/DPDK-OVS/DPDK-1.6.0/build/lib/libethdev.a(rte_ethdev.o)
rte_eal_pci_set_blacklist                         /home/born/DPDK-OVS/DPDK-1.6.0/build/lib/librte_eal.a(eal_common_pci.o)
                                                  /home/born/DPDK-OVS/DPDK-1.6.0/build/lib/librte_eal.a(eal.o)
rte_eal_pci_unregister                            /home/born/DPDK-OVS/DPDK-1.6.0/build/lib/librte_eal.a(eal_common_pci.o)
rte_eal_process_type                              /home/born/DPDK-OVS/DPDK-1.6.0/build/lib/librte_eal.a(eal.o)
                                                  /home/born/DPDK-OVS/DPDK-1.6.0/build/lib/librte_eal.a(eal_common_tailqs.o)
                                                  /home/born/DPDK-OVS/DPDK-1.6.0/build/lib/librte_eal.a(eal_common_memzone.o)
                                                  /home/born/DPDK-OVS/DPDK-1.6.0/build/lib/librte_eal.a(eal_ivshmem.o)
                                                  /home/born/DPDK-OVS/DPDK-1.6.0/build/lib/librte_eal.a(eal_pci.o)
                                                  /home/born/DPDK-OVS/DPDK-1.6.0/build/lib/librte_eal.a(eal_memory.o)
                                                  /home/born/DPDK-OVS/DPDK-1.6.0/build/lib/libethdev.a(rte_ethdev.o)
                                                  /home/born/DPDK-OVS/DPDK-1.6.0/build/lib/librte_pmd_vmxnet3.a(vmxnet3_ethdev.o)
                                                  /home/born/DPDK-OVS/DPDK-1.6.0/build/lib/librte_pmd_virtio.a(virtio_ethdev.o)
                                                  /home/born/DPDK-OVS/DPDK-1.6.0/build/lib/librte_pmd_ixgbe.a(ixgbe_ethdev.o)
                                                  /home/born/DPDK-OVS/DPDK-1.6.0/build/lib/librte_pmd_e1000.a(em_ethdev.o)
                                                  /home/born/DPDK-OVS/DPDK-1.6.0/build/lib/librte_pmd_e1000.a(igb_ethdev.o)
rte_eal_remote_launch                             /home/born/DPDK-OVS/DPDK-1.6.0/build/lib/librte_eal.a(eal_thread.o)
                                                  /home/born/DPDK-OVS/DPDK-1.6.0/build/lib/librte_eal.a(eal_common_launch.o)
                                                  testpmd.o
rte_eal_tailq_lookup                              /home/born/DPDK-OVS/DPDK-1.6.0/build/lib/librte_eal.a(eal_common_tailqs.o)
rte_eal_tailq_lookup_by_idx                       /home/born/DPDK-OVS/DPDK-1.6.0/build/lib/librte_eal.a(eal_common_tailqs.o)
                                                  /home/born/DPDK-OVS/DPDK-1.6.0/build/lib/librte_eal.a(eal_ivshmem.o)
                                                  /home/born/DPDK-OVS/DPDK-1.6.0/build/lib/librte_ring.a(rte_ring.o)
                                                  /home/born/DPDK-OVS/DPDK-1.6.0/build/lib/librte_mempool.a(rte_mempool.o)
rte_eal_tailq_reserve                             /home/born/DPDK-OVS/DPDK-1.6.0/build/lib/librte_eal.a(eal_common_tailqs.o)
rte_eal_tailq_reserve_by_idx                      /home/born/DPDK-OVS/DPDK-1.6.0/build/lib/librte_eal.a(eal_common_tailqs.o)
                                                  /home/born/DPDK-OVS/DPDK-1.6.0/build/lib/librte_eal.a(eal_pci.o)
rte_eal_tailqs_init                               /home/born/DPDK-OVS/DPDK-1.6.0/build/lib/librte_eal.a(eal_common_tailqs.o)
                                                  /home/born/DPDK-OVS/DPDK-1.6.0/build/lib/librte_eal.a(eal.o)
rte_eal_timer_init                                /home/born/DPDK-OVS/DPDK-1.6.0/build/lib/librte_eal.a(eal_timer.o)
                                                  /home/born/DPDK-OVS/DPDK-1.6.0/build/lib/librte_eal.a(eal.o)
rte_eal_wait_lcore                                /home/born/DPDK-OVS/DPDK-1.6.0/build/lib/librte_eal.a(eal_common_launch.o)
rte_em_pmd_init                                   /home/born/DPDK-OVS/DPDK-1.6.0/build/lib/librte_pmd_e1000.a(em_ethdev.o)
                                                  testpmd.o
rte_eth_allmulticast_disable                      /home/born/DPDK-OVS/DPDK-1.6.0/build/lib/libethdev.a(rte_ethdev.o)
                                                  cmdline.o
rte_eth_allmulticast_enable                       /home/born/DPDK-OVS/DPDK-1.6.0/build/lib/libethdev.a(rte_ethdev.o)
                                                  cmdline.o
rte_eth_allmulticast_get                          /home/born/DPDK-OVS/DPDK-1.6.0/build/lib/libethdev.a(rte_ethdev.o)
                                                  config.o
rte_eth_dev_allocate                              /home/born/DPDK-OVS/DPDK-1.6.0/build/lib/libethdev.a(rte_ethdev.o)
                                                  /home/born/DPDK-OVS/DPDK-1.6.0/build/lib/librte_pmd_ring.a(rte_eth_ring.o)
rte_eth_dev_callback_register                     /home/born/DPDK-OVS/DPDK-1.6.0/build/lib/libethdev.a(rte_ethdev.o)
rte_eth_dev_callback_unregister                   /home/born/DPDK-OVS/DPDK-1.6.0/build/lib/libethdev.a(rte_ethdev.o)
rte_eth_dev_close                                 /home/born/DPDK-OVS/DPDK-1.6.0/build/lib/libethdev.a(rte_ethdev.o)
                                                  testpmd.o
rte_eth_dev_configure                             /home/born/DPDK-OVS/DPDK-1.6.0/build/lib/libethdev.a(rte_ethdev.o)
                                                  testpmd.o
rte_eth_dev_count                                 /home/born/DPDK-OVS/DPDK-1.6.0/build/lib/libethdev.a(rte_ethdev.o)
                                                  testpmd.o
rte_eth_dev_fdir_add_perfect_filter               /home/born/DPDK-OVS/DPDK-1.6.0/build/lib/libethdev.a(rte_ethdev.o)
                                                  config.o
rte_eth_dev_fdir_add_signature_filter             /home/born/DPDK-OVS/DPDK-1.6.0/build/lib/libethdev.a(rte_ethdev.o)
                                                  config.o
rte_eth_dev_fdir_get_infos                        /home/born/DPDK-OVS/DPDK-1.6.0/build/lib/libethdev.a(rte_ethdev.o)
                                                  config.o
rte_eth_dev_fdir_remove_perfect_filter            /home/born/DPDK-OVS/DPDK-1.6.0/build/lib/libethdev.a(rte_ethdev.o)
                                                  config.o
rte_eth_dev_fdir_remove_signature_filter          /home/born/DPDK-OVS/DPDK-1.6.0/build/lib/libethdev.a(rte_ethdev.o)
                                                  config.o
rte_eth_dev_fdir_set_masks                        /home/born/DPDK-OVS/DPDK-1.6.0/build/lib/libethdev.a(rte_ethdev.o)
                                                  config.o
rte_eth_dev_fdir_update_perfect_filter            /home/born/DPDK-OVS/DPDK-1.6.0/build/lib/libethdev.a(rte_ethdev.o)
                                                  config.o
rte_eth_dev_fdir_update_signature_filter          /home/born/DPDK-OVS/DPDK-1.6.0/build/lib/libethdev.a(rte_ethdev.o)
                                                  config.o
rte_eth_dev_flow_ctrl_set                         /home/born/DPDK-OVS/DPDK-1.6.0/build/lib/libethdev.a(rte_ethdev.o)
                                                  cmdline.o
rte_eth_dev_get_vlan_offload                      /home/born/DPDK-OVS/DPDK-1.6.0/build/lib/libethdev.a(rte_ethdev.o)
                                                  config.o
rte_eth_dev_info_get                              /home/born/DPDK-OVS/DPDK-1.6.0/build/lib/libethdev.a(rte_ethdev.o)
                                                  testpmd.o
rte_eth_dev_mac_addr_add                          /home/born/DPDK-OVS/DPDK-1.6.0/build/lib/libethdev.a(rte_ethdev.o)
                                                  cmdline.o
rte_eth_dev_mac_addr_remove                       /home/born/DPDK-OVS/DPDK-1.6.0/build/lib/libethdev.a(rte_ethdev.o)
                                                  cmdline.o
rte_eth_dev_priority_flow_ctrl_set                /home/born/DPDK-OVS/DPDK-1.6.0/build/lib/libethdev.a(rte_ethdev.o)
                                                  cmdline.o
rte_eth_dev_rss_reta_query                        /home/born/DPDK-OVS/DPDK-1.6.0/build/lib/libethdev.a(rte_ethdev.o)
                                                  config.o
rte_eth_dev_rss_reta_update                       /home/born/DPDK-OVS/DPDK-1.6.0/build/lib/libethdev.a(rte_ethdev.o)
                                                  cmdline.o
rte_eth_dev_set_rx_queue_stats_mapping            /home/born/DPDK-OVS/DPDK-1.6.0/build/lib/libethdev.a(rte_ethdev.o)
                                                  testpmd.o
rte_eth_dev_set_tx_queue_stats_mapping            /home/born/DPDK-OVS/DPDK-1.6.0/build/lib/libethdev.a(rte_ethdev.o)
                                                  testpmd.o
rte_eth_dev_set_vf_rx                             /home/born/DPDK-OVS/DPDK-1.6.0/build/lib/libethdev.a(rte_ethdev.o)
                                                  config.o
rte_eth_dev_set_vf_rxmode                         /home/born/DPDK-OVS/DPDK-1.6.0/build/lib/libethdev.a(rte_ethdev.o)
                                                  cmdline.o
rte_eth_dev_set_vf_tx                             /home/born/DPDK-OVS/DPDK-1.6.0/build/lib/libethdev.a(rte_ethdev.o)
                                                  config.o
rte_eth_dev_set_vf_vlan_filter                    /home/born/DPDK-OVS/DPDK-1.6.0/build/lib/libethdev.a(rte_ethdev.o)
                                                  config.o
rte_eth_dev_set_vlan_ether_type                   /home/born/DPDK-OVS/DPDK-1.6.0/build/lib/libethdev.a(rte_ethdev.o)
                                                  config.o
rte_eth_dev_set_vlan_offload                      /home/born/DPDK-OVS/DPDK-1.6.0/build/lib/libethdev.a(rte_ethdev.o)
                                                  config.o
rte_eth_dev_set_vlan_strip_on_queue               /home/born/DPDK-OVS/DPDK-1.6.0/build/lib/libethdev.a(rte_ethdev.o)
                                                  config.o
rte_eth_dev_socket_id                             /home/born/DPDK-OVS/DPDK-1.6.0/build/lib/libethdev.a(rte_ethdev.o)
                                                  config.o
                                                  testpmd.o
rte_eth_dev_start                                 /home/born/DPDK-OVS/DPDK-1.6.0/build/lib/libethdev.a(rte_ethdev.o)
                                                  testpmd.o
rte_eth_dev_stop                                  /home/born/DPDK-OVS/DPDK-1.6.0/build/lib/libethdev.a(rte_ethdev.o)
                                                  testpmd.o
rte_eth_dev_uc_all_hash_table_set                 /home/born/DPDK-OVS/DPDK-1.6.0/build/lib/libethdev.a(rte_ethdev.o)
                                                  cmdline.o
rte_eth_dev_uc_hash_table_set                     /home/born/DPDK-OVS/DPDK-1.6.0/build/lib/libethdev.a(rte_ethdev.o)
                                                  cmdline.o
rte_eth_dev_vlan_filter                           /home/born/DPDK-OVS/DPDK-1.6.0/build/lib/libethdev.a(rte_ethdev.o)
                                                  config.o
rte_eth_devices                                   /home/born/DPDK-OVS/DPDK-1.6.0/build/lib/libethdev.a(rte_ethdev.o)
                                                  /home/born/DPDK-OVS/DPDK-1.6.0/build/lib/librte_pmd_ixgbe.a(ixgbe_rxtx.o)
                                                  /home/born/DPDK-OVS/DPDK-1.6.0/build/lib/librte_pmd_e1000.a(em_rxtx.o)
                                                  /home/born/DPDK-OVS/DPDK-1.6.0/build/lib/librte_pmd_e1000.a(igb_rxtx.o)
                                                  csumonly.o
                                                  txonly.o
                                                  rxonly.o
                                                  macfwd-retry.o
                                                  macfwd.o
                                                  iofwd.o
                                                  testpmd.o
rte_eth_driver_register                           /home/born/DPDK-OVS/DPDK-1.6.0/build/lib/libethdev.a(rte_ethdev.o)
                                                  /home/born/DPDK-OVS/DPDK-1.6.0/build/lib/librte_pmd_vmxnet3.a(vmxnet3_ethdev.o)
                                                  /home/born/DPDK-OVS/DPDK-1.6.0/build/lib/librte_pmd_virtio.a(virtio_ethdev.o)
                                                  /home/born/DPDK-OVS/DPDK-1.6.0/build/lib/librte_pmd_ixgbe.a(ixgbe_ethdev.o)
                                                  /home/born/DPDK-OVS/DPDK-1.6.0/build/lib/librte_pmd_e1000.a(em_ethdev.o)
                                                  /home/born/DPDK-OVS/DPDK-1.6.0/build/lib/librte_pmd_e1000.a(igb_ethdev.o)
rte_eth_from_rings                                /home/born/DPDK-OVS/DPDK-1.6.0/build/lib/librte_pmd_ring.a(rte_eth_ring.o)
rte_eth_led_off                                   /home/born/DPDK-OVS/DPDK-1.6.0/build/lib/libethdev.a(rte_ethdev.o)
rte_eth_led_on                                    /home/born/DPDK-OVS/DPDK-1.6.0/build/lib/libethdev.a(rte_ethdev.o)
rte_eth_link_get                                  /home/born/DPDK-OVS/DPDK-1.6.0/build/lib/libethdev.a(rte_ethdev.o)
rte_eth_link_get_nowait                           /home/born/DPDK-OVS/DPDK-1.6.0/build/lib/libethdev.a(rte_ethdev.o)
                                                  config.o
                                                  testpmd.o
rte_eth_macaddr_get                               /home/born/DPDK-OVS/DPDK-1.6.0/build/lib/libethdev.a(rte_ethdev.o)
                                                  testpmd.o
rte_eth_mirror_rule_reset                         /home/born/DPDK-OVS/DPDK-1.6.0/build/lib/libethdev.a(rte_ethdev.o)
                                                  cmdline.o
rte_eth_mirror_rule_set                           /home/born/DPDK-OVS/DPDK-1.6.0/build/lib/libethdev.a(rte_ethdev.o)
                                                  cmdline.o
rte_eth_promiscuous_disable                       /home/born/DPDK-OVS/DPDK-1.6.0/build/lib/libethdev.a(rte_ethdev.o)
                                                  cmdline.o
rte_eth_promiscuous_enable                        /home/born/DPDK-OVS/DPDK-1.6.0/build/lib/libethdev.a(rte_ethdev.o)
                                                  cmdline.o
                                                  testpmd.o
rte_eth_promiscuous_get                           /home/born/DPDK-OVS/DPDK-1.6.0/build/lib/libethdev.a(rte_ethdev.o)
                                                  config.o
rte_eth_ring_pair_attach                          /home/born/DPDK-OVS/DPDK-1.6.0/build/lib/librte_pmd_ring.a(rte_eth_ring.o)
rte_eth_ring_pair_create                          /home/born/DPDK-OVS/DPDK-1.6.0/build/lib/librte_pmd_ring.a(rte_eth_ring.o)
rte_eth_rx_queue_setup                            /home/born/DPDK-OVS/DPDK-1.6.0/build/lib/libethdev.a(rte_ethdev.o)
                                                  testpmd.o
rte_eth_stats_get                                 /home/born/DPDK-OVS/DPDK-1.6.0/build/lib/libethdev.a(rte_ethdev.o)
                                                  config.o
                                                  testpmd.o
rte_eth_stats_reset                               /home/born/DPDK-OVS/DPDK-1.6.0/build/lib/libethdev.a(rte_ethdev.o)
                                                  config.o
rte_eth_tx_queue_setup                            /home/born/DPDK-OVS/DPDK-1.6.0/build/lib/libethdev.a(rte_ethdev.o)
                                                  testpmd.o
rte_exit                                          /home/born/DPDK-OVS/DPDK-1.6.0/build/lib/librte_eal.a(eal_debug.o)
                                                  /home/born/DPDK-OVS/DPDK-1.6.0/build/lib/librte_eal.a(eal_common_pci.o)
                                                  /home/born/DPDK-OVS/DPDK-1.6.0/build/lib/librte_eal.a(eal.o)
                                                  /home/born/DPDK-OVS/DPDK-1.6.0/build/lib/librte_pmd_virtio.a(virtio_rxtx.o)
                                                  parameters.o
                                                  testpmd.o
rte_free                                          /home/born/DPDK-OVS/DPDK-1.6.0/build/lib/librte_malloc.a(rte_malloc.o)
                                                  /home/born/DPDK-OVS/DPDK-1.6.0/build/lib/librte_pmd_ring.a(rte_eth_ring.o)
                                                  /home/born/DPDK-OVS/DPDK-1.6.0/build/lib/librte_eal.a(eal_alarm.o)
                                                  /home/born/DPDK-OVS/DPDK-1.6.0/build/lib/librte_eal.a(eal_interrupts.o)
                                                  /home/born/DPDK-OVS/DPDK-1.6.0/build/lib/libethdev.a(rte_ethdev.o)
                                                  /home/born/DPDK-OVS/DPDK-1.6.0/build/lib/librte_pmd_vmxnet3.a(vmxnet3_rxtx.o)
                                                  /home/born/DPDK-OVS/DPDK-1.6.0/build/lib/librte_pmd_virtio.a(virtio_ethdev.o)
                                                  /home/born/DPDK-OVS/DPDK-1.6.0/build/lib/librte_pmd_ixgbe.a(ixgbe_rxtx.o)
                                                  /home/born/DPDK-OVS/DPDK-1.6.0/build/lib/librte_pmd_e1000.a(em_rxtx.o)
                                                  /home/born/DPDK-OVS/DPDK-1.6.0/build/lib/librte_pmd_e1000.a(igb_rxtx.o)
                                                  /home/born/DPDK-OVS/DPDK-1.6.0/build/lib/librte_pmd_e1000.a(igb_ethdev.o)
                                                  testpmd.o
rte_get_tsc_hz                                    /home/born/DPDK-OVS/DPDK-1.6.0/build/lib/librte_eal.a(eal_timer.o)
rte_igb_pmd_init                                  /home/born/DPDK-OVS/DPDK-1.6.0/build/lib/librte_pmd_e1000.a(igb_ethdev.o)
                                                  testpmd.o
rte_igbvf_pmd_init                                /home/born/DPDK-OVS/DPDK-1.6.0/build/lib/librte_pmd_e1000.a(igb_ethdev.o)
                                                  testpmd.o
rte_intr_callback_register                        /home/born/DPDK-OVS/DPDK-1.6.0/build/lib/librte_eal.a(eal_interrupts.o)
                                                  /home/born/DPDK-OVS/DPDK-1.6.0/build/lib/librte_eal.a(eal_alarm.o)
                                                  /home/born/DPDK-OVS/DPDK-1.6.0/build/lib/librte_pmd_ixgbe.a(ixgbe_ethdev.o)
                                                  /home/born/DPDK-OVS/DPDK-1.6.0/build/lib/librte_pmd_e1000.a(em_ethdev.o)
                                                  /home/born/DPDK-OVS/DPDK-1.6.0/build/lib/librte_pmd_e1000.a(igb_ethdev.o)
rte_intr_callback_unregister                      /home/born/DPDK-OVS/DPDK-1.6.0/build/lib/librte_eal.a(eal_interrupts.o)
rte_intr_disable                                  /home/born/DPDK-OVS/DPDK-1.6.0/build/lib/librte_eal.a(eal_interrupts.o)
rte_intr_enable                                   /home/born/DPDK-OVS/DPDK-1.6.0/build/lib/librte_eal.a(eal_interrupts.o)
                                                  /home/born/DPDK-OVS/DPDK-1.6.0/build/lib/librte_pmd_ixgbe.a(ixgbe_ethdev.o)
                                                  /home/born/DPDK-OVS/DPDK-1.6.0/build/lib/librte_pmd_e1000.a(em_ethdev.o)
                                                  /home/born/DPDK-OVS/DPDK-1.6.0/build/lib/librte_pmd_e1000.a(igb_ethdev.o)
rte_ixgbe_pmd_init                                /home/born/DPDK-OVS/DPDK-1.6.0/build/lib/librte_pmd_ixgbe.a(ixgbe_ethdev.o)
                                                  testpmd.o
rte_ixgbevf_pmd_init                              /home/born/DPDK-OVS/DPDK-1.6.0/build/lib/librte_pmd_ixgbe.a(ixgbe_ethdev.o)
                                                  testpmd.o
rte_log                                           /home/born/DPDK-OVS/DPDK-1.6.0/build/lib/librte_eal.a(eal_common_log.o)
                                                  /home/born/DPDK-OVS/DPDK-1.6.0/build/lib/librte_pmd_ring.a(rte_eth_ring.o)
                                                  /home/born/DPDK-OVS/DPDK-1.6.0/build/lib/librte_eal.a(eal_common_whitelist.o)
                                                  /home/born/DPDK-OVS/DPDK-1.6.0/build/lib/librte_eal.a(eal_common_tailqs.o)
                                                  /home/born/DPDK-OVS/DPDK-1.6.0/build/lib/librte_eal.a(eal_common_memzone.o)
                                                  /home/born/DPDK-OVS/DPDK-1.6.0/build/lib/librte_eal.a(eal_ivshmem.o)
                                                  /home/born/DPDK-OVS/DPDK-1.6.0/build/lib/librte_eal.a(eal_interrupts.o)
                                                  /home/born/DPDK-OVS/DPDK-1.6.0/build/lib/librte_eal.a(eal_timer.o)
                                                  /home/born/DPDK-OVS/DPDK-1.6.0/build/lib/librte_eal.a(eal_lcore.o)
                                                  /home/born/DPDK-OVS/DPDK-1.6.0/build/lib/librte_eal.a(eal_debug.o)
                                                  /home/born/DPDK-OVS/DPDK-1.6.0/build/lib/librte_eal.a(eal_pci.o)
                                                  /home/born/DPDK-OVS/DPDK-1.6.0/build/lib/librte_eal.a(eal_thread.o)
                                                  /home/born/DPDK-OVS/DPDK-1.6.0/build/lib/librte_eal.a(eal_memory.o)
                                                  /home/born/DPDK-OVS/DPDK-1.6.0/build/lib/librte_eal.a(eal_hugepage_info.o)
                                                  /home/born/DPDK-OVS/DPDK-1.6.0/build/lib/librte_eal.a(eal.o)
                                                  /home/born/DPDK-OVS/DPDK-1.6.0/build/lib/librte_ring.a(rte_ring.o)
                                                  /home/born/DPDK-OVS/DPDK-1.6.0/build/lib/librte_mempool.a(rte_mempool.o)
                                                  /home/born/DPDK-OVS/DPDK-1.6.0/build/lib/librte_pmd_virtio.a(virtio_rxtx.o)
                                                  /home/born/DPDK-OVS/DPDK-1.6.0/build/lib/librte_pmd_ixgbe.a(ixgbe_rxtx.o)
                                                  /home/born/DPDK-OVS/DPDK-1.6.0/build/lib/librte_pmd_ixgbe.a(ixgbe_pf.o)
                                                  /home/born/DPDK-OVS/DPDK-1.6.0/build/lib/librte_pmd_ixgbe.a(ixgbe_ethdev.o)
                                                  /home/born/DPDK-OVS/DPDK-1.6.0/build/lib/librte_pmd_e1000.a(em_rxtx.o)
                                                  /home/born/DPDK-OVS/DPDK-1.6.0/build/lib/librte_pmd_e1000.a(igb_pf.o)
                                                  /home/born/DPDK-OVS/DPDK-1.6.0/build/lib/librte_pmd_e1000.a(igb_rxtx.o)
                                                  mempool_anon.o
                                                  testpmd.o
rte_log_add_in_history                            /home/born/DPDK-OVS/DPDK-1.6.0/build/lib/librte_eal.a(eal_common_log.o)
                                                  /home/born/DPDK-OVS/DPDK-1.6.0/build/lib/librte_eal.a(eal_log.o)
rte_log_cur_msg_loglevel                          /home/born/DPDK-OVS/DPDK-1.6.0/build/lib/librte_eal.a(eal_common_log.o)
                                                  /home/born/DPDK-OVS/DPDK-1.6.0/build/lib/librte_eal.a(eal_log.o)
rte_log_cur_msg_logtype                           /home/born/DPDK-OVS/DPDK-1.6.0/build/lib/librte_eal.a(eal_common_log.o)
rte_log_dump_history                              /home/born/DPDK-OVS/DPDK-1.6.0/build/lib/librte_eal.a(eal_common_log.o)
rte_log_set_history                               /home/born/DPDK-OVS/DPDK-1.6.0/build/lib/librte_eal.a(eal_common_log.o)
                                                  /home/born/DPDK-OVS/DPDK-1.6.0/build/lib/librte_eal.a(eal_debug.o)
rte_logs                                          /home/born/DPDK-OVS/DPDK-1.6.0/build/lib/librte_eal.a(eal_common_log.o)
                                                  /home/born/DPDK-OVS/DPDK-1.6.0/build/lib/librte_pmd_ring.a(rte_eth_ring.o)
                                                  /home/born/DPDK-OVS/DPDK-1.6.0/build/lib/librte_eal.a(eal_common_whitelist.o)
                                                  /home/born/DPDK-OVS/DPDK-1.6.0/build/lib/librte_eal.a(eal_common_tailqs.o)
                                                  /home/born/DPDK-OVS/DPDK-1.6.0/build/lib/librte_eal.a(eal_common_memzone.o)
                                                  /home/born/DPDK-OVS/DPDK-1.6.0/build/lib/librte_eal.a(eal_ivshmem.o)
                                                  /home/born/DPDK-OVS/DPDK-1.6.0/build/lib/librte_eal.a(eal_interrupts.o)
                                                  /home/born/DPDK-OVS/DPDK-1.6.0/build/lib/librte_eal.a(eal_timer.o)
                                                  /home/born/DPDK-OVS/DPDK-1.6.0/build/lib/librte_eal.a(eal_lcore.o)
                                                  /home/born/DPDK-OVS/DPDK-1.6.0/build/lib/librte_eal.a(eal_debug.o)
                                                  /home/born/DPDK-OVS/DPDK-1.6.0/build/lib/librte_eal.a(eal_pci.o)
                                                  /home/born/DPDK-OVS/DPDK-1.6.0/build/lib/librte_eal.a(eal_thread.o)
                                                  /home/born/DPDK-OVS/DPDK-1.6.0/build/lib/librte_eal.a(eal_memory.o)
                                                  /home/born/DPDK-OVS/DPDK-1.6.0/build/lib/librte_eal.a(eal_hugepage_info.o)
                                                  /home/born/DPDK-OVS/DPDK-1.6.0/build/lib/librte_eal.a(eal.o)
                                                  /home/born/DPDK-OVS/DPDK-1.6.0/build/lib/librte_ring.a(rte_ring.o)
                                                  /home/born/DPDK-OVS/DPDK-1.6.0/build/lib/librte_mempool.a(rte_mempool.o)
                                                  /home/born/DPDK-OVS/DPDK-1.6.0/build/lib/librte_pmd_virtio.a(virtio_rxtx.o)
                                                  /home/born/DPDK-OVS/DPDK-1.6.0/build/lib/librte_pmd_ixgbe.a(ixgbe_rxtx.o)
                                                  /home/born/DPDK-OVS/DPDK-1.6.0/build/lib/librte_pmd_ixgbe.a(ixgbe_pf.o)
                                                  /home/born/DPDK-OVS/DPDK-1.6.0/build/lib/librte_pmd_ixgbe.a(ixgbe_ethdev.o)
                                                  /home/born/DPDK-OVS/DPDK-1.6.0/build/lib/librte_pmd_e1000.a(em_rxtx.o)
                                                  /home/born/DPDK-OVS/DPDK-1.6.0/build/lib/librte_pmd_e1000.a(igb_pf.o)
                                                  /home/born/DPDK-OVS/DPDK-1.6.0/build/lib/librte_pmd_e1000.a(igb_rxtx.o)
                                                  mempool_anon.o
                                                  testpmd.o
rte_malloc                                        /home/born/DPDK-OVS/DPDK-1.6.0/build/lib/librte_malloc.a(rte_malloc.o)
                                                  /home/born/DPDK-OVS/DPDK-1.6.0/build/lib/librte_eal.a(eal_alarm.o)
rte_malloc_dump_stats                             /home/born/DPDK-OVS/DPDK-1.6.0/build/lib/librte_malloc.a(rte_malloc.o)
rte_malloc_get_socket_stats                       /home/born/DPDK-OVS/DPDK-1.6.0/build/lib/librte_malloc.a(rte_malloc.o)
rte_malloc_set_limit                              /home/born/DPDK-OVS/DPDK-1.6.0/build/lib/librte_malloc.a(rte_malloc.o)
rte_malloc_socket                                 /home/born/DPDK-OVS/DPDK-1.6.0/build/lib/librte_malloc.a(rte_malloc.o)
rte_malloc_validate                               /home/born/DPDK-OVS/DPDK-1.6.0/build/lib/librte_malloc.a(rte_malloc.o)
rte_memory_get_nchannel                           /home/born/DPDK-OVS/DPDK-1.6.0/build/lib/librte_eal.a(eal_common_memory.o)
                                                  /home/born/DPDK-OVS/DPDK-1.6.0/build/lib/librte_eal.a(eal_ivshmem.o)
                                                  /home/born/DPDK-OVS/DPDK-1.6.0/build/lib/librte_mempool.a(rte_mempool.o)
rte_memory_get_nrank                              /home/born/DPDK-OVS/DPDK-1.6.0/build/lib/librte_eal.a(eal_common_memory.o)
                                                  /home/born/DPDK-OVS/DPDK-1.6.0/build/lib/librte_eal.a(eal_ivshmem.o)
                                                  /home/born/DPDK-OVS/DPDK-1.6.0/build/lib/librte_mempool.a(rte_mempool.o)
rte_mempool_audit                                 /home/born/DPDK-OVS/DPDK-1.6.0/build/lib/librte_mempool.a(rte_mempool.o)
rte_mempool_calc_obj_size                         /home/born/DPDK-OVS/DPDK-1.6.0/build/lib/librte_mempool.a(rte_mempool.o)
                                                  mempool_anon.o
rte_mempool_count                                 /home/born/DPDK-OVS/DPDK-1.6.0/build/lib/librte_mempool.a(rte_mempool.o)
rte_mempool_create                                /home/born/DPDK-OVS/DPDK-1.6.0/build/lib/librte_mempool.a(rte_mempool.o)
                                                  /home/born/DPDK-OVS/DPDK-1.6.0/build/lib/librte_eal.a(eal_common_log.o)
                                                  testpmd.o
rte_mempool_dump                                  /home/born/DPDK-OVS/DPDK-1.6.0/build/lib/librte_mempool.a(rte_mempool.o)
                                                  testpmd.o
rte_mempool_list_dump                             /home/born/DPDK-OVS/DPDK-1.6.0/build/lib/librte_mempool.a(rte_mempool.o)
rte_mempool_lookup                                /home/born/DPDK-OVS/DPDK-1.6.0/build/lib/librte_mempool.a(rte_mempool.o)
                                                  /home/born/DPDK-OVS/DPDK-1.6.0/build/lib/librte_eal.a(eal_common_log.o)
                                                  config.o
                                                  testpmd.o
rte_mempool_obj_iter                              /home/born/DPDK-OVS/DPDK-1.6.0/build/lib/librte_mempool.a(rte_mempool.o)
rte_mempool_xmem_create                           /home/born/DPDK-OVS/DPDK-1.6.0/build/lib/librte_mempool.a(rte_mempool.o)
                                                  mempool_anon.o
rte_mempool_xmem_size                             /home/born/DPDK-OVS/DPDK-1.6.0/build/lib/librte_mempool.a(rte_mempool.o)
                                                  mempool_anon.o
rte_mempool_xmem_usage                            /home/born/DPDK-OVS/DPDK-1.6.0/build/lib/librte_mempool.a(rte_mempool.o)
                                                  mempool_anon.o
rte_memzone_dump                                  /home/born/DPDK-OVS/DPDK-1.6.0/build/lib/librte_eal.a(eal_common_memzone.o)
rte_memzone_lookup                                /home/born/DPDK-OVS/DPDK-1.6.0/build/lib/librte_eal.a(eal_common_memzone.o)
                                                  /home/born/DPDK-OVS/DPDK-1.6.0/build/lib/libethdev.a(rte_ethdev.o)
                                                  /home/born/DPDK-OVS/DPDK-1.6.0/build/lib/librte_pmd_vmxnet3.a(vmxnet3_rxtx.o)
                                                  /home/born/DPDK-OVS/DPDK-1.6.0/build/lib/librte_pmd_vmxnet3.a(vmxnet3_ethdev.o)
                                                  /home/born/DPDK-OVS/DPDK-1.6.0/build/lib/librte_pmd_ixgbe.a(ixgbe_rxtx.o)
                                                  /home/born/DPDK-OVS/DPDK-1.6.0/build/lib/librte_pmd_e1000.a(em_rxtx.o)
                                                  /home/born/DPDK-OVS/DPDK-1.6.0/build/lib/librte_pmd_e1000.a(igb_rxtx.o)
                                                  config.o
rte_memzone_reserve                               /home/born/DPDK-OVS/DPDK-1.6.0/build/lib/librte_eal.a(eal_common_memzone.o)
                                                  /home/born/DPDK-OVS/DPDK-1.6.0/build/lib/librte_ring.a(rte_ring.o)
                                                  /home/born/DPDK-OVS/DPDK-1.6.0/build/lib/librte_mempool.a(rte_mempool.o)
                                                  /home/born/DPDK-OVS/DPDK-1.6.0/build/lib/librte_malloc.a(malloc_heap.o)
                                                  /home/born/DPDK-OVS/DPDK-1.6.0/build/lib/libethdev.a(rte_ethdev.o)
                                                  /home/born/DPDK-OVS/DPDK-1.6.0/build/lib/librte_pmd_e1000.a(em_rxtx.o)
rte_memzone_reserve_aligned                       /home/born/DPDK-OVS/DPDK-1.6.0/build/lib/librte_eal.a(eal_common_memzone.o)
                                                  /home/born/DPDK-OVS/DPDK-1.6.0/build/lib/librte_pmd_vmxnet3.a(vmxnet3_rxtx.o)
                                                  /home/born/DPDK-OVS/DPDK-1.6.0/build/lib/librte_pmd_vmxnet3.a(vmxnet3_ethdev.o)
                                                  /home/born/DPDK-OVS/DPDK-1.6.0/build/lib/librte_pmd_virtio.a(virtio_ethdev.o)
                                                  /home/born/DPDK-OVS/DPDK-1.6.0/build/lib/librte_pmd_ixgbe.a(ixgbe_rxtx.o)
                                                  /home/born/DPDK-OVS/DPDK-1.6.0/build/lib/librte_pmd_e1000.a(igb_rxtx.o)
rte_memzone_reserve_bounded                       /home/born/DPDK-OVS/DPDK-1.6.0/build/lib/librte_eal.a(eal_common_memzone.o)
rte_openlog_stream                                /home/born/DPDK-OVS/DPDK-1.6.0/build/lib/librte_eal.a(eal_common_log.o)
                                                  /home/born/DPDK-OVS/DPDK-1.6.0/build/lib/librte_eal.a(eal_log.o)
rte_pmd_ring_init                                 /home/born/DPDK-OVS/DPDK-1.6.0/build/lib/librte_pmd_ring.a(rte_eth_ring.o)
                                                  /home/born/DPDK-OVS/DPDK-1.6.0/build/lib/librte_eal.a(eal_common_nonpci_devs.o)
rte_realloc                                       /home/born/DPDK-OVS/DPDK-1.6.0/build/lib/librte_malloc.a(rte_malloc.o)
                                                  /home/born/DPDK-OVS/DPDK-1.6.0/build/lib/libethdev.a(rte_ethdev.o)
rte_ring_create                                   /home/born/DPDK-OVS/DPDK-1.6.0/build/lib/librte_ring.a(rte_ring.o)
                                                  /home/born/DPDK-OVS/DPDK-1.6.0/build/lib/librte_pmd_ring.a(rte_eth_ring.o)
                                                  /home/born/DPDK-OVS/DPDK-1.6.0/build/lib/librte_mempool.a(rte_mempool.o)
rte_ring_dump                                     /home/born/DPDK-OVS/DPDK-1.6.0/build/lib/librte_ring.a(rte_ring.o)
rte_ring_list_dump                                /home/born/DPDK-OVS/DPDK-1.6.0/build/lib/librte_ring.a(rte_ring.o)
rte_ring_lookup                                   /home/born/DPDK-OVS/DPDK-1.6.0/build/lib/librte_ring.a(rte_ring.o)
                                                  /home/born/DPDK-OVS/DPDK-1.6.0/build/lib/librte_pmd_ring.a(rte_eth_ring.o)
rte_ring_set_water_mark                           /home/born/DPDK-OVS/DPDK-1.6.0/build/lib/librte_ring.a(rte_ring.o)
rte_set_application_usage_hook                    /home/born/DPDK-OVS/DPDK-1.6.0/build/lib/librte_eal.a(eal.o)
rte_set_log_level                                 /home/born/DPDK-OVS/DPDK-1.6.0/build/lib/librte_eal.a(eal_common_log.o)
rte_set_log_type                                  /home/born/DPDK-OVS/DPDK-1.6.0/build/lib/librte_eal.a(eal_common_log.o)
rte_strerror                                      /home/born/DPDK-OVS/DPDK-1.6.0/build/lib/librte_eal.a(eal_common_errno.o)
rte_tailq_names                                   /home/born/DPDK-OVS/DPDK-1.6.0/build/lib/librte_eal.a(eal_common_tailqs.o)
rte_virtio_pmd_init                               /home/born/DPDK-OVS/DPDK-1.6.0/build/lib/librte_pmd_virtio.a(virtio_ethdev.o)
                                                  testpmd.o
rte_vlog                                          /home/born/DPDK-OVS/DPDK-1.6.0/build/lib/librte_eal.a(eal_common_log.o)
                                                  /home/born/DPDK-OVS/DPDK-1.6.0/build/lib/librte_eal.a(eal_debug.o)
rte_vmxnet3_pmd_init                              /home/born/DPDK-OVS/DPDK-1.6.0/build/lib/librte_pmd_vmxnet3.a(vmxnet3_ethdev.o)
                                                  testpmd.o
rte_zmalloc                                       /home/born/DPDK-OVS/DPDK-1.6.0/build/lib/librte_malloc.a(rte_malloc.o)
                                                  /home/born/DPDK-OVS/DPDK-1.6.0/build/lib/librte_eal.a(eal_interrupts.o)
                                                  /home/born/DPDK-OVS/DPDK-1.6.0/build/lib/librte_eal.a(eal_pci.o)
                                                  /home/born/DPDK-OVS/DPDK-1.6.0/build/lib/libethdev.a(rte_ethdev.o)
                                                  /home/born/DPDK-OVS/DPDK-1.6.0/build/lib/librte_pmd_vmxnet3.a(vmxnet3_rxtx.o)
                                                  /home/born/DPDK-OVS/DPDK-1.6.0/build/lib/librte_pmd_vmxnet3.a(vmxnet3_ethdev.o)
                                                  /home/born/DPDK-OVS/DPDK-1.6.0/build/lib/librte_pmd_virtio.a(virtio_ethdev.o)
                                                  /home/born/DPDK-OVS/DPDK-1.6.0/build/lib/librte_pmd_ixgbe.a(ixgbe_pf.o)
                                                  /home/born/DPDK-OVS/DPDK-1.6.0/build/lib/librte_pmd_ixgbe.a(ixgbe_ethdev.o)
                                                  /home/born/DPDK-OVS/DPDK-1.6.0/build/lib/librte_pmd_e1000.a(em_rxtx.o)
                                                  /home/born/DPDK-OVS/DPDK-1.6.0/build/lib/librte_pmd_e1000.a(em_ethdev.o)
                                                  /home/born/DPDK-OVS/DPDK-1.6.0/build/lib/librte_pmd_e1000.a(igb_pf.o)
                                                  /home/born/DPDK-OVS/DPDK-1.6.0/build/lib/librte_pmd_e1000.a(igb_rxtx.o)
                                                  /home/born/DPDK-OVS/DPDK-1.6.0/build/lib/librte_pmd_e1000.a(igb_ethdev.o)
                                                  testpmd.o
rte_zmalloc_socket                                /home/born/DPDK-OVS/DPDK-1.6.0/build/lib/librte_malloc.a(rte_malloc.o)
                                                  /home/born/DPDK-OVS/DPDK-1.6.0/build/lib/librte_pmd_ring.a(rte_eth_ring.o)
                                                  /home/born/DPDK-OVS/DPDK-1.6.0/build/lib/librte_pmd_ixgbe.a(ixgbe_rxtx.o)
rx_drop_en                                        testpmd.o
                                                  cmdline.o
                                                  parameters.o
rx_free_thresh                                    testpmd.o
                                                  config.o
                                                  cmdline.o
                                                  parameters.o
rx_mode                                           testpmd.o
                                                  config.o
                                                  cmdline.o
                                                  parameters.o
rx_only_engine                                    rxonly.o
                                                  testpmd.o
rx_queue_stats_mappings                           testpmd.o
                                                  config.o
                                                  parameters.o
rx_queue_stats_mappings_array                     parameters.o
                                                  testpmd.o
rx_ring_desc_display                              config.o
                                                  cmdline.o
rx_thresh                                         testpmd.o
                                                  config.o
                                                  cmdline.o
                                                  parameters.o
rx_vft_set                                        config.o
                                                  cmdline.o
                                                  testpmd.o
rx_vlan_all_filter_set                            config.o
                                                  cmdline.o
rx_vlan_filter_set                                config.o
                                                  cmdline.o
rx_vlan_strip_set                                 config.o
                                                  cmdline.o
rx_vlan_strip_set_on_queue                        config.o
                                                  cmdline.o
rxring_numa                                       csumonly.o
                                                  txonly.o
                                                  rxonly.o
                                                  macfwd-retry.o
                                                  macfwd.o
                                                  iofwd.o
                                                  config.o
                                                  cmdline.o
                                                  parameters.o
                                                  testpmd.o
rxtx_config_display                               config.o
                                                  cmdline.o
                                                  testpmd.o
sbrk                                              /lib/x86_64-linux-gnu/libc.so.6
sbrk@@GLIBC_2.2.5                                 /lib/x86_64-linux-gnu/libc.so.6
sbrk@GLIBC_2.2.5                                  /lib/x86_64-linux-gnu/libc.so.6
scalbn                                            /lib/x86_64-linux-gnu/libc.so.6
scalbn@@GLIBC_2.2.5                               /lib/x86_64-linux-gnu/libc.so.6
scalbn@GLIBC_2.2.5                                /lib/x86_64-linux-gnu/libc.so.6
scalbnf                                           /lib/x86_64-linux-gnu/libc.so.6
scalbnf@@GLIBC_2.2.5                              /lib/x86_64-linux-gnu/libc.so.6
scalbnf@GLIBC_2.2.5                               /lib/x86_64-linux-gnu/libc.so.6
scalbnl                                           /lib/x86_64-linux-gnu/libc.so.6
scalbnl@@GLIBC_2.2.5                              /lib/x86_64-linux-gnu/libc.so.6
scalbnl@GLIBC_2.2.5                               /lib/x86_64-linux-gnu/libc.so.6
scandir64                                         /lib/x86_64-linux-gnu/libc.so.6
scandir64@@GLIBC_2.2.5                            /lib/x86_64-linux-gnu/libc.so.6
scandir64@GLIBC_2.2.5                             /lib/x86_64-linux-gnu/libc.so.6
scandirat64                                       /lib/x86_64-linux-gnu/libc.so.6
scandirat64@@GLIBC_2.15                           /lib/x86_64-linux-gnu/libc.so.6
scandirat64@GLIBC_2.15                            /lib/x86_64-linux-gnu/libc.so.6
sched_get_priority_max                            /lib/x86_64-linux-gnu/libc.so.6
sched_get_priority_max@@GLIBC_2.2.5               /lib/x86_64-linux-gnu/libc.so.6
sched_get_priority_max@GLIBC_2.2.5                /lib/x86_64-linux-gnu/libc.so.6
                                                  /lib/x86_64-linux-gnu/libpthread.so.0
sched_get_priority_min                            /lib/x86_64-linux-gnu/libc.so.6
sched_get_priority_min@@GLIBC_2.2.5               /lib/x86_64-linux-gnu/libc.so.6
sched_get_priority_min@GLIBC_2.2.5                /lib/x86_64-linux-gnu/libc.so.6
                                                  /lib/x86_64-linux-gnu/libpthread.so.0
sched_getparam                                    /lib/x86_64-linux-gnu/libc.so.6
sched_getparam@@GLIBC_2.2.5                       /lib/x86_64-linux-gnu/libc.so.6
sched_getparam@GLIBC_2.2.5                        /lib/x86_64-linux-gnu/libc.so.6
sched_getscheduler                                /lib/x86_64-linux-gnu/libc.so.6
sched_getscheduler@@GLIBC_2.2.5                   /lib/x86_64-linux-gnu/libc.so.6
sched_getscheduler@GLIBC_2.2.5                    /lib/x86_64-linux-gnu/libc.so.6
sched_rr_get_interval                             /lib/x86_64-linux-gnu/libc.so.6
sched_rr_get_interval@@GLIBC_2.2.5                /lib/x86_64-linux-gnu/libc.so.6
sched_rr_get_interval@GLIBC_2.2.5                 /lib/x86_64-linux-gnu/libc.so.6
sched_setparam                                    /lib/x86_64-linux-gnu/libc.so.6
sched_setparam@@GLIBC_2.2.5                       /lib/x86_64-linux-gnu/libc.so.6
sched_setparam@GLIBC_2.2.5                        /lib/x86_64-linux-gnu/libc.so.6
                                                  /lib/x86_64-linux-gnu/libpthread.so.0
sched_setscheduler                                /lib/x86_64-linux-gnu/libc.so.6
sched_setscheduler@@GLIBC_2.2.5                   /lib/x86_64-linux-gnu/libc.so.6
sched_setscheduler@GLIBC_2.2.5                    /lib/x86_64-linux-gnu/libc.so.6
sched_yield                                       /lib/x86_64-linux-gnu/libc.so.6
sched_yield@@GLIBC_2.2.5                          /lib/x86_64-linux-gnu/libc.so.6
sched_yield@GLIBC_2.2.5                           /lib/x86_64-linux-gnu/libc.so.6
                                                  /lib/x86_64-linux-gnu/libpthread.so.0
seed48_r                                          /lib/x86_64-linux-gnu/libc.so.6
seed48_r@@GLIBC_2.2.5                             /lib/x86_64-linux-gnu/libc.so.6
seed48_r@GLIBC_2.2.5                              /lib/x86_64-linux-gnu/libc.so.6
select                                            /lib/x86_64-linux-gnu/libc.so.6
select@@GLIBC_2.2.5                               /lib/x86_64-linux-gnu/libc.so.6
select@GLIBC_2.2.5                                /lib/x86_64-linux-gnu/libc.so.6
semctl                                            /lib/x86_64-linux-gnu/libc.so.6
semctl@@GLIBC_2.2.5                               /lib/x86_64-linux-gnu/libc.so.6
semctl@GLIBC_2.2.5                                /lib/x86_64-linux-gnu/libc.so.6
semget                                            /lib/x86_64-linux-gnu/libc.so.6
semget@@GLIBC_2.2.5                               /lib/x86_64-linux-gnu/libc.so.6
semget@GLIBC_2.2.5                                /lib/x86_64-linux-gnu/libc.so.6
semop                                             /lib/x86_64-linux-gnu/libc.so.6
semop@@GLIBC_2.2.5                                /lib/x86_64-linux-gnu/libc.so.6
semop@GLIBC_2.2.5                                 /lib/x86_64-linux-gnu/libc.so.6
send                                              /lib/x86_64-linux-gnu/libpthread.so.0
send@@GLIBC_2.2.5                                 /lib/x86_64-linux-gnu/libpthread.so.0
                                                  /lib/x86_64-linux-gnu/libc.so.6
send@GLIBC_2.2.5                                  /lib/x86_64-linux-gnu/libpthread.so.0
sendfile64                                        /lib/x86_64-linux-gnu/libc.so.6
sendfile64@@GLIBC_2.3                             /lib/x86_64-linux-gnu/libc.so.6
sendfile64@GLIBC_2.3                              /lib/x86_64-linux-gnu/libc.so.6
sendmsg                                           /lib/x86_64-linux-gnu/libpthread.so.0
sendmsg@@GLIBC_2.2.5                              /lib/x86_64-linux-gnu/libpthread.so.0
                                                  /lib/x86_64-linux-gnu/libc.so.6
sendmsg@GLIBC_2.2.5                               /lib/x86_64-linux-gnu/libpthread.so.0
sendto                                            /lib/x86_64-linux-gnu/libpthread.so.0
sendto@@GLIBC_2.2.5                               /lib/x86_64-linux-gnu/libpthread.so.0
                                                  /lib/x86_64-linux-gnu/libc.so.6
sendto@GLIBC_2.2.5                                /lib/x86_64-linux-gnu/libpthread.so.0
set_def_fwd_config                                testpmd.o
                                                  cmdline.o
set_fwd_lcores_list                               config.o
                                                  cmdline.o
set_fwd_lcores_mask                               config.o
                                                  cmdline.o
                                                  parameters.o
set_fwd_lcores_number                             config.o
                                                  cmdline.o
set_fwd_ports_list                                config.o
                                                  cmdline.o
set_fwd_ports_mask                                config.o
                                                  cmdline.o
                                                  parameters.o
set_fwd_ports_number                              config.o
                                                  cmdline.o
set_nb_pkt_per_burst                              config.o
                                                  cmdline.o
set_pkt_forwarding_mode                           config.o
                                                  cmdline.o
set_qmap                                          config.o
                                                  cmdline.o
set_tx_pkt_segments                               config.o
                                                  cmdline.o
set_verbose_level                                 config.o
                                                  cmdline.o
set_vf_rx_vlan                                    config.o
                                                  cmdline.o
set_vf_traffic                                    config.o
                                                  cmdline.o
setbuf                                            /lib/x86_64-linux-gnu/libc.so.6
                                                  /home/born/DPDK-OVS/DPDK-1.6.0/build/lib/librte_cmdline.a(cmdline_socket.o)
setbuf@@GLIBC_2.2.5                               /lib/x86_64-linux-gnu/libc.so.6
setbuf@GLIBC_2.2.5                                /lib/x86_64-linux-gnu/libc.so.6
setbuffer                                         /lib/x86_64-linux-gnu/libc.so.6
setbuffer@@GLIBC_2.2.5                            /lib/x86_64-linux-gnu/libc.so.6
setbuffer@GLIBC_2.2.5                             /lib/x86_64-linux-gnu/libc.so.6
setcontext                                        /lib/x86_64-linux-gnu/libc.so.6
setcontext@@GLIBC_2.2.5                           /lib/x86_64-linux-gnu/libc.so.6
setcontext@GLIBC_2.2.5                            /lib/x86_64-linux-gnu/libc.so.6
setenv                                            /lib/x86_64-linux-gnu/libc.so.6
setenv@@GLIBC_2.2.5                               /lib/x86_64-linux-gnu/libc.so.6
setenv@GLIBC_2.2.5                                /lib/x86_64-linux-gnu/libc.so.6
setgid                                            /lib/x86_64-linux-gnu/libc.so.6
setgid@@GLIBC_2.2.5                               /lib/x86_64-linux-gnu/libc.so.6
setgid@GLIBC_2.2.5                                /lib/x86_64-linux-gnu/libc.so.6
setitimer                                         /lib/x86_64-linux-gnu/libc.so.6
setitimer@@GLIBC_2.2.5                            /lib/x86_64-linux-gnu/libc.so.6
setitimer@GLIBC_2.2.5                             /lib/x86_64-linux-gnu/libc.so.6
setmntent                                         /lib/x86_64-linux-gnu/libc.so.6
setmntent@@GLIBC_2.2.5                            /lib/x86_64-linux-gnu/libc.so.6
setmntent@GLIBC_2.2.5                             /lib/x86_64-linux-gnu/libc.so.6
setpgid                                           /lib/x86_64-linux-gnu/libc.so.6
setpgid@@GLIBC_2.2.5                              /lib/x86_64-linux-gnu/libc.so.6
setpgid@GLIBC_2.2.5                               /lib/x86_64-linux-gnu/libc.so.6
setregid                                          /lib/x86_64-linux-gnu/libc.so.6
setregid@@GLIBC_2.2.5                             /lib/x86_64-linux-gnu/libc.so.6
setregid@GLIBC_2.2.5                              /lib/x86_64-linux-gnu/libc.so.6
setresgid                                         /lib/x86_64-linux-gnu/libc.so.6
setresgid@@GLIBC_2.2.5                            /lib/x86_64-linux-gnu/libc.so.6
setresgid@GLIBC_2.2.5                             /lib/x86_64-linux-gnu/libc.so.6
setresuid                                         /lib/x86_64-linux-gnu/libc.so.6
setresuid@@GLIBC_2.2.5                            /lib/x86_64-linux-gnu/libc.so.6
setresuid@GLIBC_2.2.5                             /lib/x86_64-linux-gnu/libc.so.6
setreuid                                          /lib/x86_64-linux-gnu/libc.so.6
setreuid@@GLIBC_2.2.5                             /lib/x86_64-linux-gnu/libc.so.6
setreuid@GLIBC_2.2.5                              /lib/x86_64-linux-gnu/libc.so.6
setrlimit                                         /lib/x86_64-linux-gnu/libc.so.6
setrlimit64                                       /lib/x86_64-linux-gnu/libc.so.6
setrlimit64@@GLIBC_2.2.5                          /lib/x86_64-linux-gnu/libc.so.6
setrlimit64@GLIBC_2.2.5                           /lib/x86_64-linux-gnu/libc.so.6
setrlimit@@GLIBC_2.2.5                            /lib/x86_64-linux-gnu/libc.so.6
setrlimit@GLIBC_2.2.5                             /lib/x86_64-linux-gnu/libc.so.6
setsid                                            /lib/x86_64-linux-gnu/libc.so.6
setsid@@GLIBC_2.2.5                               /lib/x86_64-linux-gnu/libc.so.6
setsid@GLIBC_2.2.5                                /lib/x86_64-linux-gnu/libc.so.6
setsockopt                                        /lib/x86_64-linux-gnu/libc.so.6
setsockopt@@GLIBC_2.2.5                           /lib/x86_64-linux-gnu/libc.so.6
setsockopt@GLIBC_2.2.5                            /lib/x86_64-linux-gnu/libc.so.6
setstate                                          /lib/x86_64-linux-gnu/libc.so.6
setstate@@GLIBC_2.2.5                             /lib/x86_64-linux-gnu/libc.so.6
setstate@GLIBC_2.2.5                              /lib/x86_64-linux-gnu/libc.so.6
setstate_r                                        /lib/x86_64-linux-gnu/libc.so.6
setstate_r@@GLIBC_2.2.5                           /lib/x86_64-linux-gnu/libc.so.6
setstate_r@GLIBC_2.2.5                            /lib/x86_64-linux-gnu/libc.so.6
settimeofday                                      /lib/x86_64-linux-gnu/libc.so.6
settimeofday@@GLIBC_2.2.5                         /lib/x86_64-linux-gnu/libc.so.6
settimeofday@GLIBC_2.2.5                          /lib/x86_64-linux-gnu/libc.so.6
setuid                                            /lib/x86_64-linux-gnu/libc.so.6
setuid@@GLIBC_2.2.5                               /lib/x86_64-linux-gnu/libc.so.6
setuid@GLIBC_2.2.5                                /lib/x86_64-linux-gnu/libc.so.6
setutent                                          /lib/x86_64-linux-gnu/libc.so.6
setutent@@GLIBC_2.2.5                             /lib/x86_64-linux-gnu/libc.so.6
setutent@GLIBC_2.2.5                              /lib/x86_64-linux-gnu/libc.so.6
setvbuf                                           /lib/x86_64-linux-gnu/libc.so.6
setvbuf@@GLIBC_2.2.5                              /lib/x86_64-linux-gnu/libc.so.6
setvbuf@GLIBC_2.2.5                               /lib/x86_64-linux-gnu/libc.so.6
sgetsgent_r                                       /lib/x86_64-linux-gnu/libc.so.6
sgetsgent_r@@GLIBC_2.10                           /lib/x86_64-linux-gnu/libc.so.6
sgetsgent_r@GLIBC_2.10                            /lib/x86_64-linux-gnu/libc.so.6
sgetspent_r                                       /lib/x86_64-linux-gnu/libc.so.6
sgetspent_r@@GLIBC_2.2.5                          /lib/x86_64-linux-gnu/libc.so.6
sgetspent_r@GLIBC_2.2.5                           /lib/x86_64-linux-gnu/libc.so.6
shmat                                             /lib/x86_64-linux-gnu/libc.so.6
shmat@@GLIBC_2.2.5                                /lib/x86_64-linux-gnu/libc.so.6
shmat@GLIBC_2.2.5                                 /lib/x86_64-linux-gnu/libc.so.6
shmctl                                            /lib/x86_64-linux-gnu/libc.so.6
shmctl@@GLIBC_2.2.5                               /lib/x86_64-linux-gnu/libc.so.6
shmctl@GLIBC_2.2.5                                /lib/x86_64-linux-gnu/libc.so.6
shmdt                                             /lib/x86_64-linux-gnu/libc.so.6
shmdt@@GLIBC_2.2.5                                /lib/x86_64-linux-gnu/libc.so.6
shmdt@GLIBC_2.2.5                                 /lib/x86_64-linux-gnu/libc.so.6
shmget                                            /lib/x86_64-linux-gnu/libc.so.6
shmget@@GLIBC_2.2.5                               /lib/x86_64-linux-gnu/libc.so.6
shmget@GLIBC_2.2.5                                /lib/x86_64-linux-gnu/libc.so.6
shutdown                                          /lib/x86_64-linux-gnu/libc.so.6
shutdown@@GLIBC_2.2.5                             /lib/x86_64-linux-gnu/libc.so.6
shutdown@GLIBC_2.2.5                              /lib/x86_64-linux-gnu/libc.so.6
sigaction                                         /lib/x86_64-linux-gnu/libpthread.so.0
sigaction@@GLIBC_2.2.5                            /lib/x86_64-linux-gnu/libpthread.so.0
                                                  /lib/x86_64-linux-gnu/libc.so.6
sigaction@GLIBC_2.2.5                             /lib/x86_64-linux-gnu/libpthread.so.0
sigaltstack                                       /lib/x86_64-linux-gnu/libc.so.6
sigaltstack@@GLIBC_2.2.5                          /lib/x86_64-linux-gnu/libc.so.6
sigaltstack@GLIBC_2.2.5                           /lib/x86_64-linux-gnu/libc.so.6
sigblock                                          /lib/x86_64-linux-gnu/libc.so.6
sigblock@@GLIBC_2.2.5                             /lib/x86_64-linux-gnu/libc.so.6
sigblock@GLIBC_2.2.5                              /lib/x86_64-linux-gnu/libc.so.6
siglongjmp                                        /lib/x86_64-linux-gnu/libpthread.so.0
siglongjmp@@GLIBC_2.2.5                           /lib/x86_64-linux-gnu/libpthread.so.0
                                                  /lib/x86_64-linux-gnu/libc.so.6
siglongjmp@GLIBC_2.2.5                            /lib/x86_64-linux-gnu/libpthread.so.0
signal                                            /lib/x86_64-linux-gnu/libc.so.6
signal@@GLIBC_2.2.5                               /lib/x86_64-linux-gnu/libc.so.6
signal@GLIBC_2.2.5                                /lib/x86_64-linux-gnu/libc.so.6
sigpause                                          /lib/x86_64-linux-gnu/libc.so.6
sigpause@@GLIBC_2.2.5                             /lib/x86_64-linux-gnu/libc.so.6
sigpause@GLIBC_2.2.5                              /lib/x86_64-linux-gnu/libc.so.6
sigprocmask                                       /lib/x86_64-linux-gnu/libc.so.6
sigprocmask@@GLIBC_2.2.5                          /lib/x86_64-linux-gnu/libc.so.6
sigprocmask@GLIBC_2.2.5                           /lib/x86_64-linux-gnu/libc.so.6
sigqueue                                          /lib/x86_64-linux-gnu/libc.so.6
sigqueue@@GLIBC_2.2.5                             /lib/x86_64-linux-gnu/libc.so.6
sigqueue@GLIBC_2.2.5                              /lib/x86_64-linux-gnu/libc.so.6
sigreturn                                         /lib/x86_64-linux-gnu/libc.so.6
sigreturn@@GLIBC_2.2.5                            /lib/x86_64-linux-gnu/libc.so.6
sigreturn@GLIBC_2.2.5                             /lib/x86_64-linux-gnu/libc.so.6
sigsetmask                                        /lib/x86_64-linux-gnu/libc.so.6
sigsetmask@@GLIBC_2.2.5                           /lib/x86_64-linux-gnu/libc.so.6
sigsetmask@GLIBC_2.2.5                            /lib/x86_64-linux-gnu/libc.so.6
sigsuspend                                        /lib/x86_64-linux-gnu/libc.so.6
sigsuspend@@GLIBC_2.2.5                           /lib/x86_64-linux-gnu/libc.so.6
sigsuspend@GLIBC_2.2.5                            /lib/x86_64-linux-gnu/libc.so.6
sigtimedwait                                      /lib/x86_64-linux-gnu/libc.so.6
sigtimedwait@@GLIBC_2.2.5                         /lib/x86_64-linux-gnu/libc.so.6
sigtimedwait@GLIBC_2.2.5                          /lib/x86_64-linux-gnu/libc.so.6
sigvec                                            /lib/x86_64-linux-gnu/libc.so.6
sigvec@@GLIBC_2.2.5                               /lib/x86_64-linux-gnu/libc.so.6
sigvec@GLIBC_2.2.5                                /lib/x86_64-linux-gnu/libc.so.6
sigwait                                           /lib/x86_64-linux-gnu/libpthread.so.0
sigwait@@GLIBC_2.2.5                              /lib/x86_64-linux-gnu/libpthread.so.0
                                                  /lib/x86_64-linux-gnu/libc.so.6
sigwait@GLIBC_2.2.5                               /lib/x86_64-linux-gnu/libpthread.so.0
sigwaitinfo                                       /lib/x86_64-linux-gnu/libc.so.6
sigwaitinfo@@GLIBC_2.2.5                          /lib/x86_64-linux-gnu/libc.so.6
sigwaitinfo@GLIBC_2.2.5                           /lib/x86_64-linux-gnu/libc.so.6
sleep                                             /lib/x86_64-linux-gnu/libc.so.6
                                                  /home/born/DPDK-OVS/DPDK-1.6.0/build/lib/librte_eal.a(eal_timer.o)
sleep@@GLIBC_2.2.5                                /lib/x86_64-linux-gnu/libc.so.6
sleep@GLIBC_2.2.5                                 /lib/x86_64-linux-gnu/libc.so.6
snprintf                                          /lib/x86_64-linux-gnu/libc.so.6
snprintf@@GLIBC_2.2.5                             /lib/x86_64-linux-gnu/libc.so.6
snprintf@GLIBC_2.2.5                              /lib/x86_64-linux-gnu/libc.so.6
socket                                            /lib/x86_64-linux-gnu/libc.so.6
socket@@GLIBC_2.2.5                               /lib/x86_64-linux-gnu/libc.so.6
socket@GLIBC_2.2.5                                /lib/x86_64-linux-gnu/libc.so.6
                                                  /usr/lib/gcc/x86_64-linux-gnu/4.6/../../../x86_64-linux-gnu/librt.so
socket_num                                        testpmd.o
                                                  parameters.o
socketpair                                        /lib/x86_64-linux-gnu/libc.so.6
socketpair@@GLIBC_2.2.5                           /lib/x86_64-linux-gnu/libc.so.6
socketpair@GLIBC_2.2.5                            /lib/x86_64-linux-gnu/libc.so.6
sprofil                                           /lib/x86_64-linux-gnu/libc.so.6
sprofil@@GLIBC_2.2.5                              /lib/x86_64-linux-gnu/libc.so.6
sprofil@GLIBC_2.2.5                               /lib/x86_64-linux-gnu/libc.so.6
srand                                             /lib/x86_64-linux-gnu/libc.so.6
srand48                                           /lib/x86_64-linux-gnu/libc.so.6
                                                  /home/born/DPDK-OVS/DPDK-1.6.0/build/lib/librte_eal.a(eal.o)
srand48@@GLIBC_2.2.5                              /lib/x86_64-linux-gnu/libc.so.6
srand48@GLIBC_2.2.5                               /lib/x86_64-linux-gnu/libc.so.6
srand48_r                                         /lib/x86_64-linux-gnu/libc.so.6
srand48_r@@GLIBC_2.2.5                            /lib/x86_64-linux-gnu/libc.so.6
srand48_r@GLIBC_2.2.5                             /lib/x86_64-linux-gnu/libc.so.6
srand@@GLIBC_2.2.5                                /lib/x86_64-linux-gnu/libc.so.6
srand@GLIBC_2.2.5                                 /lib/x86_64-linux-gnu/libc.so.6
srandom                                           /lib/x86_64-linux-gnu/libc.so.6
srandom@@GLIBC_2.2.5                              /lib/x86_64-linux-gnu/libc.so.6
srandom@GLIBC_2.2.5                               /lib/x86_64-linux-gnu/libc.so.6
srandom_r                                         /lib/x86_64-linux-gnu/libc.so.6
srandom_r@@GLIBC_2.2.5                            /lib/x86_64-linux-gnu/libc.so.6
srandom_r@GLIBC_2.2.5                             /lib/x86_64-linux-gnu/libc.so.6
ssignal                                           /lib/x86_64-linux-gnu/libc.so.6
ssignal@@GLIBC_2.2.5                              /lib/x86_64-linux-gnu/libc.so.6
ssignal@GLIBC_2.2.5                               /lib/x86_64-linux-gnu/libc.so.6
start_packet_forwarding                           testpmd.o
                                                  cmdline.o
start_port                                        testpmd.o
                                                  cmdline.o
statfs                                            /lib/x86_64-linux-gnu/libc.so.6
statfs64                                          /lib/x86_64-linux-gnu/libc.so.6
statfs64@@GLIBC_2.2.5                             /lib/x86_64-linux-gnu/libc.so.6
statfs64@GLIBC_2.2.5                              /lib/x86_64-linux-gnu/libc.so.6
statfs@@GLIBC_2.2.5                               /lib/x86_64-linux-gnu/libc.so.6
statfs@GLIBC_2.2.5                                /lib/x86_64-linux-gnu/libc.so.6
statvfs64                                         /lib/x86_64-linux-gnu/libc.so.6
statvfs64@@GLIBC_2.2.5                            /lib/x86_64-linux-gnu/libc.so.6
statvfs64@GLIBC_2.2.5                             /lib/x86_64-linux-gnu/libc.so.6
step                                              /lib/x86_64-linux-gnu/libc.so.6
step@@GLIBC_2.2.5                                 /lib/x86_64-linux-gnu/libc.so.6
step@GLIBC_2.2.5                                  /lib/x86_64-linux-gnu/libc.so.6
stop_packet_forwarding                            testpmd.o
                                                  cmdline.o
stop_port                                         testpmd.o
                                                  cmdline.o
stpcpy                                            /lib/x86_64-linux-gnu/libc.so.6
stpcpy@@GLIBC_2.2.5                               /lib/x86_64-linux-gnu/libc.so.6
stpcpy@GLIBC_2.2.5                                /lib/x86_64-linux-gnu/libc.so.6
stpncpy                                           /lib/x86_64-linux-gnu/libc.so.6
stpncpy@@GLIBC_2.2.5                              /lib/x86_64-linux-gnu/libc.so.6
stpncpy@GLIBC_2.2.5                               /lib/x86_64-linux-gnu/libc.so.6
strcasecmp                                        /lib/x86_64-linux-gnu/libc.so.6
strcasecmp@@GLIBC_2.2.5                           /lib/x86_64-linux-gnu/libc.so.6
strcasecmp@GLIBC_2.2.5                            /lib/x86_64-linux-gnu/libc.so.6
strcasecmp_l                                      /lib/x86_64-linux-gnu/libc.so.6
strcasecmp_l@@GLIBC_2.3                           /lib/x86_64-linux-gnu/libc.so.6
strcasecmp_l@GLIBC_2.3                            /lib/x86_64-linux-gnu/libc.so.6
strcasestr                                        /lib/x86_64-linux-gnu/libc.so.6
strcasestr@@GLIBC_2.2.5                           /lib/x86_64-linux-gnu/libc.so.6
strcasestr@GLIBC_2.2.5                            /lib/x86_64-linux-gnu/libc.so.6
strchr                                            /lib/x86_64-linux-gnu/libc.so.6
                                                  /home/born/DPDK-OVS/DPDK-1.6.0/build/lib/librte_cmdline.a(cmdline_parse_ipaddr.o)
                                                  /home/born/DPDK-OVS/DPDK-1.6.0/build/lib/librte_eal.a(eal_pci.o)
                                                  /home/born/DPDK-OVS/DPDK-1.6.0/build/lib/librte_eal.a(eal_memory.o)
                                                  cmdline.o
                                                  parameters.o
strchr@@GLIBC_2.2.5                               /lib/x86_64-linux-gnu/libc.so.6
strchr@GLIBC_2.2.5                                /lib/x86_64-linux-gnu/libc.so.6
strchrnul                                         /lib/x86_64-linux-gnu/libc.so.6
strchrnul@@GLIBC_2.2.5                            /lib/x86_64-linux-gnu/libc.so.6
strchrnul@GLIBC_2.2.5                             /lib/x86_64-linux-gnu/libc.so.6
strcmp                                            /lib/x86_64-linux-gnu/libc.so.6
                                                  /home/born/DPDK-OVS/DPDK-1.6.0/build/lib/librte_eal.a(eal_hugepage_info.o)
                                                  /home/born/DPDK-OVS/DPDK-1.6.0/build/lib/librte_eal.a(eal.o)
                                                  config.o
strcmp@@GLIBC_2.2.5                               /lib/x86_64-linux-gnu/libc.so.6
strcmp@GLIBC_2.2.5                                /lib/x86_64-linux-gnu/libc.so.6
                                                  /lib/x86_64-linux-gnu/libpthread.so.0
strcoll_l                                         /lib/x86_64-linux-gnu/libc.so.6
strcoll_l@@GLIBC_2.3                              /lib/x86_64-linux-gnu/libc.so.6
strcoll_l@GLIBC_2.3                               /lib/x86_64-linux-gnu/libc.so.6
strdup                                            /lib/x86_64-linux-gnu/libc.so.6
strdup@@GLIBC_2.2.5                               /lib/x86_64-linux-gnu/libc.so.6
strdup@GLIBC_2.2.5                                /lib/x86_64-linux-gnu/libc.so.6
strerror                                          /lib/x86_64-linux-gnu/libc.so.6
                                                  /home/born/DPDK-OVS/DPDK-1.6.0/build/lib/librte_eal.a(eal_ivshmem.o)
                                                  /home/born/DPDK-OVS/DPDK-1.6.0/build/lib/librte_eal.a(eal_interrupts.o)
                                                  /home/born/DPDK-OVS/DPDK-1.6.0/build/lib/librte_eal.a(eal_pci.o)
                                                  /home/born/DPDK-OVS/DPDK-1.6.0/build/lib/librte_eal.a(eal_memory.o)
                                                  /home/born/DPDK-OVS/DPDK-1.6.0/build/lib/librte_eal.a(eal_hugepage_info.o)
                                                  cmdline.o
strerror@@GLIBC_2.2.5                             /lib/x86_64-linux-gnu/libc.so.6
strerror@GLIBC_2.2.5                              /lib/x86_64-linux-gnu/libc.so.6
strerror_r                                        /lib/x86_64-linux-gnu/libc.so.6
strerror_r@@GLIBC_2.2.5                           /lib/x86_64-linux-gnu/libc.so.6
strerror_r@GLIBC_2.2.5                            /lib/x86_64-linux-gnu/libc.so.6
strfmon_l                                         /lib/x86_64-linux-gnu/libc.so.6
strfmon_l@@GLIBC_2.3                              /lib/x86_64-linux-gnu/libc.so.6
strfmon_l@GLIBC_2.3                               /lib/x86_64-linux-gnu/libc.so.6
strftime_l                                        /lib/x86_64-linux-gnu/libc.so.6
strftime_l@@GLIBC_2.3                             /lib/x86_64-linux-gnu/libc.so.6
strftime_l@GLIBC_2.3                              /lib/x86_64-linux-gnu/libc.so.6
strncasecmp                                       /lib/x86_64-linux-gnu/libc.so.6
                                                  /home/born/DPDK-OVS/DPDK-1.6.0/build/lib/librte_eal.a(eal.o)
strncasecmp@@GLIBC_2.2.5                          /lib/x86_64-linux-gnu/libc.so.6
strncasecmp@GLIBC_2.2.5                           /lib/x86_64-linux-gnu/libc.so.6
strncasecmp_l                                     /lib/x86_64-linux-gnu/libc.so.6
strncasecmp_l@@GLIBC_2.3                          /lib/x86_64-linux-gnu/libc.so.6
strncasecmp_l@GLIBC_2.3                           /lib/x86_64-linux-gnu/libc.so.6
strncmp                                           /lib/x86_64-linux-gnu/libc.so.6
                                                  /home/born/DPDK-OVS/DPDK-1.6.0/build/lib/librte_cmdline.a(cmdline_vt100.o)
                                                  /home/born/DPDK-OVS/DPDK-1.6.0/build/lib/librte_cmdline.a(cmdline_parse_string.o)
                                                  /home/born/DPDK-OVS/DPDK-1.6.0/build/lib/librte_cmdline.a(cmdline_parse.o)
                                                  /home/born/DPDK-OVS/DPDK-1.6.0/build/lib/librte_eal.a(eal_common_whitelist.o)
                                                  /home/born/DPDK-OVS/DPDK-1.6.0/build/lib/librte_eal.a(eal_common_tailqs.o)
                                                  /home/born/DPDK-OVS/DPDK-1.6.0/build/lib/librte_eal.a(eal_common_memzone.o)
                                                  /home/born/DPDK-OVS/DPDK-1.6.0/build/lib/librte_eal.a(eal_ivshmem.o)
                                                  /home/born/DPDK-OVS/DPDK-1.6.0/build/lib/librte_eal.a(eal_lcore.o)
                                                  /home/born/DPDK-OVS/DPDK-1.6.0/build/lib/librte_eal.a(eal_hugepage_info.o)
                                                  /home/born/DPDK-OVS/DPDK-1.6.0/build/lib/librte_ring.a(rte_ring.o)
                                                  /home/born/DPDK-OVS/DPDK-1.6.0/build/lib/librte_mempool.a(rte_mempool.o)
strncmp@@GLIBC_2.2.5                              /lib/x86_64-linux-gnu/libc.so.6
strncmp@GLIBC_2.2.5                               /lib/x86_64-linux-gnu/libc.so.6
strndup                                           /lib/x86_64-linux-gnu/libc.so.6
strndup@@GLIBC_2.2.5                              /lib/x86_64-linux-gnu/libc.so.6
strndup@GLIBC_2.2.5                               /lib/x86_64-linux-gnu/libc.so.6
strnlen                                           /lib/x86_64-linux-gnu/libc.so.6
                                                  /home/born/DPDK-OVS/DPDK-1.6.0/build/lib/librte_cmdline.a(cmdline_vt100.o)
                                                  /home/born/DPDK-OVS/DPDK-1.6.0/build/lib/librte_cmdline.a(cmdline_rdline.o)
                                                  /home/born/DPDK-OVS/DPDK-1.6.0/build/lib/librte_cmdline.a(cmdline_parse.o)
                                                  /home/born/DPDK-OVS/DPDK-1.6.0/build/lib/librte_cmdline.a(cmdline.o)
                                                  /home/born/DPDK-OVS/DPDK-1.6.0/build/lib/librte_eal.a(eal_common_whitelist.o)
                                                  /home/born/DPDK-OVS/DPDK-1.6.0/build/lib/librte_eal.a(eal.o)
                                                  cmdline.o
strnlen@@GLIBC_2.2.5                              /lib/x86_64-linux-gnu/libc.so.6
strnlen@GLIBC_2.2.5                               /lib/x86_64-linux-gnu/libc.so.6
strptime_l                                        /lib/x86_64-linux-gnu/libc.so.6
strptime_l@@GLIBC_2.3.2                           /lib/x86_64-linux-gnu/libc.so.6
strptime_l@GLIBC_2.3.2                            /lib/x86_64-linux-gnu/libc.so.6
strrchr                                           /lib/x86_64-linux-gnu/libc.so.6
                                                  /home/born/DPDK-OVS/DPDK-1.6.0/build/lib/librte_cmdline.a(cmdline_parse_ipaddr.o)
strrchr@@GLIBC_2.2.5                              /lib/x86_64-linux-gnu/libc.so.6
strrchr@GLIBC_2.2.5                               /lib/x86_64-linux-gnu/libc.so.6
strsep                                            /lib/x86_64-linux-gnu/libc.so.6
strsep@@GLIBC_2.2.5                               /lib/x86_64-linux-gnu/libc.so.6
strsep@GLIBC_2.2.5                                /lib/x86_64-linux-gnu/libc.so.6
strstr                                            /lib/x86_64-linux-gnu/libc.so.6
                                                  /home/born/DPDK-OVS/DPDK-1.6.0/build/lib/librte_eal.a(eal_memory.o)
                                                  /home/born/DPDK-OVS/DPDK-1.6.0/build/lib/librte_eal.a(eal_hugepage_info.o)
strstr@@GLIBC_2.2.5                               /lib/x86_64-linux-gnu/libc.so.6
strstr@GLIBC_2.2.5                                /lib/x86_64-linux-gnu/libc.so.6
strtod_l                                          /lib/x86_64-linux-gnu/libc.so.6
strtod_l@@GLIBC_2.3                               /lib/x86_64-linux-gnu/libc.so.6
strtod_l@GLIBC_2.3                                /lib/x86_64-linux-gnu/libc.so.6
strtof_l                                          /lib/x86_64-linux-gnu/libc.so.6
strtof_l@@GLIBC_2.3                               /lib/x86_64-linux-gnu/libc.so.6
strtof_l@GLIBC_2.3                                /lib/x86_64-linux-gnu/libc.so.6
strtok_r                                          /lib/x86_64-linux-gnu/libc.so.6
strtok_r@@GLIBC_2.2.5                             /lib/x86_64-linux-gnu/libc.so.6
strtok_r@GLIBC_2.2.5                              /lib/x86_64-linux-gnu/libc.so.6
strtol                                            /lib/x86_64-linux-gnu/libc.so.6
                                                  /home/born/DPDK-OVS/DPDK-1.6.0/build/lib/librte_cmdline.a(cmdline_parse_ipaddr.o)
                                                  /home/born/DPDK-OVS/DPDK-1.6.0/build/lib/librte_eal.a(eal.o)
                                                  parameters.o
strtol@@GLIBC_2.2.5                               /lib/x86_64-linux-gnu/libc.so.6
strtol@GLIBC_2.2.5                                /lib/x86_64-linux-gnu/libc.so.6
strtol_l                                          /lib/x86_64-linux-gnu/libc.so.6
strtol_l@@GLIBC_2.3                               /lib/x86_64-linux-gnu/libc.so.6
strtol_l@GLIBC_2.3                                /lib/x86_64-linux-gnu/libc.so.6
strtold_l                                         /lib/x86_64-linux-gnu/libc.so.6
strtold_l@@GLIBC_2.3                              /lib/x86_64-linux-gnu/libc.so.6
strtold_l@GLIBC_2.3                               /lib/x86_64-linux-gnu/libc.so.6
strtoll                                           /lib/x86_64-linux-gnu/libc.so.6
strtoll@@GLIBC_2.2.5                              /lib/x86_64-linux-gnu/libc.so.6
strtoll@GLIBC_2.2.5                               /lib/x86_64-linux-gnu/libc.so.6
strtoll_l                                         /lib/x86_64-linux-gnu/libc.so.6
strtoll_l@@GLIBC_2.3.3                            /lib/x86_64-linux-gnu/libc.so.6
strtoll_l@GLIBC_2.3.3                             /lib/x86_64-linux-gnu/libc.so.6
strtoq                                            /lib/x86_64-linux-gnu/libc.so.6
strtoq@@GLIBC_2.2.5                               /lib/x86_64-linux-gnu/libc.so.6
strtoq@GLIBC_2.2.5                                /lib/x86_64-linux-gnu/libc.so.6
strtoul                                           /lib/x86_64-linux-gnu/libc.so.6
                                                  /home/born/DPDK-OVS/DPDK-1.6.0/build/lib/librte_cmdline.a(cmdline_parse_etheraddr.o)
                                                  /home/born/DPDK-OVS/DPDK-1.6.0/build/lib/librte_eal.a(eal_common_whitelist.o)
                                                  /home/born/DPDK-OVS/DPDK-1.6.0/build/lib/librte_eal.a(eal_lcore.o)
                                                  /home/born/DPDK-OVS/DPDK-1.6.0/build/lib/librte_eal.a(eal_pci.o)
                                                  /home/born/DPDK-OVS/DPDK-1.6.0/build/lib/librte_eal.a(eal_memory.o)
                                                  /home/born/DPDK-OVS/DPDK-1.6.0/build/lib/librte_eal.a(eal.o)
                                                  cmdline.o
                                                  parameters.o
strtoul@@GLIBC_2.2.5                              /lib/x86_64-linux-gnu/libc.so.6
strtoul@GLIBC_2.2.5                               /lib/x86_64-linux-gnu/libc.so.6
strtoul_l                                         /lib/x86_64-linux-gnu/libc.so.6
strtoul_l@@GLIBC_2.3                              /lib/x86_64-linux-gnu/libc.so.6
strtoul_l@GLIBC_2.3                               /lib/x86_64-linux-gnu/libc.so.6
strtoull                                          /lib/x86_64-linux-gnu/libc.so.6
                                                  /home/born/DPDK-OVS/DPDK-1.6.0/build/lib/librte_eal.a(eal_pci.o)
                                                  /home/born/DPDK-OVS/DPDK-1.6.0/build/lib/librte_eal.a(eal_memory.o)
                                                  /home/born/DPDK-OVS/DPDK-1.6.0/build/lib/librte_eal.a(eal_hugepage_info.o)
                                                  /home/born/DPDK-OVS/DPDK-1.6.0/build/lib/librte_eal.a(eal.o)
                                                  /home/born/DPDK-OVS/DPDK-1.6.0/build/lib/librte_malloc.a(malloc_heap.o)
                                                  cmdline.o
                                                  parameters.o
strtoull@@GLIBC_2.2.5                             /lib/x86_64-linux-gnu/libc.so.6
strtoull@GLIBC_2.2.5                              /lib/x86_64-linux-gnu/libc.so.6
strtoull_l                                        /lib/x86_64-linux-gnu/libc.so.6
strtoull_l@@GLIBC_2.3.3                           /lib/x86_64-linux-gnu/libc.so.6
strtoull_l@GLIBC_2.3.3                            /lib/x86_64-linux-gnu/libc.so.6
strtouq                                           /lib/x86_64-linux-gnu/libc.so.6
strtouq@@GLIBC_2.2.5                              /lib/x86_64-linux-gnu/libc.so.6
strtouq@GLIBC_2.2.5                               /lib/x86_64-linux-gnu/libc.so.6
strverscmp                                        /lib/x86_64-linux-gnu/libc.so.6
strverscmp@@GLIBC_2.2.5                           /lib/x86_64-linux-gnu/libc.so.6
strverscmp@GLIBC_2.2.5                            /lib/x86_64-linux-gnu/libc.so.6
strxfrm_l                                         /lib/x86_64-linux-gnu/libc.so.6
strxfrm_l@@GLIBC_2.3                              /lib/x86_64-linux-gnu/libc.so.6
strxfrm_l@GLIBC_2.3                               /lib/x86_64-linux-gnu/libc.so.6
swapcontext                                       /lib/x86_64-linux-gnu/libc.so.6
swapcontext@@GLIBC_2.2.5                          /lib/x86_64-linux-gnu/libc.so.6
swapcontext@GLIBC_2.2.5                           /lib/x86_64-linux-gnu/libc.so.6
swapoff                                           /lib/x86_64-linux-gnu/libc.so.6
swapoff@@GLIBC_2.2.5                              /lib/x86_64-linux-gnu/libc.so.6
swapoff@GLIBC_2.2.5                               /lib/x86_64-linux-gnu/libc.so.6
swapon                                            /lib/x86_64-linux-gnu/libc.so.6
swapon@@GLIBC_2.2.5                               /lib/x86_64-linux-gnu/libc.so.6
swapon@GLIBC_2.2.5                                /lib/x86_64-linux-gnu/libc.so.6
symlink                                           /lib/x86_64-linux-gnu/libc.so.6
symlink@@GLIBC_2.2.5                              /lib/x86_64-linux-gnu/libc.so.6
symlink@GLIBC_2.2.5                               /lib/x86_64-linux-gnu/libc.so.6
sysconf                                           /lib/x86_64-linux-gnu/libc.so.6
                                                  /home/born/DPDK-OVS/DPDK-1.6.0/build/lib/librte_eal.a(eal_pci.o)
sysconf@@GLIBC_2.2.5                              /lib/x86_64-linux-gnu/libc.so.6
sysconf@GLIBC_2.2.5                               /lib/x86_64-linux-gnu/libc.so.6
sysctl                                            /lib/x86_64-linux-gnu/libc.so.6
sysctl@@GLIBC_2.2.5                               /lib/x86_64-linux-gnu/libc.so.6
sysctl@GLIBC_2.2.5                                /lib/x86_64-linux-gnu/libc.so.6
sysv_signal                                       /lib/x86_64-linux-gnu/libc.so.6
sysv_signal@@GLIBC_2.2.5                          /lib/x86_64-linux-gnu/libc.so.6
sysv_signal@GLIBC_2.2.5                           /lib/x86_64-linux-gnu/libc.so.6
tcdrain                                           /lib/x86_64-linux-gnu/libpthread.so.0
tcdrain@@GLIBC_2.2.5                              /lib/x86_64-linux-gnu/libpthread.so.0
                                                  /lib/x86_64-linux-gnu/libc.so.6
tcdrain@GLIBC_2.2.5                               /lib/x86_64-linux-gnu/libpthread.so.0
tcgetattr                                         /lib/x86_64-linux-gnu/libc.so.6
                                                  /home/born/DPDK-OVS/DPDK-1.6.0/build/lib/librte_cmdline.a(cmdline_socket.o)
tcgetattr@@GLIBC_2.2.5                            /lib/x86_64-linux-gnu/libc.so.6
tcgetattr@GLIBC_2.2.5                             /lib/x86_64-linux-gnu/libc.so.6
tcsetattr                                         /lib/x86_64-linux-gnu/libc.so.6
                                                  /home/born/DPDK-OVS/DPDK-1.6.0/build/lib/librte_cmdline.a(cmdline_socket.o)
tcsetattr@@GLIBC_2.2.5                            /lib/x86_64-linux-gnu/libc.so.6
tcsetattr@GLIBC_2.2.5                             /lib/x86_64-linux-gnu/libc.so.6
tdelete                                           /lib/x86_64-linux-gnu/libc.so.6
tdelete@@GLIBC_2.2.5                              /lib/x86_64-linux-gnu/libc.so.6
tdelete@GLIBC_2.2.5                               /lib/x86_64-linux-gnu/libc.so.6
                                                  /lib/x86_64-linux-gnu/libpthread.so.0
tdestroy                                          /lib/x86_64-linux-gnu/libc.so.6
tdestroy@@GLIBC_2.2.5                             /lib/x86_64-linux-gnu/libc.so.6
tdestroy@GLIBC_2.2.5                              /lib/x86_64-linux-gnu/libc.so.6
textdomain                                        /lib/x86_64-linux-gnu/libc.so.6
textdomain@@GLIBC_2.2.5                           /lib/x86_64-linux-gnu/libc.so.6
textdomain@GLIBC_2.2.5                            /lib/x86_64-linux-gnu/libc.so.6
tfind                                             /lib/x86_64-linux-gnu/libc.so.6
tfind@@GLIBC_2.2.5                                /lib/x86_64-linux-gnu/libc.so.6
tfind@GLIBC_2.2.5                                 /lib/x86_64-linux-gnu/libc.so.6
                                                  /lib/x86_64-linux-gnu/libpthread.so.0
timelocal                                         /lib/x86_64-linux-gnu/libc.so.6
timelocal@@GLIBC_2.2.5                            /lib/x86_64-linux-gnu/libc.so.6
timelocal@GLIBC_2.2.5                             /lib/x86_64-linux-gnu/libc.so.6
timerfd_create                                    /lib/x86_64-linux-gnu/libc.so.6
                                                  /home/born/DPDK-OVS/DPDK-1.6.0/build/lib/librte_eal.a(eal_alarm.o)
timerfd_create@@GLIBC_2.8                         /lib/x86_64-linux-gnu/libc.so.6
timerfd_create@GLIBC_2.8                          /lib/x86_64-linux-gnu/libc.so.6
timerfd_settime                                   /lib/x86_64-linux-gnu/libc.so.6
                                                  /home/born/DPDK-OVS/DPDK-1.6.0/build/lib/librte_eal.a(eal_alarm.o)
timerfd_settime@@GLIBC_2.8                        /lib/x86_64-linux-gnu/libc.so.6
timerfd_settime@GLIBC_2.8                         /lib/x86_64-linux-gnu/libc.so.6
times                                             /lib/x86_64-linux-gnu/libc.so.6
times@@GLIBC_2.2.5                                /lib/x86_64-linux-gnu/libc.so.6
times@GLIBC_2.2.5                                 /lib/x86_64-linux-gnu/libc.so.6
timezone                                          /lib/x86_64-linux-gnu/libc.so.6
timezone@@GLIBC_2.2.5                             /lib/x86_64-linux-gnu/libc.so.6
timezone@GLIBC_2.2.5                              /lib/x86_64-linux-gnu/libc.so.6
tmpfile64                                         /lib/x86_64-linux-gnu/libc.so.6
tmpfile64@@GLIBC_2.2.5                            /lib/x86_64-linux-gnu/libc.so.6
tmpfile64@GLIBC_2.2.5                             /lib/x86_64-linux-gnu/libc.so.6
tolower_l                                         /lib/x86_64-linux-gnu/libc.so.6
tolower_l@@GLIBC_2.3                              /lib/x86_64-linux-gnu/libc.so.6
tolower_l@GLIBC_2.3                               /lib/x86_64-linux-gnu/libc.so.6
toupper_l                                         /lib/x86_64-linux-gnu/libc.so.6
toupper_l@@GLIBC_2.3                              /lib/x86_64-linux-gnu/libc.so.6
toupper_l@GLIBC_2.3                               /lib/x86_64-linux-gnu/libc.so.6
towctrans                                         /lib/x86_64-linux-gnu/libc.so.6
towctrans@@GLIBC_2.2.5                            /lib/x86_64-linux-gnu/libc.so.6
towctrans@GLIBC_2.2.5                             /lib/x86_64-linux-gnu/libc.so.6
towctrans_l                                       /lib/x86_64-linux-gnu/libc.so.6
towctrans_l@@GLIBC_2.3                            /lib/x86_64-linux-gnu/libc.so.6
towctrans_l@GLIBC_2.3                             /lib/x86_64-linux-gnu/libc.so.6
towlower_l                                        /lib/x86_64-linux-gnu/libc.so.6
towlower_l@@GLIBC_2.3                             /lib/x86_64-linux-gnu/libc.so.6
towlower_l@GLIBC_2.3                              /lib/x86_64-linux-gnu/libc.so.6
towupper_l                                        /lib/x86_64-linux-gnu/libc.so.6
towupper_l@@GLIBC_2.3                             /lib/x86_64-linux-gnu/libc.so.6
towupper_l@GLIBC_2.3                              /lib/x86_64-linux-gnu/libc.so.6
truncate64                                        /lib/x86_64-linux-gnu/libc.so.6
truncate64@@GLIBC_2.2.5                           /lib/x86_64-linux-gnu/libc.so.6
truncate64@GLIBC_2.2.5                            /lib/x86_64-linux-gnu/libc.so.6
tsearch                                           /lib/x86_64-linux-gnu/libc.so.6
tsearch@@GLIBC_2.2.5                              /lib/x86_64-linux-gnu/libc.so.6
tsearch@GLIBC_2.2.5                               /lib/x86_64-linux-gnu/libc.so.6
                                                  /lib/x86_64-linux-gnu/libpthread.so.0
ttyname_r                                         /lib/x86_64-linux-gnu/libc.so.6
ttyname_r@@GLIBC_2.2.5                            /lib/x86_64-linux-gnu/libc.so.6
ttyname_r@GLIBC_2.2.5                             /lib/x86_64-linux-gnu/libc.so.6
twalk                                             /lib/x86_64-linux-gnu/libc.so.6
twalk@@GLIBC_2.2.5                                /lib/x86_64-linux-gnu/libc.so.6
twalk@GLIBC_2.2.5                                 /lib/x86_64-linux-gnu/libc.so.6
                                                  /lib/x86_64-linux-gnu/libpthread.so.0
tx_cksum_set                                      config.o
                                                  cmdline.o
tx_free_thresh                                    testpmd.o
                                                  config.o
                                                  cmdline.o
                                                  parameters.o
tx_only_engine                                    txonly.o
                                                  config.o
                                                  testpmd.o
tx_pkt_length                                     testpmd.o
                                                  txonly.o
                                                  config.o
tx_pkt_nb_segs                                    testpmd.o
                                                  txonly.o
                                                  config.o
tx_pkt_seg_lengths                                testpmd.o
                                                  txonly.o
                                                  config.o
tx_queue_stats_mappings                           testpmd.o
                                                  config.o
                                                  parameters.o
tx_queue_stats_mappings_array                     parameters.o
                                                  testpmd.o
tx_ring_desc_display                              config.o
                                                  cmdline.o
tx_rs_thresh                                      testpmd.o
                                                  config.o
                                                  cmdline.o
                                                  parameters.o
tx_thresh                                         testpmd.o
                                                  config.o
                                                  cmdline.o
                                                  parameters.o
tx_vlan_reset                                     config.o
                                                  cmdline.o
tx_vlan_set                                       config.o
                                                  cmdline.o
txq_flags                                         testpmd.o
                                                  config.o
                                                  parameters.o
txring_numa                                       csumonly.o
                                                  txonly.o
                                                  rxonly.o
                                                  macfwd-retry.o
                                                  macfwd.o
                                                  iofwd.o
                                                  config.o
                                                  cmdline.o
                                                  parameters.o
                                                  testpmd.o
tzname                                            /lib/x86_64-linux-gnu/libc.so.6
tzname@@GLIBC_2.2.5                               /lib/x86_64-linux-gnu/libc.so.6
tzname@GLIBC_2.2.5                                /lib/x86_64-linux-gnu/libc.so.6
tzset                                             /lib/x86_64-linux-gnu/libc.so.6
tzset@@GLIBC_2.2.5                                /lib/x86_64-linux-gnu/libc.so.6
tzset@GLIBC_2.2.5                                 /lib/x86_64-linux-gnu/libc.so.6
ulckpwdf                                          /lib/x86_64-linux-gnu/libc.so.6
ulckpwdf@@GLIBC_2.2.5                             /lib/x86_64-linux-gnu/libc.so.6
ulckpwdf@GLIBC_2.2.5                              /lib/x86_64-linux-gnu/libc.so.6
ulimit                                            /lib/x86_64-linux-gnu/libc.so.6
ulimit@@GLIBC_2.2.5                               /lib/x86_64-linux-gnu/libc.so.6
ulimit@GLIBC_2.2.5                                /lib/x86_64-linux-gnu/libc.so.6
umask                                             /lib/x86_64-linux-gnu/libc.so.6
umask@@GLIBC_2.2.5                                /lib/x86_64-linux-gnu/libc.so.6
umask@GLIBC_2.2.5                                 /lib/x86_64-linux-gnu/libc.so.6
umount                                            /lib/x86_64-linux-gnu/libc.so.6
umount2                                           /lib/x86_64-linux-gnu/libc.so.6
umount2@@GLIBC_2.2.5                              /lib/x86_64-linux-gnu/libc.so.6
umount2@GLIBC_2.2.5                               /lib/x86_64-linux-gnu/libc.so.6
umount@@GLIBC_2.2.5                               /lib/x86_64-linux-gnu/libc.so.6
umount@GLIBC_2.2.5                                /lib/x86_64-linux-gnu/libc.so.6
uname                                             /lib/x86_64-linux-gnu/libc.so.6
uname@@GLIBC_2.2.5                                /lib/x86_64-linux-gnu/libc.so.6
uname@GLIBC_2.2.5                                 /lib/x86_64-linux-gnu/libc.so.6
ungetc                                            /lib/x86_64-linux-gnu/libc.so.6
ungetc@@GLIBC_2.2.5                               /lib/x86_64-linux-gnu/libc.so.6
ungetc@GLIBC_2.2.5                                /lib/x86_64-linux-gnu/libc.so.6
unlink                                            /lib/x86_64-linux-gnu/libc.so.6
                                                  /home/born/DPDK-OVS/DPDK-1.6.0/build/lib/librte_eal.a(eal_ivshmem.o)
                                                  /home/born/DPDK-OVS/DPDK-1.6.0/build/lib/librte_eal.a(eal_memory.o)
unlink@@GLIBC_2.2.5                               /lib/x86_64-linux-gnu/libc.so.6
unlink@GLIBC_2.2.5                                /lib/x86_64-linux-gnu/libc.so.6
                                                  /lib/x86_64-linux-gnu/libpthread.so.0
                                                  /usr/lib/gcc/x86_64-linux-gnu/4.6/../../../x86_64-linux-gnu/librt.so
unlinkat                                          /lib/x86_64-linux-gnu/libc.so.6
                                                  /home/born/DPDK-OVS/DPDK-1.6.0/build/lib/librte_eal.a(eal_hugepage_info.o)
unlinkat@@GLIBC_2.4                               /lib/x86_64-linux-gnu/libc.so.6
unlinkat@GLIBC_2.4                                /lib/x86_64-linux-gnu/libc.so.6
unsetenv                                          /lib/x86_64-linux-gnu/libc.so.6
unsetenv@@GLIBC_2.2.5                             /lib/x86_64-linux-gnu/libc.so.6
unsetenv@GLIBC_2.2.5                              /lib/x86_64-linux-gnu/libc.so.6
updwtmp                                           /lib/x86_64-linux-gnu/libc.so.6
updwtmp@@GLIBC_2.2.5                              /lib/x86_64-linux-gnu/libc.so.6
updwtmp@GLIBC_2.2.5                               /lib/x86_64-linux-gnu/libc.so.6
uselocale                                         /lib/x86_64-linux-gnu/libc.so.6
uselocale@@GLIBC_2.3                              /lib/x86_64-linux-gnu/libc.so.6
uselocale@GLIBC_2.3                               /lib/x86_64-linux-gnu/libc.so.6
utimes                                            /lib/x86_64-linux-gnu/libc.so.6
utimes@@GLIBC_2.2.5                               /lib/x86_64-linux-gnu/libc.so.6
utimes@GLIBC_2.2.5                                /lib/x86_64-linux-gnu/libc.so.6
utmpname                                          /lib/x86_64-linux-gnu/libc.so.6
utmpname@@GLIBC_2.2.5                             /lib/x86_64-linux-gnu/libc.so.6
utmpname@GLIBC_2.2.5                              /lib/x86_64-linux-gnu/libc.so.6
valloc                                            /lib/x86_64-linux-gnu/libc.so.6
valloc@@GLIBC_2.2.5                               /lib/x86_64-linux-gnu/libc.so.6
valloc@GLIBC_2.2.5                                /lib/x86_64-linux-gnu/libc.so.6
vasprintf                                         /lib/x86_64-linux-gnu/libc.so.6
vasprintf@@GLIBC_2.2.5                            /lib/x86_64-linux-gnu/libc.so.6
vasprintf@GLIBC_2.2.5                             /lib/x86_64-linux-gnu/libc.so.6
vdprintf                                          /lib/x86_64-linux-gnu/libc.so.6
vdprintf@@GLIBC_2.2.5                             /lib/x86_64-linux-gnu/libc.so.6
vdprintf@GLIBC_2.2.5                              /lib/x86_64-linux-gnu/libc.so.6
verbose_level                                     testpmd.o
                                                  txonly.o
                                                  rxonly.o
                                                  config.o
versionsort64                                     /lib/x86_64-linux-gnu/libc.so.6
versionsort64@@GLIBC_2.2.5                        /lib/x86_64-linux-gnu/libc.so.6
versionsort64@GLIBC_2.2.5                         /lib/x86_64-linux-gnu/libc.so.6
vfork                                             /lib/x86_64-linux-gnu/libpthread.so.0
vfork@@GLIBC_2.2.5                                /lib/x86_64-linux-gnu/libpthread.so.0
                                                  /lib/x86_64-linux-gnu/libc.so.6
vfork@GLIBC_2.2.5                                 /lib/x86_64-linux-gnu/libpthread.so.0
vfscanf                                           /lib/x86_64-linux-gnu/libc.so.6
vfscanf@@GLIBC_2.2.5                              /lib/x86_64-linux-gnu/libc.so.6
vfscanf@GLIBC_2.2.5                               /lib/x86_64-linux-gnu/libc.so.6
vfwprintf                                         /lib/x86_64-linux-gnu/libc.so.6
vfwprintf@@GLIBC_2.2.5                            /lib/x86_64-linux-gnu/libc.so.6
vfwprintf@GLIBC_2.2.5                             /lib/x86_64-linux-gnu/libc.so.6
vfwscanf                                          /lib/x86_64-linux-gnu/libc.so.6
vfwscanf@@GLIBC_2.2.5                             /lib/x86_64-linux-gnu/libc.so.6
vfwscanf@GLIBC_2.2.5                              /lib/x86_64-linux-gnu/libc.so.6
virtio_dev_queue_setup                            /home/born/DPDK-OVS/DPDK-1.6.0/build/lib/librte_pmd_virtio.a(virtio_ethdev.o)
                                                  /home/born/DPDK-OVS/DPDK-1.6.0/build/lib/librte_pmd_virtio.a(virtio_rxtx.o)
virtio_dev_rx_queue_setup                         /home/born/DPDK-OVS/DPDK-1.6.0/build/lib/librte_pmd_virtio.a(virtio_rxtx.o)
                                                  /home/born/DPDK-OVS/DPDK-1.6.0/build/lib/librte_pmd_virtio.a(virtio_ethdev.o)
virtio_dev_rxtx_start                             /home/born/DPDK-OVS/DPDK-1.6.0/build/lib/librte_pmd_virtio.a(virtio_rxtx.o)
                                                  /home/born/DPDK-OVS/DPDK-1.6.0/build/lib/librte_pmd_virtio.a(virtio_ethdev.o)
virtio_dev_tx_queue_setup                         /home/born/DPDK-OVS/DPDK-1.6.0/build/lib/librte_pmd_virtio.a(virtio_rxtx.o)
                                                  /home/born/DPDK-OVS/DPDK-1.6.0/build/lib/librte_pmd_virtio.a(virtio_ethdev.o)
virtio_recv_pkts                                  /home/born/DPDK-OVS/DPDK-1.6.0/build/lib/librte_pmd_virtio.a(virtio_rxtx.o)
                                                  /home/born/DPDK-OVS/DPDK-1.6.0/build/lib/librte_pmd_virtio.a(virtio_ethdev.o)
virtio_xmit_pkts                                  /home/born/DPDK-OVS/DPDK-1.6.0/build/lib/librte_pmd_virtio.a(virtio_rxtx.o)
                                                  /home/born/DPDK-OVS/DPDK-1.6.0/build/lib/librte_pmd_virtio.a(virtio_ethdev.o)
virtqueue_detatch_unused                          /home/born/DPDK-OVS/DPDK-1.6.0/build/lib/librte_pmd_virtio.a(virtqueue.o)
                                                  /home/born/DPDK-OVS/DPDK-1.6.0/build/lib/librte_pmd_virtio.a(virtio_ethdev.o)
virtqueue_disable_intr                            /home/born/DPDK-OVS/DPDK-1.6.0/build/lib/librte_pmd_virtio.a(virtqueue.o)
                                                  /home/born/DPDK-OVS/DPDK-1.6.0/build/lib/librte_pmd_virtio.a(virtio_rxtx.o)
vlan_extend_set                                   config.o
                                                  cmdline.o
vlan_tags                                         testpmd.o
vlan_tpid_set                                     config.o
                                                  cmdline.o
vmxnet3_dev_clear_queues                          /home/born/DPDK-OVS/DPDK-1.6.0/build/lib/librte_pmd_vmxnet3.a(vmxnet3_rxtx.o)
                                                  /home/born/DPDK-OVS/DPDK-1.6.0/build/lib/librte_pmd_vmxnet3.a(vmxnet3_ethdev.o)
vmxnet3_dev_rx_queue_release                      /home/born/DPDK-OVS/DPDK-1.6.0/build/lib/librte_pmd_vmxnet3.a(vmxnet3_rxtx.o)
                                                  /home/born/DPDK-OVS/DPDK-1.6.0/build/lib/librte_pmd_vmxnet3.a(vmxnet3_ethdev.o)
vmxnet3_dev_rx_queue_setup                        /home/born/DPDK-OVS/DPDK-1.6.0/build/lib/librte_pmd_vmxnet3.a(vmxnet3_rxtx.o)
                                                  /home/born/DPDK-OVS/DPDK-1.6.0/build/lib/librte_pmd_vmxnet3.a(vmxnet3_ethdev.o)
vmxnet3_dev_rxtx_init                             /home/born/DPDK-OVS/DPDK-1.6.0/build/lib/librte_pmd_vmxnet3.a(vmxnet3_rxtx.o)
                                                  /home/born/DPDK-OVS/DPDK-1.6.0/build/lib/librte_pmd_vmxnet3.a(vmxnet3_ethdev.o)
vmxnet3_dev_tx_queue_release                      /home/born/DPDK-OVS/DPDK-1.6.0/build/lib/librte_pmd_vmxnet3.a(vmxnet3_rxtx.o)
                                                  /home/born/DPDK-OVS/DPDK-1.6.0/build/lib/librte_pmd_vmxnet3.a(vmxnet3_ethdev.o)
vmxnet3_dev_tx_queue_setup                        /home/born/DPDK-OVS/DPDK-1.6.0/build/lib/librte_pmd_vmxnet3.a(vmxnet3_rxtx.o)
                                                  /home/born/DPDK-OVS/DPDK-1.6.0/build/lib/librte_pmd_vmxnet3.a(vmxnet3_ethdev.o)
vmxnet3_recv_pkts                                 /home/born/DPDK-OVS/DPDK-1.6.0/build/lib/librte_pmd_vmxnet3.a(vmxnet3_rxtx.o)
                                                  /home/born/DPDK-OVS/DPDK-1.6.0/build/lib/librte_pmd_vmxnet3.a(vmxnet3_ethdev.o)
vmxnet3_rss_configure                             /home/born/DPDK-OVS/DPDK-1.6.0/build/lib/librte_pmd_vmxnet3.a(vmxnet3_rxtx.o)
                                                  /home/born/DPDK-OVS/DPDK-1.6.0/build/lib/librte_pmd_vmxnet3.a(vmxnet3_ethdev.o)
vmxnet3_vlan_configure                            /home/born/DPDK-OVS/DPDK-1.6.0/build/lib/librte_pmd_vmxnet3.a(vmxnet3_rxtx.o)
                                                  /home/born/DPDK-OVS/DPDK-1.6.0/build/lib/librte_pmd_vmxnet3.a(vmxnet3_ethdev.o)
vmxnet3_xmit_pkts                                 /home/born/DPDK-OVS/DPDK-1.6.0/build/lib/librte_pmd_vmxnet3.a(vmxnet3_rxtx.o)
                                                  /home/born/DPDK-OVS/DPDK-1.6.0/build/lib/librte_pmd_vmxnet3.a(vmxnet3_ethdev.o)
vscanf                                            /lib/x86_64-linux-gnu/libc.so.6
vscanf@@GLIBC_2.2.5                               /lib/x86_64-linux-gnu/libc.so.6
vscanf@GLIBC_2.2.5                                /lib/x86_64-linux-gnu/libc.so.6
vsnprintf                                         /lib/x86_64-linux-gnu/libc.so.6
                                                  /home/born/DPDK-OVS/DPDK-1.6.0/build/lib/librte_malloc.a(malloc_heap.o)
vsnprintf@@GLIBC_2.2.5                            /lib/x86_64-linux-gnu/libc.so.6
vsnprintf@GLIBC_2.2.5                             /lib/x86_64-linux-gnu/libc.so.6
vsprintf                                          /lib/x86_64-linux-gnu/libc.so.6
vsprintf@@GLIBC_2.2.5                             /lib/x86_64-linux-gnu/libc.so.6
vsprintf@GLIBC_2.2.5                              /lib/x86_64-linux-gnu/libc.so.6
vsscanf                                           /lib/x86_64-linux-gnu/libc.so.6
vsscanf@@GLIBC_2.2.5                              /lib/x86_64-linux-gnu/libc.so.6
vsscanf@GLIBC_2.2.5                               /lib/x86_64-linux-gnu/libc.so.6
vswprintf                                         /lib/x86_64-linux-gnu/libc.so.6
vswprintf@@GLIBC_2.2.5                            /lib/x86_64-linux-gnu/libc.so.6
vswprintf@GLIBC_2.2.5                             /lib/x86_64-linux-gnu/libc.so.6
vt100_init                                        /home/born/DPDK-OVS/DPDK-1.6.0/build/lib/librte_cmdline.a(cmdline_vt100.o)
                                                  /home/born/DPDK-OVS/DPDK-1.6.0/build/lib/librte_cmdline.a(cmdline_rdline.o)
vt100_parser                                      /home/born/DPDK-OVS/DPDK-1.6.0/build/lib/librte_cmdline.a(cmdline_vt100.o)
                                                  /home/born/DPDK-OVS/DPDK-1.6.0/build/lib/librte_cmdline.a(cmdline_rdline.o)
vtpci_get_status                                  /home/born/DPDK-OVS/DPDK-1.6.0/build/lib/librte_pmd_virtio.a(virtio_pci.o)
vtpci_negotiate_features                          /home/born/DPDK-OVS/DPDK-1.6.0/build/lib/librte_pmd_virtio.a(virtio_pci.o)
                                                  /home/born/DPDK-OVS/DPDK-1.6.0/build/lib/librte_pmd_virtio.a(virtio_ethdev.o)
vtpci_read_dev_config                             /home/born/DPDK-OVS/DPDK-1.6.0/build/lib/librte_pmd_virtio.a(virtio_pci.o)
                                                  /home/born/DPDK-OVS/DPDK-1.6.0/build/lib/librte_pmd_virtio.a(virtio_ethdev.o)
vtpci_reinit_complete                             /home/born/DPDK-OVS/DPDK-1.6.0/build/lib/librte_pmd_virtio.a(virtio_pci.o)
                                                  /home/born/DPDK-OVS/DPDK-1.6.0/build/lib/librte_pmd_virtio.a(virtio_ethdev.o)
vtpci_reset                                       /home/born/DPDK-OVS/DPDK-1.6.0/build/lib/librte_pmd_virtio.a(virtio_pci.o)
                                                  /home/born/DPDK-OVS/DPDK-1.6.0/build/lib/librte_pmd_virtio.a(virtio_ethdev.o)
vtpci_set_status                                  /home/born/DPDK-OVS/DPDK-1.6.0/build/lib/librte_pmd_virtio.a(virtio_pci.o)
                                                  /home/born/DPDK-OVS/DPDK-1.6.0/build/lib/librte_pmd_virtio.a(virtio_ethdev.o)
vtpci_write_dev_config                            /home/born/DPDK-OVS/DPDK-1.6.0/build/lib/librte_pmd_virtio.a(virtio_pci.o)
                                                  /home/born/DPDK-OVS/DPDK-1.6.0/build/lib/librte_pmd_virtio.a(virtio_ethdev.o)
wait                                              /lib/x86_64-linux-gnu/libpthread.so.0
wait3                                             /lib/x86_64-linux-gnu/libc.so.6
wait3@@GLIBC_2.2.5                                /lib/x86_64-linux-gnu/libc.so.6
wait3@GLIBC_2.2.5                                 /lib/x86_64-linux-gnu/libc.so.6
wait4                                             /lib/x86_64-linux-gnu/libc.so.6
wait4@@GLIBC_2.2.5                                /lib/x86_64-linux-gnu/libc.so.6
wait4@GLIBC_2.2.5                                 /lib/x86_64-linux-gnu/libc.so.6
wait@@GLIBC_2.2.5                                 /lib/x86_64-linux-gnu/libpthread.so.0
                                                  /lib/x86_64-linux-gnu/libc.so.6
wait@GLIBC_2.2.5                                  /lib/x86_64-linux-gnu/libpthread.so.0
waitid                                            /lib/x86_64-linux-gnu/libc.so.6
waitid@@GLIBC_2.2.5                               /lib/x86_64-linux-gnu/libc.so.6
waitid@GLIBC_2.2.5                                /lib/x86_64-linux-gnu/libc.so.6
waitpid                                           /lib/x86_64-linux-gnu/libpthread.so.0
waitpid@@GLIBC_2.2.5                              /lib/x86_64-linux-gnu/libpthread.so.0
                                                  /lib/x86_64-linux-gnu/libc.so.6
waitpid@GLIBC_2.2.5                               /lib/x86_64-linux-gnu/libpthread.so.0
wcpcpy                                            /lib/x86_64-linux-gnu/libc.so.6
wcpcpy@@GLIBC_2.2.5                               /lib/x86_64-linux-gnu/libc.so.6
wcpcpy@GLIBC_2.2.5                                /lib/x86_64-linux-gnu/libc.so.6
wcpncpy                                           /lib/x86_64-linux-gnu/libc.so.6
wcpncpy@@GLIBC_2.2.5                              /lib/x86_64-linux-gnu/libc.so.6
wcpncpy@GLIBC_2.2.5                               /lib/x86_64-linux-gnu/libc.so.6
wcrtomb                                           /lib/x86_64-linux-gnu/libc.so.6
wcrtomb@@GLIBC_2.2.5                              /lib/x86_64-linux-gnu/libc.so.6
wcrtomb@GLIBC_2.2.5                               /lib/x86_64-linux-gnu/libc.so.6
wcscasecmp                                        /lib/x86_64-linux-gnu/libc.so.6
wcscasecmp@@GLIBC_2.2.5                           /lib/x86_64-linux-gnu/libc.so.6
wcscasecmp@GLIBC_2.2.5                            /lib/x86_64-linux-gnu/libc.so.6
wcscasecmp_l                                      /lib/x86_64-linux-gnu/libc.so.6
wcscasecmp_l@@GLIBC_2.3                           /lib/x86_64-linux-gnu/libc.so.6
wcscasecmp_l@GLIBC_2.3                            /lib/x86_64-linux-gnu/libc.so.6
wcscat                                            /lib/x86_64-linux-gnu/libc.so.6
wcscat@@GLIBC_2.2.5                               /lib/x86_64-linux-gnu/libc.so.6
wcscat@GLIBC_2.2.5                                /lib/x86_64-linux-gnu/libc.so.6
wcschrnul                                         /lib/x86_64-linux-gnu/libc.so.6
wcschrnul@@GLIBC_2.2.5                            /lib/x86_64-linux-gnu/libc.so.6
wcschrnul@GLIBC_2.2.5                             /lib/x86_64-linux-gnu/libc.so.6
wcscoll                                           /lib/x86_64-linux-gnu/libc.so.6
wcscoll@@GLIBC_2.2.5                              /lib/x86_64-linux-gnu/libc.so.6
wcscoll@GLIBC_2.2.5                               /lib/x86_64-linux-gnu/libc.so.6
wcscoll_l                                         /lib/x86_64-linux-gnu/libc.so.6
wcscoll_l@@GLIBC_2.3                              /lib/x86_64-linux-gnu/libc.so.6
wcscoll_l@GLIBC_2.3                               /lib/x86_64-linux-gnu/libc.so.6
wcsftime_l                                        /lib/x86_64-linux-gnu/libc.so.6
wcsftime_l@@GLIBC_2.3                             /lib/x86_64-linux-gnu/libc.so.6
wcsftime_l@GLIBC_2.3                              /lib/x86_64-linux-gnu/libc.so.6
wcslen                                            /lib/x86_64-linux-gnu/libc.so.6
wcslen@@GLIBC_2.2.5                               /lib/x86_64-linux-gnu/libc.so.6
wcslen@GLIBC_2.2.5                                /lib/x86_64-linux-gnu/libc.so.6
wcsncasecmp                                       /lib/x86_64-linux-gnu/libc.so.6
wcsncasecmp@@GLIBC_2.2.5                          /lib/x86_64-linux-gnu/libc.so.6
wcsncasecmp@GLIBC_2.2.5                           /lib/x86_64-linux-gnu/libc.so.6
wcsncasecmp_l                                     /lib/x86_64-linux-gnu/libc.so.6
wcsncasecmp_l@@GLIBC_2.3                          /lib/x86_64-linux-gnu/libc.so.6
wcsncasecmp_l@GLIBC_2.3                           /lib/x86_64-linux-gnu/libc.so.6
wcsncpy                                           /lib/x86_64-linux-gnu/libc.so.6
wcsncpy@@GLIBC_2.2.5                              /lib/x86_64-linux-gnu/libc.so.6
wcsncpy@GLIBC_2.2.5                               /lib/x86_64-linux-gnu/libc.so.6
wcsnlen                                           /lib/x86_64-linux-gnu/libc.so.6
wcsnlen@@GLIBC_2.2.5                              /lib/x86_64-linux-gnu/libc.so.6
wcsnlen@GLIBC_2.2.5                               /lib/x86_64-linux-gnu/libc.so.6
wcsnrtombs                                        /lib/x86_64-linux-gnu/libc.so.6
wcsnrtombs@@GLIBC_2.2.5                           /lib/x86_64-linux-gnu/libc.so.6
wcsnrtombs@GLIBC_2.2.5                            /lib/x86_64-linux-gnu/libc.so.6
wcsrtombs                                         /lib/x86_64-linux-gnu/libc.so.6
wcsrtombs@@GLIBC_2.2.5                            /lib/x86_64-linux-gnu/libc.so.6
wcsrtombs@GLIBC_2.2.5                             /lib/x86_64-linux-gnu/libc.so.6
wcstod_l                                          /lib/x86_64-linux-gnu/libc.so.6
wcstod_l@@GLIBC_2.3                               /lib/x86_64-linux-gnu/libc.so.6
wcstod_l@GLIBC_2.3                                /lib/x86_64-linux-gnu/libc.so.6
wcstof_l                                          /lib/x86_64-linux-gnu/libc.so.6
wcstof_l@@GLIBC_2.3                               /lib/x86_64-linux-gnu/libc.so.6
wcstof_l@GLIBC_2.3                                /lib/x86_64-linux-gnu/libc.so.6
wcstol_l                                          /lib/x86_64-linux-gnu/libc.so.6
wcstol_l@@GLIBC_2.3                               /lib/x86_64-linux-gnu/libc.so.6
wcstol_l@GLIBC_2.3                                /lib/x86_64-linux-gnu/libc.so.6
wcstold_l                                         /lib/x86_64-linux-gnu/libc.so.6
wcstold_l@@GLIBC_2.3                              /lib/x86_64-linux-gnu/libc.so.6
wcstold_l@GLIBC_2.3                               /lib/x86_64-linux-gnu/libc.so.6
wcstoll                                           /lib/x86_64-linux-gnu/libc.so.6
wcstoll@@GLIBC_2.2.5                              /lib/x86_64-linux-gnu/libc.so.6
wcstoll@GLIBC_2.2.5                               /lib/x86_64-linux-gnu/libc.so.6
wcstoll_l                                         /lib/x86_64-linux-gnu/libc.so.6
wcstoll_l@@GLIBC_2.3                              /lib/x86_64-linux-gnu/libc.so.6
wcstoll_l@GLIBC_2.3                               /lib/x86_64-linux-gnu/libc.so.6
wcstoq                                            /lib/x86_64-linux-gnu/libc.so.6
wcstoq@@GLIBC_2.2.5                               /lib/x86_64-linux-gnu/libc.so.6
wcstoq@GLIBC_2.2.5                                /lib/x86_64-linux-gnu/libc.so.6
wcstoul_l                                         /lib/x86_64-linux-gnu/libc.so.6
wcstoul_l@@GLIBC_2.3                              /lib/x86_64-linux-gnu/libc.so.6
wcstoul_l@GLIBC_2.3                               /lib/x86_64-linux-gnu/libc.so.6
wcstoull                                          /lib/x86_64-linux-gnu/libc.so.6
wcstoull@@GLIBC_2.2.5                             /lib/x86_64-linux-gnu/libc.so.6
wcstoull@GLIBC_2.2.5                              /lib/x86_64-linux-gnu/libc.so.6
wcstoull_l                                        /lib/x86_64-linux-gnu/libc.so.6
wcstoull_l@@GLIBC_2.3                             /lib/x86_64-linux-gnu/libc.so.6
wcstoull_l@GLIBC_2.3                              /lib/x86_64-linux-gnu/libc.so.6
wcstouq                                           /lib/x86_64-linux-gnu/libc.so.6
wcstouq@@GLIBC_2.2.5                              /lib/x86_64-linux-gnu/libc.so.6
wcstouq@GLIBC_2.2.5                               /lib/x86_64-linux-gnu/libc.so.6
wcswcs                                            /lib/x86_64-linux-gnu/libc.so.6
wcswcs@@GLIBC_2.2.5                               /lib/x86_64-linux-gnu/libc.so.6
wcswcs@GLIBC_2.2.5                                /lib/x86_64-linux-gnu/libc.so.6
wcsxfrm_l                                         /lib/x86_64-linux-gnu/libc.so.6
wcsxfrm_l@@GLIBC_2.3                              /lib/x86_64-linux-gnu/libc.so.6
wcsxfrm_l@GLIBC_2.3                               /lib/x86_64-linux-gnu/libc.so.6
wctrans                                           /lib/x86_64-linux-gnu/libc.so.6
wctrans@@GLIBC_2.2.5                              /lib/x86_64-linux-gnu/libc.so.6
wctrans@GLIBC_2.2.5                               /lib/x86_64-linux-gnu/libc.so.6
wctrans_l                                         /lib/x86_64-linux-gnu/libc.so.6
wctrans_l@@GLIBC_2.3                              /lib/x86_64-linux-gnu/libc.so.6
wctrans_l@GLIBC_2.3                               /lib/x86_64-linux-gnu/libc.so.6
wctype                                            /lib/x86_64-linux-gnu/libc.so.6
wctype@@GLIBC_2.2.5                               /lib/x86_64-linux-gnu/libc.so.6
wctype@GLIBC_2.2.5                                /lib/x86_64-linux-gnu/libc.so.6
wctype_l                                          /lib/x86_64-linux-gnu/libc.so.6
wctype_l@@GLIBC_2.3                               /lib/x86_64-linux-gnu/libc.so.6
wctype_l@GLIBC_2.3                                /lib/x86_64-linux-gnu/libc.so.6
wmemcpy                                           /lib/x86_64-linux-gnu/libc.so.6
wmemcpy@@GLIBC_2.2.5                              /lib/x86_64-linux-gnu/libc.so.6
wmemcpy@GLIBC_2.2.5                               /lib/x86_64-linux-gnu/libc.so.6
wmemmove                                          /lib/x86_64-linux-gnu/libc.so.6
wmemmove@@GLIBC_2.2.5                             /lib/x86_64-linux-gnu/libc.so.6
wmemmove@GLIBC_2.2.5                              /lib/x86_64-linux-gnu/libc.so.6
wmempcpy                                          /lib/x86_64-linux-gnu/libc.so.6
wmempcpy@@GLIBC_2.2.5                             /lib/x86_64-linux-gnu/libc.so.6
wmempcpy@GLIBC_2.2.5                              /lib/x86_64-linux-gnu/libc.so.6
write                                             /lib/x86_64-linux-gnu/libpthread.so.0
                                                  /home/born/DPDK-OVS/DPDK-1.6.0/build/lib/librte_cmdline.a(cmdline.o)
                                                  /home/born/DPDK-OVS/DPDK-1.6.0/build/lib/librte_eal.a(eal_interrupts.o)
                                                  /home/born/DPDK-OVS/DPDK-1.6.0/build/lib/librte_eal.a(eal_thread.o)
write@@GLIBC_2.2.5                                /lib/x86_64-linux-gnu/libpthread.so.0
                                                  /lib/x86_64-linux-gnu/libc.so.6
write@GLIBC_2.2.5                                 /lib/x86_64-linux-gnu/libpthread.so.0
                                                  /usr/lib/gcc/x86_64-linux-gnu/4.6/../../../x86_64-linux-gnu/librt.so
writev                                            /lib/x86_64-linux-gnu/libc.so.6
writev@@GLIBC_2.2.5                               /lib/x86_64-linux-gnu/libc.so.6
writev@GLIBC_2.2.5                                /lib/x86_64-linux-gnu/libc.so.6
